
FW Wi-Fi Shield Rev1.elf:     file format elf32-littlearm

Sections:
Idx Name          Size      VMA       LMA       File off  Algn
  0 .isr_vector   00000194  08000000  08000000  00010000  2**0
                  CONTENTS, ALLOC, LOAD, READONLY, DATA
  1 .text         000066fc  080001a0  080001a0  000101a0  2**4
                  CONTENTS, ALLOC, LOAD, READONLY, CODE
  2 .rodata       00000118  0800689c  0800689c  0001689c  2**2
                  CONTENTS, ALLOC, LOAD, READONLY, DATA
  3 .ARM.extab    00000000  080069b4  080069b4  00020060  2**0
                  CONTENTS
  4 .ARM          00000008  080069b4  080069b4  000169b4  2**2
                  CONTENTS, ALLOC, LOAD, READONLY, DATA
  5 .preinit_array 00000000  080069bc  080069bc  00020060  2**0
                  CONTENTS, ALLOC, LOAD, DATA
  6 .init_array   00000004  080069bc  080069bc  000169bc  2**2
                  CONTENTS, ALLOC, LOAD, DATA
  7 .fini_array   00000004  080069c0  080069c0  000169c0  2**2
                  CONTENTS, ALLOC, LOAD, DATA
  8 .data         00000060  20000000  080069c4  00020000  2**2
                  CONTENTS, ALLOC, LOAD, DATA
  9 .bss          00000574  20000060  08006a24  00020060  2**2
                  ALLOC
 10 ._user_heap_stack 00000604  200005d4  08006a24  000205d4  2**0
                  ALLOC
 11 .ARM.attributes 00000030  00000000  00000000  00020060  2**0
                  CONTENTS, READONLY
 12 .comment      00000043  00000000  00000000  00020090  2**0
                  CONTENTS, READONLY
 13 .debug_info   00016cfd  00000000  00000000  000200d3  2**0
                  CONTENTS, READONLY, DEBUGGING, OCTETS
 14 .debug_abbrev 000032cb  00000000  00000000  00036dd0  2**0
                  CONTENTS, READONLY, DEBUGGING, OCTETS
 15 .debug_aranges 000013d8  00000000  00000000  0003a0a0  2**3
                  CONTENTS, READONLY, DEBUGGING, OCTETS
 16 .debug_rnglists 00000f73  00000000  00000000  0003b478  2**0
                  CONTENTS, READONLY, DEBUGGING, OCTETS
 17 .debug_macro  00025189  00000000  00000000  0003c3eb  2**0
                  CONTENTS, READONLY, DEBUGGING, OCTETS
 18 .debug_line   0001adaa  00000000  00000000  00061574  2**0
                  CONTENTS, READONLY, DEBUGGING, OCTETS
 19 .debug_str    000dca42  00000000  00000000  0007c31e  2**0
                  CONTENTS, READONLY, DEBUGGING, OCTETS
 20 .debug_frame  000057a4  00000000  00000000  00158d60  2**2
                  CONTENTS, READONLY, DEBUGGING, OCTETS
 21 .debug_line_str 00000068  00000000  00000000  0015e504  2**0
                  CONTENTS, READONLY, DEBUGGING, OCTETS

Disassembly of section .text:

080001a0 <__do_global_dtors_aux>:
 80001a0:	b510      	push	{r4, lr}
 80001a2:	4c05      	ldr	r4, [pc, #20]	; (80001b8 <__do_global_dtors_aux+0x18>)
 80001a4:	7823      	ldrb	r3, [r4, #0]
 80001a6:	b933      	cbnz	r3, 80001b6 <__do_global_dtors_aux+0x16>
 80001a8:	4b04      	ldr	r3, [pc, #16]	; (80001bc <__do_global_dtors_aux+0x1c>)
 80001aa:	b113      	cbz	r3, 80001b2 <__do_global_dtors_aux+0x12>
 80001ac:	4804      	ldr	r0, [pc, #16]	; (80001c0 <__do_global_dtors_aux+0x20>)
 80001ae:	f3af 8000 	nop.w
 80001b2:	2301      	movs	r3, #1
 80001b4:	7023      	strb	r3, [r4, #0]
 80001b6:	bd10      	pop	{r4, pc}
 80001b8:	20000060 	.word	0x20000060
 80001bc:	00000000 	.word	0x00000000
 80001c0:	08006884 	.word	0x08006884

080001c4 <frame_dummy>:
 80001c4:	b508      	push	{r3, lr}
 80001c6:	4b03      	ldr	r3, [pc, #12]	; (80001d4 <frame_dummy+0x10>)
 80001c8:	b11b      	cbz	r3, 80001d2 <frame_dummy+0xe>
 80001ca:	4903      	ldr	r1, [pc, #12]	; (80001d8 <frame_dummy+0x14>)
 80001cc:	4803      	ldr	r0, [pc, #12]	; (80001dc <frame_dummy+0x18>)
 80001ce:	f3af 8000 	nop.w
 80001d2:	bd08      	pop	{r3, pc}
 80001d4:	00000000 	.word	0x00000000
 80001d8:	20000064 	.word	0x20000064
 80001dc:	08006884 	.word	0x08006884

080001e0 <strlen>:
 80001e0:	4603      	mov	r3, r0
 80001e2:	f813 2b01 	ldrb.w	r2, [r3], #1
 80001e6:	2a00      	cmp	r2, #0
 80001e8:	d1fb      	bne.n	80001e2 <strlen+0x2>
 80001ea:	1a18      	subs	r0, r3, r0
 80001ec:	3801      	subs	r0, #1
 80001ee:	4770      	bx	lr

080001f0 <memchr>:
 80001f0:	f001 01ff 	and.w	r1, r1, #255	; 0xff
 80001f4:	2a10      	cmp	r2, #16
 80001f6:	db2b      	blt.n	8000250 <memchr+0x60>
 80001f8:	f010 0f07 	tst.w	r0, #7
 80001fc:	d008      	beq.n	8000210 <memchr+0x20>
 80001fe:	f810 3b01 	ldrb.w	r3, [r0], #1
 8000202:	3a01      	subs	r2, #1
 8000204:	428b      	cmp	r3, r1
 8000206:	d02d      	beq.n	8000264 <memchr+0x74>
 8000208:	f010 0f07 	tst.w	r0, #7
 800020c:	b342      	cbz	r2, 8000260 <memchr+0x70>
 800020e:	d1f6      	bne.n	80001fe <memchr+0xe>
 8000210:	b4f0      	push	{r4, r5, r6, r7}
 8000212:	ea41 2101 	orr.w	r1, r1, r1, lsl #8
 8000216:	ea41 4101 	orr.w	r1, r1, r1, lsl #16
 800021a:	f022 0407 	bic.w	r4, r2, #7
 800021e:	f07f 0700 	mvns.w	r7, #0
 8000222:	2300      	movs	r3, #0
 8000224:	e8f0 5602 	ldrd	r5, r6, [r0], #8
 8000228:	3c08      	subs	r4, #8
 800022a:	ea85 0501 	eor.w	r5, r5, r1
 800022e:	ea86 0601 	eor.w	r6, r6, r1
 8000232:	fa85 f547 	uadd8	r5, r5, r7
 8000236:	faa3 f587 	sel	r5, r3, r7
 800023a:	fa86 f647 	uadd8	r6, r6, r7
 800023e:	faa5 f687 	sel	r6, r5, r7
 8000242:	b98e      	cbnz	r6, 8000268 <memchr+0x78>
 8000244:	d1ee      	bne.n	8000224 <memchr+0x34>
 8000246:	bcf0      	pop	{r4, r5, r6, r7}
 8000248:	f001 01ff 	and.w	r1, r1, #255	; 0xff
 800024c:	f002 0207 	and.w	r2, r2, #7
 8000250:	b132      	cbz	r2, 8000260 <memchr+0x70>
 8000252:	f810 3b01 	ldrb.w	r3, [r0], #1
 8000256:	3a01      	subs	r2, #1
 8000258:	ea83 0301 	eor.w	r3, r3, r1
 800025c:	b113      	cbz	r3, 8000264 <memchr+0x74>
 800025e:	d1f8      	bne.n	8000252 <memchr+0x62>
 8000260:	2000      	movs	r0, #0
 8000262:	4770      	bx	lr
 8000264:	3801      	subs	r0, #1
 8000266:	4770      	bx	lr
 8000268:	2d00      	cmp	r5, #0
 800026a:	bf06      	itte	eq
 800026c:	4635      	moveq	r5, r6
 800026e:	3803      	subeq	r0, #3
 8000270:	3807      	subne	r0, #7
 8000272:	f015 0f01 	tst.w	r5, #1
 8000276:	d107      	bne.n	8000288 <memchr+0x98>
 8000278:	3001      	adds	r0, #1
 800027a:	f415 7f80 	tst.w	r5, #256	; 0x100
 800027e:	bf02      	ittt	eq
 8000280:	3001      	addeq	r0, #1
 8000282:	f415 3fc0 	tsteq.w	r5, #98304	; 0x18000
 8000286:	3001      	addeq	r0, #1
 8000288:	bcf0      	pop	{r4, r5, r6, r7}
 800028a:	3801      	subs	r0, #1
 800028c:	4770      	bx	lr
 800028e:	bf00      	nop

08000290 <__aeabi_uldivmod>:
 8000290:	b953      	cbnz	r3, 80002a8 <__aeabi_uldivmod+0x18>
 8000292:	b94a      	cbnz	r2, 80002a8 <__aeabi_uldivmod+0x18>
 8000294:	2900      	cmp	r1, #0
 8000296:	bf08      	it	eq
 8000298:	2800      	cmpeq	r0, #0
 800029a:	bf1c      	itt	ne
 800029c:	f04f 31ff 	movne.w	r1, #4294967295
 80002a0:	f04f 30ff 	movne.w	r0, #4294967295
 80002a4:	f000 b970 	b.w	8000588 <__aeabi_idiv0>
 80002a8:	f1ad 0c08 	sub.w	ip, sp, #8
 80002ac:	e96d ce04 	strd	ip, lr, [sp, #-16]!
 80002b0:	f000 f806 	bl	80002c0 <__udivmoddi4>
 80002b4:	f8dd e004 	ldr.w	lr, [sp, #4]
 80002b8:	e9dd 2302 	ldrd	r2, r3, [sp, #8]
 80002bc:	b004      	add	sp, #16
 80002be:	4770      	bx	lr

080002c0 <__udivmoddi4>:
 80002c0:	e92d 47f0 	stmdb	sp!, {r4, r5, r6, r7, r8, r9, sl, lr}
 80002c4:	9e08      	ldr	r6, [sp, #32]
 80002c6:	460d      	mov	r5, r1
 80002c8:	4604      	mov	r4, r0
 80002ca:	460f      	mov	r7, r1
 80002cc:	2b00      	cmp	r3, #0
 80002ce:	d14a      	bne.n	8000366 <__udivmoddi4+0xa6>
 80002d0:	428a      	cmp	r2, r1
 80002d2:	4694      	mov	ip, r2
 80002d4:	d965      	bls.n	80003a2 <__udivmoddi4+0xe2>
 80002d6:	fab2 f382 	clz	r3, r2
 80002da:	b143      	cbz	r3, 80002ee <__udivmoddi4+0x2e>
 80002dc:	fa02 fc03 	lsl.w	ip, r2, r3
 80002e0:	f1c3 0220 	rsb	r2, r3, #32
 80002e4:	409f      	lsls	r7, r3
 80002e6:	fa20 f202 	lsr.w	r2, r0, r2
 80002ea:	4317      	orrs	r7, r2
 80002ec:	409c      	lsls	r4, r3
 80002ee:	ea4f 4e1c 	mov.w	lr, ip, lsr #16
 80002f2:	fa1f f58c 	uxth.w	r5, ip
 80002f6:	fbb7 f1fe 	udiv	r1, r7, lr
 80002fa:	0c22      	lsrs	r2, r4, #16
 80002fc:	fb0e 7711 	mls	r7, lr, r1, r7
 8000300:	ea42 4207 	orr.w	r2, r2, r7, lsl #16
 8000304:	fb01 f005 	mul.w	r0, r1, r5
 8000308:	4290      	cmp	r0, r2
 800030a:	d90a      	bls.n	8000322 <__udivmoddi4+0x62>
 800030c:	eb1c 0202 	adds.w	r2, ip, r2
 8000310:	f101 37ff 	add.w	r7, r1, #4294967295
 8000314:	f080 811c 	bcs.w	8000550 <__udivmoddi4+0x290>
 8000318:	4290      	cmp	r0, r2
 800031a:	f240 8119 	bls.w	8000550 <__udivmoddi4+0x290>
 800031e:	3902      	subs	r1, #2
 8000320:	4462      	add	r2, ip
 8000322:	1a12      	subs	r2, r2, r0
 8000324:	b2a4      	uxth	r4, r4
 8000326:	fbb2 f0fe 	udiv	r0, r2, lr
 800032a:	fb0e 2210 	mls	r2, lr, r0, r2
 800032e:	ea44 4402 	orr.w	r4, r4, r2, lsl #16
 8000332:	fb00 f505 	mul.w	r5, r0, r5
 8000336:	42a5      	cmp	r5, r4
 8000338:	d90a      	bls.n	8000350 <__udivmoddi4+0x90>
 800033a:	eb1c 0404 	adds.w	r4, ip, r4
 800033e:	f100 32ff 	add.w	r2, r0, #4294967295
 8000342:	f080 8107 	bcs.w	8000554 <__udivmoddi4+0x294>
 8000346:	42a5      	cmp	r5, r4
 8000348:	f240 8104 	bls.w	8000554 <__udivmoddi4+0x294>
 800034c:	4464      	add	r4, ip
 800034e:	3802      	subs	r0, #2
 8000350:	ea40 4001 	orr.w	r0, r0, r1, lsl #16
 8000354:	1b64      	subs	r4, r4, r5
 8000356:	2100      	movs	r1, #0
 8000358:	b11e      	cbz	r6, 8000362 <__udivmoddi4+0xa2>
 800035a:	40dc      	lsrs	r4, r3
 800035c:	2300      	movs	r3, #0
 800035e:	e9c6 4300 	strd	r4, r3, [r6]
 8000362:	e8bd 87f0 	ldmia.w	sp!, {r4, r5, r6, r7, r8, r9, sl, pc}
 8000366:	428b      	cmp	r3, r1
 8000368:	d908      	bls.n	800037c <__udivmoddi4+0xbc>
 800036a:	2e00      	cmp	r6, #0
 800036c:	f000 80ed 	beq.w	800054a <__udivmoddi4+0x28a>
 8000370:	2100      	movs	r1, #0
 8000372:	e9c6 0500 	strd	r0, r5, [r6]
 8000376:	4608      	mov	r0, r1
 8000378:	e8bd 87f0 	ldmia.w	sp!, {r4, r5, r6, r7, r8, r9, sl, pc}
 800037c:	fab3 f183 	clz	r1, r3
 8000380:	2900      	cmp	r1, #0
 8000382:	d149      	bne.n	8000418 <__udivmoddi4+0x158>
 8000384:	42ab      	cmp	r3, r5
 8000386:	d302      	bcc.n	800038e <__udivmoddi4+0xce>
 8000388:	4282      	cmp	r2, r0
 800038a:	f200 80f8 	bhi.w	800057e <__udivmoddi4+0x2be>
 800038e:	1a84      	subs	r4, r0, r2
 8000390:	eb65 0203 	sbc.w	r2, r5, r3
 8000394:	2001      	movs	r0, #1
 8000396:	4617      	mov	r7, r2
 8000398:	2e00      	cmp	r6, #0
 800039a:	d0e2      	beq.n	8000362 <__udivmoddi4+0xa2>
 800039c:	e9c6 4700 	strd	r4, r7, [r6]
 80003a0:	e7df      	b.n	8000362 <__udivmoddi4+0xa2>
 80003a2:	b902      	cbnz	r2, 80003a6 <__udivmoddi4+0xe6>
 80003a4:	deff      	udf	#255	; 0xff
 80003a6:	fab2 f382 	clz	r3, r2
 80003aa:	2b00      	cmp	r3, #0
 80003ac:	f040 8090 	bne.w	80004d0 <__udivmoddi4+0x210>
 80003b0:	1a8a      	subs	r2, r1, r2
 80003b2:	ea4f 471c 	mov.w	r7, ip, lsr #16
 80003b6:	fa1f fe8c 	uxth.w	lr, ip
 80003ba:	2101      	movs	r1, #1
 80003bc:	fbb2 f5f7 	udiv	r5, r2, r7
 80003c0:	fb07 2015 	mls	r0, r7, r5, r2
 80003c4:	0c22      	lsrs	r2, r4, #16
 80003c6:	ea42 4200 	orr.w	r2, r2, r0, lsl #16
 80003ca:	fb0e f005 	mul.w	r0, lr, r5
 80003ce:	4290      	cmp	r0, r2
 80003d0:	d908      	bls.n	80003e4 <__udivmoddi4+0x124>
 80003d2:	eb1c 0202 	adds.w	r2, ip, r2
 80003d6:	f105 38ff 	add.w	r8, r5, #4294967295
 80003da:	d202      	bcs.n	80003e2 <__udivmoddi4+0x122>
 80003dc:	4290      	cmp	r0, r2
 80003de:	f200 80cb 	bhi.w	8000578 <__udivmoddi4+0x2b8>
 80003e2:	4645      	mov	r5, r8
 80003e4:	1a12      	subs	r2, r2, r0
 80003e6:	b2a4      	uxth	r4, r4
 80003e8:	fbb2 f0f7 	udiv	r0, r2, r7
 80003ec:	fb07 2210 	mls	r2, r7, r0, r2
 80003f0:	ea44 4402 	orr.w	r4, r4, r2, lsl #16
 80003f4:	fb0e fe00 	mul.w	lr, lr, r0
 80003f8:	45a6      	cmp	lr, r4
 80003fa:	d908      	bls.n	800040e <__udivmoddi4+0x14e>
 80003fc:	eb1c 0404 	adds.w	r4, ip, r4
 8000400:	f100 32ff 	add.w	r2, r0, #4294967295
 8000404:	d202      	bcs.n	800040c <__udivmoddi4+0x14c>
 8000406:	45a6      	cmp	lr, r4
 8000408:	f200 80bb 	bhi.w	8000582 <__udivmoddi4+0x2c2>
 800040c:	4610      	mov	r0, r2
 800040e:	eba4 040e 	sub.w	r4, r4, lr
 8000412:	ea40 4005 	orr.w	r0, r0, r5, lsl #16
 8000416:	e79f      	b.n	8000358 <__udivmoddi4+0x98>
 8000418:	f1c1 0720 	rsb	r7, r1, #32
 800041c:	408b      	lsls	r3, r1
 800041e:	fa22 fc07 	lsr.w	ip, r2, r7
 8000422:	ea4c 0c03 	orr.w	ip, ip, r3
 8000426:	fa05 f401 	lsl.w	r4, r5, r1
 800042a:	fa20 f307 	lsr.w	r3, r0, r7
 800042e:	40fd      	lsrs	r5, r7
 8000430:	ea4f 491c 	mov.w	r9, ip, lsr #16
 8000434:	4323      	orrs	r3, r4
 8000436:	fbb5 f8f9 	udiv	r8, r5, r9
 800043a:	fa1f fe8c 	uxth.w	lr, ip
 800043e:	fb09 5518 	mls	r5, r9, r8, r5
 8000442:	0c1c      	lsrs	r4, r3, #16
 8000444:	ea44 4405 	orr.w	r4, r4, r5, lsl #16
 8000448:	fb08 f50e 	mul.w	r5, r8, lr
 800044c:	42a5      	cmp	r5, r4
 800044e:	fa02 f201 	lsl.w	r2, r2, r1
 8000452:	fa00 f001 	lsl.w	r0, r0, r1
 8000456:	d90b      	bls.n	8000470 <__udivmoddi4+0x1b0>
 8000458:	eb1c 0404 	adds.w	r4, ip, r4
 800045c:	f108 3aff 	add.w	sl, r8, #4294967295
 8000460:	f080 8088 	bcs.w	8000574 <__udivmoddi4+0x2b4>
 8000464:	42a5      	cmp	r5, r4
 8000466:	f240 8085 	bls.w	8000574 <__udivmoddi4+0x2b4>
 800046a:	f1a8 0802 	sub.w	r8, r8, #2
 800046e:	4464      	add	r4, ip
 8000470:	1b64      	subs	r4, r4, r5
 8000472:	b29d      	uxth	r5, r3
 8000474:	fbb4 f3f9 	udiv	r3, r4, r9
 8000478:	fb09 4413 	mls	r4, r9, r3, r4
 800047c:	ea45 4404 	orr.w	r4, r5, r4, lsl #16
 8000480:	fb03 fe0e 	mul.w	lr, r3, lr
 8000484:	45a6      	cmp	lr, r4
 8000486:	d908      	bls.n	800049a <__udivmoddi4+0x1da>
 8000488:	eb1c 0404 	adds.w	r4, ip, r4
 800048c:	f103 35ff 	add.w	r5, r3, #4294967295
 8000490:	d26c      	bcs.n	800056c <__udivmoddi4+0x2ac>
 8000492:	45a6      	cmp	lr, r4
 8000494:	d96a      	bls.n	800056c <__udivmoddi4+0x2ac>
 8000496:	3b02      	subs	r3, #2
 8000498:	4464      	add	r4, ip
 800049a:	ea43 4308 	orr.w	r3, r3, r8, lsl #16
 800049e:	fba3 9502 	umull	r9, r5, r3, r2
 80004a2:	eba4 040e 	sub.w	r4, r4, lr
 80004a6:	42ac      	cmp	r4, r5
 80004a8:	46c8      	mov	r8, r9
 80004aa:	46ae      	mov	lr, r5
 80004ac:	d356      	bcc.n	800055c <__udivmoddi4+0x29c>
 80004ae:	d053      	beq.n	8000558 <__udivmoddi4+0x298>
 80004b0:	b156      	cbz	r6, 80004c8 <__udivmoddi4+0x208>
 80004b2:	ebb0 0208 	subs.w	r2, r0, r8
 80004b6:	eb64 040e 	sbc.w	r4, r4, lr
 80004ba:	fa04 f707 	lsl.w	r7, r4, r7
 80004be:	40ca      	lsrs	r2, r1
 80004c0:	40cc      	lsrs	r4, r1
 80004c2:	4317      	orrs	r7, r2
 80004c4:	e9c6 7400 	strd	r7, r4, [r6]
 80004c8:	4618      	mov	r0, r3
 80004ca:	2100      	movs	r1, #0
 80004cc:	e8bd 87f0 	ldmia.w	sp!, {r4, r5, r6, r7, r8, r9, sl, pc}
 80004d0:	f1c3 0120 	rsb	r1, r3, #32
 80004d4:	fa02 fc03 	lsl.w	ip, r2, r3
 80004d8:	fa20 f201 	lsr.w	r2, r0, r1
 80004dc:	fa25 f101 	lsr.w	r1, r5, r1
 80004e0:	409d      	lsls	r5, r3
 80004e2:	432a      	orrs	r2, r5
 80004e4:	ea4f 471c 	mov.w	r7, ip, lsr #16
 80004e8:	fa1f fe8c 	uxth.w	lr, ip
 80004ec:	fbb1 f0f7 	udiv	r0, r1, r7
 80004f0:	fb07 1510 	mls	r5, r7, r0, r1
 80004f4:	0c11      	lsrs	r1, r2, #16
 80004f6:	ea41 4105 	orr.w	r1, r1, r5, lsl #16
 80004fa:	fb00 f50e 	mul.w	r5, r0, lr
 80004fe:	428d      	cmp	r5, r1
 8000500:	fa04 f403 	lsl.w	r4, r4, r3
 8000504:	d908      	bls.n	8000518 <__udivmoddi4+0x258>
 8000506:	eb1c 0101 	adds.w	r1, ip, r1
 800050a:	f100 38ff 	add.w	r8, r0, #4294967295
 800050e:	d22f      	bcs.n	8000570 <__udivmoddi4+0x2b0>
 8000510:	428d      	cmp	r5, r1
 8000512:	d92d      	bls.n	8000570 <__udivmoddi4+0x2b0>
 8000514:	3802      	subs	r0, #2
 8000516:	4461      	add	r1, ip
 8000518:	1b49      	subs	r1, r1, r5
 800051a:	b292      	uxth	r2, r2
 800051c:	fbb1 f5f7 	udiv	r5, r1, r7
 8000520:	fb07 1115 	mls	r1, r7, r5, r1
 8000524:	ea42 4201 	orr.w	r2, r2, r1, lsl #16
 8000528:	fb05 f10e 	mul.w	r1, r5, lr
 800052c:	4291      	cmp	r1, r2
 800052e:	d908      	bls.n	8000542 <__udivmoddi4+0x282>
 8000530:	eb1c 0202 	adds.w	r2, ip, r2
 8000534:	f105 38ff 	add.w	r8, r5, #4294967295
 8000538:	d216      	bcs.n	8000568 <__udivmoddi4+0x2a8>
 800053a:	4291      	cmp	r1, r2
 800053c:	d914      	bls.n	8000568 <__udivmoddi4+0x2a8>
 800053e:	3d02      	subs	r5, #2
 8000540:	4462      	add	r2, ip
 8000542:	1a52      	subs	r2, r2, r1
 8000544:	ea45 4100 	orr.w	r1, r5, r0, lsl #16
 8000548:	e738      	b.n	80003bc <__udivmoddi4+0xfc>
 800054a:	4631      	mov	r1, r6
 800054c:	4630      	mov	r0, r6
 800054e:	e708      	b.n	8000362 <__udivmoddi4+0xa2>
 8000550:	4639      	mov	r1, r7
 8000552:	e6e6      	b.n	8000322 <__udivmoddi4+0x62>
 8000554:	4610      	mov	r0, r2
 8000556:	e6fb      	b.n	8000350 <__udivmoddi4+0x90>
 8000558:	4548      	cmp	r0, r9
 800055a:	d2a9      	bcs.n	80004b0 <__udivmoddi4+0x1f0>
 800055c:	ebb9 0802 	subs.w	r8, r9, r2
 8000560:	eb65 0e0c 	sbc.w	lr, r5, ip
 8000564:	3b01      	subs	r3, #1
 8000566:	e7a3      	b.n	80004b0 <__udivmoddi4+0x1f0>
 8000568:	4645      	mov	r5, r8
 800056a:	e7ea      	b.n	8000542 <__udivmoddi4+0x282>
 800056c:	462b      	mov	r3, r5
 800056e:	e794      	b.n	800049a <__udivmoddi4+0x1da>
 8000570:	4640      	mov	r0, r8
 8000572:	e7d1      	b.n	8000518 <__udivmoddi4+0x258>
 8000574:	46d0      	mov	r8, sl
 8000576:	e77b      	b.n	8000470 <__udivmoddi4+0x1b0>
 8000578:	3d02      	subs	r5, #2
 800057a:	4462      	add	r2, ip
 800057c:	e732      	b.n	80003e4 <__udivmoddi4+0x124>
 800057e:	4608      	mov	r0, r1
 8000580:	e70a      	b.n	8000398 <__udivmoddi4+0xd8>
 8000582:	4464      	add	r4, ip
 8000584:	3802      	subs	r0, #2
 8000586:	e742      	b.n	800040e <__udivmoddi4+0x14e>

08000588 <__aeabi_idiv0>:
 8000588:	4770      	bx	lr
 800058a:	bf00      	nop

0800058c <GB_APDS9306_Read_Reg_Data>:
 * @param     regAddr Register Address of APDS9306 that reading data from this address
 * @param     data    Pointer to Variable that data is saved .
 * @return    None
 ========================================================================================================================================*/
void GB_APDS9306_Read_Reg_Data(uint8_t regAddr,  uint8_t *data)																			/*		Read Burst Data From Register			*/
{
 800058c:	b580      	push	{r7, lr}
 800058e:	b086      	sub	sp, #24
 8000590:	af04      	add	r7, sp, #16
 8000592:	4603      	mov	r3, r0
 8000594:	6039      	str	r1, [r7, #0]
 8000596:	71fb      	strb	r3, [r7, #7]
	HAL_I2C_Mem_Read(APDS9306_I2C,APDS9306_READ_ADDRESS,regAddr,1,data,1,200);
 8000598:	79fb      	ldrb	r3, [r7, #7]
 800059a:	b29a      	uxth	r2, r3
 800059c:	23c8      	movs	r3, #200	; 0xc8
 800059e:	9302      	str	r3, [sp, #8]
 80005a0:	2301      	movs	r3, #1
 80005a2:	9301      	str	r3, [sp, #4]
 80005a4:	683b      	ldr	r3, [r7, #0]
 80005a6:	9300      	str	r3, [sp, #0]
 80005a8:	2301      	movs	r3, #1
 80005aa:	21a5      	movs	r1, #165	; 0xa5
 80005ac:	4803      	ldr	r0, [pc, #12]	; (80005bc <GB_APDS9306_Read_Reg_Data+0x30>)
 80005ae:	f001 fe3d 	bl	800222c <HAL_I2C_Mem_Read>
}
 80005b2:	bf00      	nop
 80005b4:	3708      	adds	r7, #8
 80005b6:	46bd      	mov	sp, r7
 80005b8:	bd80      	pop	{r7, pc}
 80005ba:	bf00      	nop
 80005bc:	2000007c 	.word	0x2000007c

080005c0 <GB_APDS9306_Burst_Read>:
 * @param     data    Pointer to Variable that multiple data is saved .
 * @param     byteQuantity Quantity of data that we want to read .
 * @return    None
 ========================================================================================================================================*/
void GB_APDS9306_Burst_Read(uint8_t regAddr,  uint8_t *data, uint16_t byteQuantity)																			/*		Read Burst Data From Register			*/
{
 80005c0:	b580      	push	{r7, lr}
 80005c2:	b086      	sub	sp, #24
 80005c4:	af04      	add	r7, sp, #16
 80005c6:	4603      	mov	r3, r0
 80005c8:	6039      	str	r1, [r7, #0]
 80005ca:	71fb      	strb	r3, [r7, #7]
 80005cc:	4613      	mov	r3, r2
 80005ce:	80bb      	strh	r3, [r7, #4]
	HAL_I2C_Mem_Read(APDS9306_I2C,APDS9306_READ_ADDRESS,regAddr,1,data,byteQuantity,200);
 80005d0:	79fb      	ldrb	r3, [r7, #7]
 80005d2:	b29a      	uxth	r2, r3
 80005d4:	23c8      	movs	r3, #200	; 0xc8
 80005d6:	9302      	str	r3, [sp, #8]
 80005d8:	88bb      	ldrh	r3, [r7, #4]
 80005da:	9301      	str	r3, [sp, #4]
 80005dc:	683b      	ldr	r3, [r7, #0]
 80005de:	9300      	str	r3, [sp, #0]
 80005e0:	2301      	movs	r3, #1
 80005e2:	21a5      	movs	r1, #165	; 0xa5
 80005e4:	4803      	ldr	r0, [pc, #12]	; (80005f4 <GB_APDS9306_Burst_Read+0x34>)
 80005e6:	f001 fe21 	bl	800222c <HAL_I2C_Mem_Read>
}
 80005ea:	bf00      	nop
 80005ec:	3708      	adds	r7, #8
 80005ee:	46bd      	mov	sp, r7
 80005f0:	bd80      	pop	{r7, pc}
 80005f2:	bf00      	nop
 80005f4:	2000007c 	.word	0x2000007c

080005f8 <GB_APDS9306_Write_Reg_Data>:
 * @param     regAddr First Register Address of APDS9306 that reading multiple data start from this address
 * @param     data    Variable that to be written .
 * @return    None
 ========================================================================================================================================*/
void GB_APDS9306_Write_Reg_Data(uint8_t regAddr,  uint8_t data)																			/*		Read Burst Data From Register			*/
{
 80005f8:	b580      	push	{r7, lr}
 80005fa:	b086      	sub	sp, #24
 80005fc:	af04      	add	r7, sp, #16
 80005fe:	4603      	mov	r3, r0
 8000600:	460a      	mov	r2, r1
 8000602:	71fb      	strb	r3, [r7, #7]
 8000604:	4613      	mov	r3, r2
 8000606:	71bb      	strb	r3, [r7, #6]
	HAL_I2C_Mem_Write(APDS9306_I2C,APDS9306_WRITE_ADDRESS,regAddr,1,&data,1,200);
 8000608:	79fb      	ldrb	r3, [r7, #7]
 800060a:	b29a      	uxth	r2, r3
 800060c:	23c8      	movs	r3, #200	; 0xc8
 800060e:	9302      	str	r3, [sp, #8]
 8000610:	2301      	movs	r3, #1
 8000612:	9301      	str	r3, [sp, #4]
 8000614:	1dbb      	adds	r3, r7, #6
 8000616:	9300      	str	r3, [sp, #0]
 8000618:	2301      	movs	r3, #1
 800061a:	21a4      	movs	r1, #164	; 0xa4
 800061c:	4803      	ldr	r0, [pc, #12]	; (800062c <GB_APDS9306_Write_Reg_Data+0x34>)
 800061e:	f001 fcf1 	bl	8002004 <HAL_I2C_Mem_Write>
}
 8000622:	bf00      	nop
 8000624:	3708      	adds	r7, #8
 8000626:	46bd      	mov	sp, r7
 8000628:	bd80      	pop	{r7, pc}
 800062a:	bf00      	nop
 800062c:	2000007c 	.word	0x2000007c

08000630 <GB_APDS9306_Write_Reg_Bits>:
 * @param     len         Quantity of Bits want to write(1 to 8) 
 * @param     data        Value that will be writen to register bits .
 * @return    status      Return status
 ========================================================================================================================================*/
void GB_APDS9306_Write_Reg_Bits(uint8_t regAddr, uint8_t start_bit, uint8_t len, uint8_t data)
{
 8000630:	b590      	push	{r4, r7, lr}
 8000632:	b085      	sub	sp, #20
 8000634:	af00      	add	r7, sp, #0
 8000636:	4604      	mov	r4, r0
 8000638:	4608      	mov	r0, r1
 800063a:	4611      	mov	r1, r2
 800063c:	461a      	mov	r2, r3
 800063e:	4623      	mov	r3, r4
 8000640:	71fb      	strb	r3, [r7, #7]
 8000642:	4603      	mov	r3, r0
 8000644:	71bb      	strb	r3, [r7, #6]
 8000646:	460b      	mov	r3, r1
 8000648:	717b      	strb	r3, [r7, #5]
 800064a:	4613      	mov	r3, r2
 800064c:	713b      	strb	r3, [r7, #4]
	uint8_t tempData = 0;
 800064e:	2300      	movs	r3, #0
 8000650:	73bb      	strb	r3, [r7, #14]
	GB_APDS9306_Read_Reg_Data( regAddr, &tempData) ;	
 8000652:	f107 020e 	add.w	r2, r7, #14
 8000656:	79fb      	ldrb	r3, [r7, #7]
 8000658:	4611      	mov	r1, r2
 800065a:	4618      	mov	r0, r3
 800065c:	f7ff ff96 	bl	800058c <GB_APDS9306_Read_Reg_Data>
	uint8_t mask = ((1 << len) - 1) << (start_bit - len + 1);
 8000660:	797b      	ldrb	r3, [r7, #5]
 8000662:	2201      	movs	r2, #1
 8000664:	fa02 f303 	lsl.w	r3, r2, r3
 8000668:	1e5a      	subs	r2, r3, #1
 800066a:	79b9      	ldrb	r1, [r7, #6]
 800066c:	797b      	ldrb	r3, [r7, #5]
 800066e:	1acb      	subs	r3, r1, r3
 8000670:	3301      	adds	r3, #1
 8000672:	fa02 f303 	lsl.w	r3, r2, r3
 8000676:	73fb      	strb	r3, [r7, #15]
	data <<= (start_bit - len + 1); // shift data into correct position
 8000678:	793a      	ldrb	r2, [r7, #4]
 800067a:	79b9      	ldrb	r1, [r7, #6]
 800067c:	797b      	ldrb	r3, [r7, #5]
 800067e:	1acb      	subs	r3, r1, r3
 8000680:	3301      	adds	r3, #1
 8000682:	fa02 f303 	lsl.w	r3, r2, r3
 8000686:	713b      	strb	r3, [r7, #4]
	data &= mask; // zero all non-important bits in data
 8000688:	793a      	ldrb	r2, [r7, #4]
 800068a:	7bfb      	ldrb	r3, [r7, #15]
 800068c:	4013      	ands	r3, r2
 800068e:	713b      	strb	r3, [r7, #4]
	tempData &= ~(mask); // zero all important bits in existing byte
 8000690:	f997 300f 	ldrsb.w	r3, [r7, #15]
 8000694:	43db      	mvns	r3, r3
 8000696:	b25a      	sxtb	r2, r3
 8000698:	7bbb      	ldrb	r3, [r7, #14]
 800069a:	b25b      	sxtb	r3, r3
 800069c:	4013      	ands	r3, r2
 800069e:	b25b      	sxtb	r3, r3
 80006a0:	b2db      	uxtb	r3, r3
 80006a2:	73bb      	strb	r3, [r7, #14]
	tempData |= data; // combine data with existing byte
 80006a4:	7bba      	ldrb	r2, [r7, #14]
 80006a6:	793b      	ldrb	r3, [r7, #4]
 80006a8:	4313      	orrs	r3, r2
 80006aa:	b2db      	uxtb	r3, r3
 80006ac:	73bb      	strb	r3, [r7, #14]
	GB_APDS9306_Write_Reg_Data(regAddr,  tempData);
 80006ae:	7bba      	ldrb	r2, [r7, #14]
 80006b0:	79fb      	ldrb	r3, [r7, #7]
 80006b2:	4611      	mov	r1, r2
 80006b4:	4618      	mov	r0, r3
 80006b6:	f7ff ff9f 	bl	80005f8 <GB_APDS9306_Write_Reg_Data>
}
 80006ba:	bf00      	nop
 80006bc:	3714      	adds	r7, #20
 80006be:	46bd      	mov	sp, r7
 80006c0:	bd90      	pop	{r4, r7, pc}

080006c2 <GB_APDS9306_Soft_Reset>:
 * @brief     Reset APDS9306
 * @param     APDS9306   APDS9306 Struct RESET Variable.
 * @return    Nothing
 ========================================================================================================================================*/
void GB_APDS9306_Soft_Reset ( GebraBit_APDS9306 * APDS9306 )  
{
 80006c2:	b580      	push	{r7, lr}
 80006c4:	b082      	sub	sp, #8
 80006c6:	af00      	add	r7, sp, #0
 80006c8:	6078      	str	r0, [r7, #4]
	GB_APDS9306_Write_Reg_Bits(APDS9306_MAIN_CTRL, START_MSB_BIT_AT_4, BIT_LENGTH_1, 1);
 80006ca:	2301      	movs	r3, #1
 80006cc:	2201      	movs	r2, #1
 80006ce:	2104      	movs	r1, #4
 80006d0:	2000      	movs	r0, #0
 80006d2:	f7ff ffad 	bl	8000630 <GB_APDS9306_Write_Reg_Bits>
	HAL_Delay(100);
 80006d6:	2064      	movs	r0, #100	; 0x64
 80006d8:	f001 f89a 	bl	8001810 <HAL_Delay>
	GB_APDS9306_Read_STATUS( APDS9306 );
 80006dc:	6878      	ldr	r0, [r7, #4]
 80006de:	f000 f8c9 	bl	8000874 <GB_APDS9306_Read_STATUS>
	APDS9306->RESET = DONE ;
 80006e2:	687b      	ldr	r3, [r7, #4]
 80006e4:	2201      	movs	r2, #1
 80006e6:	709a      	strb	r2, [r3, #2]
}
 80006e8:	bf00      	nop
 80006ea:	3708      	adds	r7, #8
 80006ec:	46bd      	mov	sp, r7
 80006ee:	bd80      	pop	{r7, pc}

080006f0 <GB_APDS9306_ALS>:
 * @param     APDS9306   APDS9306 Struct ALS variable
 * @param     als        Value is from APDS9306_Ability Enume
 * @return    Nothing
 ========================================================================================================================================*/
void GB_APDS9306_ALS ( GebraBit_APDS9306 * APDS9306 , APDS9306_Ability als ) 
{
 80006f0:	b580      	push	{r7, lr}
 80006f2:	b082      	sub	sp, #8
 80006f4:	af00      	add	r7, sp, #0
 80006f6:	6078      	str	r0, [r7, #4]
 80006f8:	460b      	mov	r3, r1
 80006fa:	70fb      	strb	r3, [r7, #3]
 GB_APDS9306_Write_Reg_Bits(APDS9306_MAIN_CTRL, START_MSB_BIT_AT_1, BIT_LENGTH_1, als);
 80006fc:	78fb      	ldrb	r3, [r7, #3]
 80006fe:	2201      	movs	r2, #1
 8000700:	2101      	movs	r1, #1
 8000702:	2000      	movs	r0, #0
 8000704:	f7ff ff94 	bl	8000630 <GB_APDS9306_Write_Reg_Bits>
 APDS9306->ALS = als ;
 8000708:	687b      	ldr	r3, [r7, #4]
 800070a:	78fa      	ldrb	r2, [r7, #3]
 800070c:	70da      	strb	r2, [r3, #3]
}
 800070e:	bf00      	nop
 8000710:	3708      	adds	r7, #8
 8000712:	46bd      	mov	sp, r7
 8000714:	bd80      	pop	{r7, pc}
	...

08000718 <GB_APDS9306_ALS_Gain>:
 * @param     APDS9306   APDS9306 Struct ALS_GAIN variable & ALS_GAIN_VALUE variable
 * @param     gain        Value is from APDS9306_ALS_Gain Enume
 * @return    Nothing
 ========================================================================================================================================*/
void GB_APDS9306_ALS_Gain ( GebraBit_APDS9306 * APDS9306 , APDS9306_ALS_Gain gain ) 
{
 8000718:	b580      	push	{r7, lr}
 800071a:	b082      	sub	sp, #8
 800071c:	af00      	add	r7, sp, #0
 800071e:	6078      	str	r0, [r7, #4]
 8000720:	460b      	mov	r3, r1
 8000722:	70fb      	strb	r3, [r7, #3]
 GB_APDS9306_Write_Reg_Bits(APDS9306_ALS_GAIN, START_MSB_BIT_AT_2, BIT_LENGTH_3, gain);
 8000724:	78fb      	ldrb	r3, [r7, #3]
 8000726:	2203      	movs	r2, #3
 8000728:	2102      	movs	r1, #2
 800072a:	2005      	movs	r0, #5
 800072c:	f7ff ff80 	bl	8000630 <GB_APDS9306_Write_Reg_Bits>
 APDS9306->ALS_GAIN = gain ;
 8000730:	687b      	ldr	r3, [r7, #4]
 8000732:	78fa      	ldrb	r2, [r7, #3]
 8000734:	711a      	strb	r2, [r3, #4]
 	switch(APDS9306->ALS_GAIN)
 8000736:	687b      	ldr	r3, [r7, #4]
 8000738:	791b      	ldrb	r3, [r3, #4]
 800073a:	2b04      	cmp	r3, #4
 800073c:	d821      	bhi.n	8000782 <GB_APDS9306_ALS_Gain+0x6a>
 800073e:	a201      	add	r2, pc, #4	; (adr r2, 8000744 <GB_APDS9306_ALS_Gain+0x2c>)
 8000740:	f852 f023 	ldr.w	pc, [r2, r3, lsl #2]
 8000744:	08000759 	.word	0x08000759
 8000748:	08000763 	.word	0x08000763
 800074c:	0800076b 	.word	0x0800076b
 8000750:	08000773 	.word	0x08000773
 8000754:	0800077b 	.word	0x0800077b
	 {
	  case ALS_GAIN_1X:
		APDS9306->ALS_GAIN_VALUE = 1.0f ;
 8000758:	687b      	ldr	r3, [r7, #4]
 800075a:	f04f 527e 	mov.w	r2, #1065353216	; 0x3f800000
 800075e:	609a      	str	r2, [r3, #8]
    break;
 8000760:	e00f      	b.n	8000782 <GB_APDS9306_ALS_Gain+0x6a>
		case ALS_GAIN_3X:
		APDS9306->ALS_GAIN_VALUE = 3.0f ;
 8000762:	687b      	ldr	r3, [r7, #4]
 8000764:	4a09      	ldr	r2, [pc, #36]	; (800078c <GB_APDS9306_ALS_Gain+0x74>)
 8000766:	609a      	str	r2, [r3, #8]
    break;	
 8000768:	e00b      	b.n	8000782 <GB_APDS9306_ALS_Gain+0x6a>
		case ALS_GAIN_6X:
		APDS9306->ALS_GAIN_VALUE = 6.0f ;
 800076a:	687b      	ldr	r3, [r7, #4]
 800076c:	4a08      	ldr	r2, [pc, #32]	; (8000790 <GB_APDS9306_ALS_Gain+0x78>)
 800076e:	609a      	str	r2, [r3, #8]
    break;	
 8000770:	e007      	b.n	8000782 <GB_APDS9306_ALS_Gain+0x6a>
		case ALS_GAIN_9X:
		APDS9306->ALS_GAIN_VALUE = 9.0f ;
 8000772:	687b      	ldr	r3, [r7, #4]
 8000774:	4a07      	ldr	r2, [pc, #28]	; (8000794 <GB_APDS9306_ALS_Gain+0x7c>)
 8000776:	609a      	str	r2, [r3, #8]
    break;
 8000778:	e003      	b.n	8000782 <GB_APDS9306_ALS_Gain+0x6a>
		case ALS_GAIN_18X:
		APDS9306->ALS_GAIN_VALUE = 18.0f ;
 800077a:	687b      	ldr	r3, [r7, #4]
 800077c:	4a06      	ldr	r2, [pc, #24]	; (8000798 <GB_APDS9306_ALS_Gain+0x80>)
 800077e:	609a      	str	r2, [r3, #8]
    break;			
 8000780:	bf00      	nop
	 }
}
 8000782:	bf00      	nop
 8000784:	3708      	adds	r7, #8
 8000786:	46bd      	mov	sp, r7
 8000788:	bd80      	pop	{r7, pc}
 800078a:	bf00      	nop
 800078c:	40400000 	.word	0x40400000
 8000790:	40c00000 	.word	0x40c00000
 8000794:	41100000 	.word	0x41100000
 8000798:	41900000 	.word	0x41900000

0800079c <GB_APDS9306_Measurement_Repeat_Rate>:
 * @param     APDS9306   APDS9306 Struct MEASUREMENT_RATE variable 
 * @param     rate       Value is from APDS9306_Measurement_Rate Enume
 * @return    Nothing
 ========================================================================================================================================*/
void GB_APDS9306_Measurement_Repeat_Rate ( GebraBit_APDS9306 * APDS9306 , APDS9306_Measurement_Rate rate ) 
{
 800079c:	b580      	push	{r7, lr}
 800079e:	b082      	sub	sp, #8
 80007a0:	af00      	add	r7, sp, #0
 80007a2:	6078      	str	r0, [r7, #4]
 80007a4:	460b      	mov	r3, r1
 80007a6:	70fb      	strb	r3, [r7, #3]
 GB_APDS9306_Write_Reg_Bits(APDS9306_ALS_MEAS_RATE, START_MSB_BIT_AT_2, BIT_LENGTH_3, rate);
 80007a8:	78fb      	ldrb	r3, [r7, #3]
 80007aa:	2203      	movs	r2, #3
 80007ac:	2102      	movs	r1, #2
 80007ae:	2004      	movs	r0, #4
 80007b0:	f7ff ff3e 	bl	8000630 <GB_APDS9306_Write_Reg_Bits>
 APDS9306->MEASUREMENT_RATE = rate ;
 80007b4:	687b      	ldr	r3, [r7, #4]
 80007b6:	78fa      	ldrb	r2, [r7, #3]
 80007b8:	731a      	strb	r2, [r3, #12]
}
 80007ba:	bf00      	nop
 80007bc:	3708      	adds	r7, #8
 80007be:	46bd      	mov	sp, r7
 80007c0:	bd80      	pop	{r7, pc}
	...

080007c4 <GB_APDS9306_ALS_Resolution>:
 * @param     APDS9306   APDS9306 Struct ALS_RESOLUTION variable & ALS_RESOLUTION_TIME variable
 * @param     res       Value is from APDS9306_ALS_Resolution Enume
 * @return    Nothing
 ========================================================================================================================================*/
void GB_APDS9306_ALS_Resolution ( GebraBit_APDS9306 * APDS9306 , APDS9306_ALS_Resolution res ) 
{
 80007c4:	b580      	push	{r7, lr}
 80007c6:	b082      	sub	sp, #8
 80007c8:	af00      	add	r7, sp, #0
 80007ca:	6078      	str	r0, [r7, #4]
 80007cc:	460b      	mov	r3, r1
 80007ce:	70fb      	strb	r3, [r7, #3]
 GB_APDS9306_Write_Reg_Bits(APDS9306_ALS_MEAS_RATE, START_MSB_BIT_AT_6, BIT_LENGTH_3, res);
 80007d0:	78fb      	ldrb	r3, [r7, #3]
 80007d2:	2203      	movs	r2, #3
 80007d4:	2106      	movs	r1, #6
 80007d6:	2004      	movs	r0, #4
 80007d8:	f7ff ff2a 	bl	8000630 <GB_APDS9306_Write_Reg_Bits>
 APDS9306->ALS_RESOLUTION = res ;
 80007dc:	687b      	ldr	r3, [r7, #4]
 80007de:	78fa      	ldrb	r2, [r7, #3]
 80007e0:	735a      	strb	r2, [r3, #13]
 switch(APDS9306->ALS_RESOLUTION)
 80007e2:	687b      	ldr	r3, [r7, #4]
 80007e4:	7b5b      	ldrb	r3, [r3, #13]
 80007e6:	2b05      	cmp	r3, #5
 80007e8:	d826      	bhi.n	8000838 <GB_APDS9306_ALS_Resolution+0x74>
 80007ea:	a201      	add	r2, pc, #4	; (adr r2, 80007f0 <GB_APDS9306_ALS_Resolution+0x2c>)
 80007ec:	f852 f023 	ldr.w	pc, [r2, r3, lsl #2]
 80007f0:	08000809 	.word	0x08000809
 80007f4:	08000811 	.word	0x08000811
 80007f8:	08000819 	.word	0x08000819
 80007fc:	08000821 	.word	0x08000821
 8000800:	08000829 	.word	0x08000829
 8000804:	08000831 	.word	0x08000831
	 {
	  case _20_BIT_400_mS:
		APDS9306->ALS_RESOLUTION_TIME = 400.0f ;
 8000808:	687b      	ldr	r3, [r7, #4]
 800080a:	4a0d      	ldr	r2, [pc, #52]	; (8000840 <GB_APDS9306_ALS_Resolution+0x7c>)
 800080c:	611a      	str	r2, [r3, #16]
    break;
 800080e:	e013      	b.n	8000838 <GB_APDS9306_ALS_Resolution+0x74>
		case _19_BIT_200_mS:
		APDS9306->ALS_RESOLUTION_TIME = 200.0f ;
 8000810:	687b      	ldr	r3, [r7, #4]
 8000812:	4a0c      	ldr	r2, [pc, #48]	; (8000844 <GB_APDS9306_ALS_Resolution+0x80>)
 8000814:	611a      	str	r2, [r3, #16]
    break;	
 8000816:	e00f      	b.n	8000838 <GB_APDS9306_ALS_Resolution+0x74>
		case _18_BIT_100_mS:
		APDS9306->ALS_RESOLUTION_TIME = 100.0f ;
 8000818:	687b      	ldr	r3, [r7, #4]
 800081a:	4a0b      	ldr	r2, [pc, #44]	; (8000848 <GB_APDS9306_ALS_Resolution+0x84>)
 800081c:	611a      	str	r2, [r3, #16]
    break;	
 800081e:	e00b      	b.n	8000838 <GB_APDS9306_ALS_Resolution+0x74>
		case _17_BIT_50_mS: 
		APDS9306->ALS_RESOLUTION_TIME = 50.0f ;
 8000820:	687b      	ldr	r3, [r7, #4]
 8000822:	4a0a      	ldr	r2, [pc, #40]	; (800084c <GB_APDS9306_ALS_Resolution+0x88>)
 8000824:	611a      	str	r2, [r3, #16]
    break;
 8000826:	e007      	b.n	8000838 <GB_APDS9306_ALS_Resolution+0x74>
		case _16_BIT_25_mS:
		APDS9306->ALS_RESOLUTION_TIME = 25.0f ;
 8000828:	687b      	ldr	r3, [r7, #4]
 800082a:	4a09      	ldr	r2, [pc, #36]	; (8000850 <GB_APDS9306_ALS_Resolution+0x8c>)
 800082c:	611a      	str	r2, [r3, #16]
    break;	
 800082e:	e003      	b.n	8000838 <GB_APDS9306_ALS_Resolution+0x74>
		case _13_BIT_3P125_mS:
		APDS9306->ALS_RESOLUTION_TIME = 3.125f ;
 8000830:	687b      	ldr	r3, [r7, #4]
 8000832:	4a08      	ldr	r2, [pc, #32]	; (8000854 <GB_APDS9306_ALS_Resolution+0x90>)
 8000834:	611a      	str	r2, [r3, #16]
    break;
 8000836:	bf00      	nop
	 }
}
 8000838:	bf00      	nop
 800083a:	3708      	adds	r7, #8
 800083c:	46bd      	mov	sp, r7
 800083e:	bd80      	pop	{r7, pc}
 8000840:	43c80000 	.word	0x43c80000
 8000844:	43480000 	.word	0x43480000
 8000848:	42c80000 	.word	0x42c80000
 800084c:	42480000 	.word	0x42480000
 8000850:	41c80000 	.word	0x41c80000
 8000854:	40480000 	.word	0x40480000

08000858 <GB_APDS9306_Read_Part_ID>:
 * @brief     Read APDS9306 Part ID
 * @param     APDS9306   APDS9306 Struct PART_ID variable
 * @return    Nothing
 ========================================================================================================================================*/
void GB_APDS9306_Read_Part_ID ( GebraBit_APDS9306 * APDS9306  ) 
{
 8000858:	b580      	push	{r7, lr}
 800085a:	b082      	sub	sp, #8
 800085c:	af00      	add	r7, sp, #0
 800085e:	6078      	str	r0, [r7, #4]
 GB_APDS9306_Read_Reg_Data(APDS9306_PART_ID, &APDS9306->PART_ID);
 8000860:	687b      	ldr	r3, [r7, #4]
 8000862:	3301      	adds	r3, #1
 8000864:	4619      	mov	r1, r3
 8000866:	2006      	movs	r0, #6
 8000868:	f7ff fe90 	bl	800058c <GB_APDS9306_Read_Reg_Data>
}
 800086c:	bf00      	nop
 800086e:	3708      	adds	r7, #8
 8000870:	46bd      	mov	sp, r7
 8000872:	bd80      	pop	{r7, pc}

08000874 <GB_APDS9306_Read_STATUS>:
 * @brief     Read APDS9306 STATUS
 * @param     APDS9306   APDS9306 Struct POWER_STATUS variable  & INTERRRUPT_STATUS variable  & DATA variable
 * @return    Nothing
 ========================================================================================================================================*/
void GB_APDS9306_Read_STATUS ( GebraBit_APDS9306 * APDS9306 ) 
{
 8000874:	b580      	push	{r7, lr}
 8000876:	b084      	sub	sp, #16
 8000878:	af00      	add	r7, sp, #0
 800087a:	6078      	str	r0, [r7, #4]
 uint8_t status;
 GB_APDS9306_Read_Reg_Data(APDS9306_MAIN_STATUS, &status);
 800087c:	f107 030f 	add.w	r3, r7, #15
 8000880:	4619      	mov	r1, r3
 8000882:	2007      	movs	r0, #7
 8000884:	f7ff fe82 	bl	800058c <GB_APDS9306_Read_Reg_Data>
 APDS9306->POWER_STATUS = (status & 0x20)>>5  ;
 8000888:	7bfb      	ldrb	r3, [r7, #15]
 800088a:	115b      	asrs	r3, r3, #5
 800088c:	b2db      	uxtb	r3, r3
 800088e:	f003 0301 	and.w	r3, r3, #1
 8000892:	b2da      	uxtb	r2, r3
 8000894:	687b      	ldr	r3, [r7, #4]
 8000896:	751a      	strb	r2, [r3, #20]
 APDS9306->INTERRRUPT_STATUS = (status & 0x10)>>4  ;
 8000898:	7bfb      	ldrb	r3, [r7, #15]
 800089a:	111b      	asrs	r3, r3, #4
 800089c:	b2db      	uxtb	r3, r3
 800089e:	f003 0301 	and.w	r3, r3, #1
 80008a2:	b2da      	uxtb	r2, r3
 80008a4:	687b      	ldr	r3, [r7, #4]
 80008a6:	769a      	strb	r2, [r3, #26]
 APDS9306->DATA = (status & 0x08)>>3  ;
 80008a8:	7bfb      	ldrb	r3, [r7, #15]
 80008aa:	10db      	asrs	r3, r3, #3
 80008ac:	b2db      	uxtb	r3, r3
 80008ae:	f003 0301 	and.w	r3, r3, #1
 80008b2:	b2da      	uxtb	r2, r3
 80008b4:	687b      	ldr	r3, [r7, #4]
 80008b6:	755a      	strb	r2, [r3, #21]
}
 80008b8:	bf00      	nop
 80008ba:	3710      	adds	r7, #16
 80008bc:	46bd      	mov	sp, r7
 80008be:	bd80      	pop	{r7, pc}

080008c0 <GB_APDS9306_Interrupt>:
 * @param     APDS9306   APDS9306 Struct INTERRUPT variable
 * @param     intpt        Value is from APDS9306_Ability Enume
 * @return    Nothing
 ========================================================================================================================================*/
void GB_APDS9306_Interrupt( GebraBit_APDS9306 * APDS9306 , APDS9306_Ability intpt ) 
{
 80008c0:	b580      	push	{r7, lr}
 80008c2:	b082      	sub	sp, #8
 80008c4:	af00      	add	r7, sp, #0
 80008c6:	6078      	str	r0, [r7, #4]
 80008c8:	460b      	mov	r3, r1
 80008ca:	70fb      	strb	r3, [r7, #3]
 GB_APDS9306_Write_Reg_Bits(APDS9306_INT_CFG, START_MSB_BIT_AT_2, BIT_LENGTH_1, intpt);
 80008cc:	78fb      	ldrb	r3, [r7, #3]
 80008ce:	2201      	movs	r2, #1
 80008d0:	2102      	movs	r1, #2
 80008d2:	2019      	movs	r0, #25
 80008d4:	f7ff feac 	bl	8000630 <GB_APDS9306_Write_Reg_Bits>
 APDS9306->INTERRUPT = intpt ;
 80008d8:	687b      	ldr	r3, [r7, #4]
 80008da:	78fa      	ldrb	r2, [r7, #3]
 80008dc:	759a      	strb	r2, [r3, #22]
}
 80008de:	bf00      	nop
 80008e0:	3708      	adds	r7, #8
 80008e2:	46bd      	mov	sp, r7
 80008e4:	bd80      	pop	{r7, pc}

080008e6 <GB_APDS9306_Interrupt_Channel>:
 * @param     APDS9306   APDS9306 Struct INTERRUPT_CHANNEL variable
 * @param     intr        Value is from APDS9306_Interrupt_Channel Enume
 * @return    Nothing
 ========================================================================================================================================*/
void GB_APDS9306_Interrupt_Channel ( GebraBit_APDS9306 * APDS9306 , APDS9306_Interrupt_Channel intr ) 
{
 80008e6:	b580      	push	{r7, lr}
 80008e8:	b082      	sub	sp, #8
 80008ea:	af00      	add	r7, sp, #0
 80008ec:	6078      	str	r0, [r7, #4]
 80008ee:	460b      	mov	r3, r1
 80008f0:	70fb      	strb	r3, [r7, #3]
 GB_APDS9306_Write_Reg_Bits(APDS9306_INT_CFG, START_MSB_BIT_AT_5, BIT_LENGTH_2, intr);
 80008f2:	78fb      	ldrb	r3, [r7, #3]
 80008f4:	2202      	movs	r2, #2
 80008f6:	2105      	movs	r1, #5
 80008f8:	2019      	movs	r0, #25
 80008fa:	f7ff fe99 	bl	8000630 <GB_APDS9306_Write_Reg_Bits>
 APDS9306->INTERRUPT_CHANNEL = intr ;
 80008fe:	687b      	ldr	r3, [r7, #4]
 8000900:	78fa      	ldrb	r2, [r7, #3]
 8000902:	75da      	strb	r2, [r3, #23]
}
 8000904:	bf00      	nop
 8000906:	3708      	adds	r7, #8
 8000908:	46bd      	mov	sp, r7
 800090a:	bd80      	pop	{r7, pc}

0800090c <GB_APDS9306_Interrupt_Mode>:
 * @param     APDS9306   APDS9306 Struct INTERRUPT_MODE variable
 * @param     mode        Value is from APDS9306_Interrupt_Mode Enume
 * @return    Nothing
 ========================================================================================================================================*/
void GB_APDS9306_Interrupt_Mode ( GebraBit_APDS9306 * APDS9306 , APDS9306_Interrupt_Mode mode ) 
{
 800090c:	b580      	push	{r7, lr}
 800090e:	b082      	sub	sp, #8
 8000910:	af00      	add	r7, sp, #0
 8000912:	6078      	str	r0, [r7, #4]
 8000914:	460b      	mov	r3, r1
 8000916:	70fb      	strb	r3, [r7, #3]
 GB_APDS9306_Write_Reg_Bits(APDS9306_INT_CFG, START_MSB_BIT_AT_3, BIT_LENGTH_1, mode);
 8000918:	78fb      	ldrb	r3, [r7, #3]
 800091a:	2201      	movs	r2, #1
 800091c:	2103      	movs	r1, #3
 800091e:	2019      	movs	r0, #25
 8000920:	f7ff fe86 	bl	8000630 <GB_APDS9306_Write_Reg_Bits>
 APDS9306->INTERRUPT_MODE = mode ;
 8000924:	687b      	ldr	r3, [r7, #4]
 8000926:	78fa      	ldrb	r2, [r7, #3]
 8000928:	761a      	strb	r2, [r3, #24]
}
 800092a:	bf00      	nop
 800092c:	3708      	adds	r7, #8
 800092e:	46bd      	mov	sp, r7
 8000930:	bd80      	pop	{r7, pc}

08000932 <GB_APDS9306_Interrupt_Persist>:
 * @param     APDS9306   APDS9306 Struct INTERRUPT_PERSIST variable
 * @param     persist    Value is from APDS9306_Interrupt_Persist Enume
 * @return    Nothing
 ========================================================================================================================================*/
void GB_APDS9306_Interrupt_Persist ( GebraBit_APDS9306 * APDS9306 , APDS9306_Interrupt_Persist persist ) 
{
 8000932:	b580      	push	{r7, lr}
 8000934:	b082      	sub	sp, #8
 8000936:	af00      	add	r7, sp, #0
 8000938:	6078      	str	r0, [r7, #4]
 800093a:	460b      	mov	r3, r1
 800093c:	70fb      	strb	r3, [r7, #3]
 GB_APDS9306_Write_Reg_Bits(APDS9306_INT_PERSISTENCE, START_MSB_BIT_AT_7, BIT_LENGTH_4, persist);
 800093e:	78fb      	ldrb	r3, [r7, #3]
 8000940:	2204      	movs	r2, #4
 8000942:	2107      	movs	r1, #7
 8000944:	201a      	movs	r0, #26
 8000946:	f7ff fe73 	bl	8000630 <GB_APDS9306_Write_Reg_Bits>
 APDS9306->INTERRUPT_PERSIST = persist ;
 800094a:	687b      	ldr	r3, [r7, #4]
 800094c:	78fa      	ldrb	r2, [r7, #3]
 800094e:	765a      	strb	r2, [r3, #25]
}
 8000950:	bf00      	nop
 8000952:	3708      	adds	r7, #8
 8000954:	46bd      	mov	sp, r7
 8000956:	bd80      	pop	{r7, pc}

08000958 <GB_APDS9306_initialize>:
 * @brief     initialize APDS9306
 * @param     APDS9306     APDS9306 Struct 
 * @return    Nothing
 ========================================================================================================================================*/ 
void GB_APDS9306_initialize( GebraBit_APDS9306 * APDS9306 )
{
 8000958:	b580      	push	{r7, lr}
 800095a:	b082      	sub	sp, #8
 800095c:	af00      	add	r7, sp, #0
 800095e:	6078      	str	r0, [r7, #4]
  GB_APDS9306_Soft_Reset   ( APDS9306 ) ;
 8000960:	6878      	ldr	r0, [r7, #4]
 8000962:	f7ff feae 	bl	80006c2 <GB_APDS9306_Soft_Reset>
  GB_APDS9306_Read_Part_ID ( APDS9306 ) ;
 8000966:	6878      	ldr	r0, [r7, #4]
 8000968:	f7ff ff76 	bl	8000858 <GB_APDS9306_Read_Part_ID>
//	GB_APDS9306_Interrupt_Upper_Threshold( APDS9306 , 40000);
//	GB_APDS9306_Interrupt_Lower_Threshold( APDS9306 , 30000);
	GB_APDS9306_Interrupt_Mode( APDS9306 , ALS_THRESHOLD_INTERRUPT ) ;
 800096c:	2100      	movs	r1, #0
 800096e:	6878      	ldr	r0, [r7, #4]
 8000970:	f7ff ffcc 	bl	800090c <GB_APDS9306_Interrupt_Mode>
	GB_APDS9306_Interrupt_Channel (  APDS9306 , CLEAR_CHANNEL   );
 8000974:	2100      	movs	r1, #0
 8000976:	6878      	ldr	r0, [r7, #4]
 8000978:	f7ff ffb5 	bl	80008e6 <GB_APDS9306_Interrupt_Channel>
	GB_APDS9306_Interrupt_Persist( APDS9306 , CONSECUTIVE_5_ALS_VALUE_OUT_OF_THR_RANGE ) ;
 800097c:	2104      	movs	r1, #4
 800097e:	6878      	ldr	r0, [r7, #4]
 8000980:	f7ff ffd7 	bl	8000932 <GB_APDS9306_Interrupt_Persist>
	GB_APDS9306_Interrupt( APDS9306 ,  Disable )  ;
 8000984:	2100      	movs	r1, #0
 8000986:	6878      	ldr	r0, [r7, #4]
 8000988:	f7ff ff9a 	bl	80008c0 <GB_APDS9306_Interrupt>
}
 800098c:	bf00      	nop
 800098e:	3708      	adds	r7, #8
 8000990:	46bd      	mov	sp, r7
 8000992:	bd80      	pop	{r7, pc}

08000994 <GB_APDS9306_Configuration>:
 * @brief     Configure APDS9306
 * @param     APDS9306  Configure APDS9306 
 * @return    Nothing
 ========================================================================================================================================*/ 
void GB_APDS9306_Configuration(GebraBit_APDS9306 * APDS9306)
{
 8000994:	b580      	push	{r7, lr}
 8000996:	b082      	sub	sp, #8
 8000998:	af00      	add	r7, sp, #0
 800099a:	6078      	str	r0, [r7, #4]
	GB_APDS9306_ALS_Resolution( APDS9306 , _18_BIT_100_mS ) ;
 800099c:	2102      	movs	r1, #2
 800099e:	6878      	ldr	r0, [r7, #4]
 80009a0:	f7ff ff10 	bl	80007c4 <GB_APDS9306_ALS_Resolution>
	GB_APDS9306_Measurement_Repeat_Rate( APDS9306 , ALS_MEASRATE_100_mS ) ;
 80009a4:	2102      	movs	r1, #2
 80009a6:	6878      	ldr	r0, [r7, #4]
 80009a8:	f7ff fef8 	bl	800079c <GB_APDS9306_Measurement_Repeat_Rate>
	GB_APDS9306_ALS_Gain( APDS9306 , ALS_GAIN_3X ) ;
 80009ac:	2101      	movs	r1, #1
 80009ae:	6878      	ldr	r0, [r7, #4]
 80009b0:	f7ff feb2 	bl	8000718 <GB_APDS9306_ALS_Gain>
	GB_APDS9306_ALS ( APDS9306 ,  Enable );
 80009b4:	2101      	movs	r1, #1
 80009b6:	6878      	ldr	r0, [r7, #4]
 80009b8:	f7ff fe9a 	bl	80006f0 <GB_APDS9306_ALS>
}
 80009bc:	bf00      	nop
 80009be:	3708      	adds	r7, #8
 80009c0:	46bd      	mov	sp, r7
 80009c2:	bd80      	pop	{r7, pc}

080009c4 <GB_APDS9306_Get_Raw_Data>:
 * @brief     Get ADC Raw Data  from Register 
 * @param     APDS9306  store Raw Data Of ADC in GebraBit_APDS9306 Struct CLEAR_DATA & ALS_DATA 
 * @return    Nothing
 ========================================================================================================================================*/ 
void GB_APDS9306_Get_Raw_Data(GebraBit_APDS9306 * APDS9306)
{
 80009c4:	b580      	push	{r7, lr}
 80009c6:	b082      	sub	sp, #8
 80009c8:	af00      	add	r7, sp, #0
 80009ca:	6078      	str	r0, [r7, #4]
	GB_APDS9306_Read_STATUS( APDS9306 );
 80009cc:	6878      	ldr	r0, [r7, #4]
 80009ce:	f7ff ff51 	bl	8000874 <GB_APDS9306_Read_STATUS>
	if ( APDS9306->DATA== NEW_DATA ) 
 80009d2:	687b      	ldr	r3, [r7, #4]
 80009d4:	7d5b      	ldrb	r3, [r3, #21]
 80009d6:	2b01      	cmp	r3, #1
 80009d8:	d124      	bne.n	8000a24 <GB_APDS9306_Get_Raw_Data+0x60>
	{    
   GB_APDS9306_Burst_Read( APDS9306_CLEAR_DATA_0 , APDS9306->REGISTER_DATA , REGISTER_DATA_BUFFER_SIZE);
 80009da:	687b      	ldr	r3, [r7, #4]
 80009dc:	3324      	adds	r3, #36	; 0x24
 80009de:	2206      	movs	r2, #6
 80009e0:	4619      	mov	r1, r3
 80009e2:	200a      	movs	r0, #10
 80009e4:	f7ff fdec 	bl	80005c0 <GB_APDS9306_Burst_Read>
	 APDS9306->CLEAR_DATA = ((uint32_t)APDS9306->REGISTER_DATA[2]<<16)|((uint32_t)APDS9306->REGISTER_DATA[1]<<8)|((uint32_t)APDS9306->REGISTER_DATA[0])  ;
 80009e8:	687b      	ldr	r3, [r7, #4]
 80009ea:	f893 3026 	ldrb.w	r3, [r3, #38]	; 0x26
 80009ee:	041a      	lsls	r2, r3, #16
 80009f0:	687b      	ldr	r3, [r7, #4]
 80009f2:	f893 3025 	ldrb.w	r3, [r3, #37]	; 0x25
 80009f6:	021b      	lsls	r3, r3, #8
 80009f8:	4313      	orrs	r3, r2
 80009fa:	687a      	ldr	r2, [r7, #4]
 80009fc:	f892 2024 	ldrb.w	r2, [r2, #36]	; 0x24
 8000a00:	431a      	orrs	r2, r3
 8000a02:	687b      	ldr	r3, [r7, #4]
 8000a04:	62da      	str	r2, [r3, #44]	; 0x2c
   APDS9306->ALS_DATA =   ((uint32_t)APDS9306->REGISTER_DATA[5]<<16)|((uint32_t)APDS9306->REGISTER_DATA[4]<<8)|((uint32_t)APDS9306->REGISTER_DATA[3])  ;
 8000a06:	687b      	ldr	r3, [r7, #4]
 8000a08:	f893 3029 	ldrb.w	r3, [r3, #41]	; 0x29
 8000a0c:	041a      	lsls	r2, r3, #16
 8000a0e:	687b      	ldr	r3, [r7, #4]
 8000a10:	f893 3028 	ldrb.w	r3, [r3, #40]	; 0x28
 8000a14:	021b      	lsls	r3, r3, #8
 8000a16:	4313      	orrs	r3, r2
 8000a18:	687a      	ldr	r2, [r7, #4]
 8000a1a:	f892 2027 	ldrb.w	r2, [r2, #39]	; 0x27
 8000a1e:	431a      	orrs	r2, r3
 8000a20:	687b      	ldr	r3, [r7, #4]
 8000a22:	631a      	str	r2, [r3, #48]	; 0x30
	}
}  
 8000a24:	bf00      	nop
 8000a26:	3708      	adds	r7, #8
 8000a28:	46bd      	mov	sp, r7
 8000a2a:	bd80      	pop	{r7, pc}

08000a2c <GB_APDS9306_Luminosity_Reading>:
 * @brief     Calculate Intensity Of Light
 * @param     APDS9306  Staruct LUMINOSITY Variable
 * @return    Nothing
 ========================================================================================================================================*/ 
void GB_APDS9306_Luminosity_Reading(GebraBit_APDS9306 * APDS9306)
{
 8000a2c:	b480      	push	{r7}
 8000a2e:	b083      	sub	sp, #12
 8000a30:	af00      	add	r7, sp, #0
 8000a32:	6078      	str	r0, [r7, #4]
  APDS9306->LUMINOSITY =(APDS9306->ALS_DATA / APDS9306->ALS_GAIN_VALUE) * (100.0f / APDS9306->ALS_RESOLUTION_TIME); 
 8000a34:	687b      	ldr	r3, [r7, #4]
 8000a36:	6b1b      	ldr	r3, [r3, #48]	; 0x30
 8000a38:	ee07 3a90 	vmov	s15, r3
 8000a3c:	eef8 6a67 	vcvt.f32.u32	s13, s15
 8000a40:	687b      	ldr	r3, [r7, #4]
 8000a42:	edd3 7a02 	vldr	s15, [r3, #8]
 8000a46:	ee86 7aa7 	vdiv.f32	s14, s13, s15
 8000a4a:	687b      	ldr	r3, [r7, #4]
 8000a4c:	edd3 6a04 	vldr	s13, [r3, #16]
 8000a50:	ed9f 6a07 	vldr	s12, [pc, #28]	; 8000a70 <GB_APDS9306_Luminosity_Reading+0x44>
 8000a54:	eec6 7a26 	vdiv.f32	s15, s12, s13
 8000a58:	ee67 7a27 	vmul.f32	s15, s14, s15
 8000a5c:	687b      	ldr	r3, [r7, #4]
 8000a5e:	edc3 7a0d 	vstr	s15, [r3, #52]	; 0x34
} 
 8000a62:	bf00      	nop
 8000a64:	370c      	adds	r7, #12
 8000a66:	46bd      	mov	sp, r7
 8000a68:	f85d 7b04 	ldr.w	r7, [sp], #4
 8000a6c:	4770      	bx	lr
 8000a6e:	bf00      	nop
 8000a70:	42c80000 	.word	0x42c80000

08000a74 <GB_APDS9306_Get_Data>:
 * @brief     Get Data From Sensor 
 * @param     APDS9306       GebraBit_APDS9306 Staruct
 * @return    Nothing
 ========================================================================================================================================*/ 
void GB_APDS9306_Get_Data(GebraBit_APDS9306 * APDS9306)
{
 8000a74:	b580      	push	{r7, lr}
 8000a76:	b082      	sub	sp, #8
 8000a78:	af00      	add	r7, sp, #0
 8000a7a:	6078      	str	r0, [r7, #4]
  GB_APDS9306_Get_Raw_Data( APDS9306 );
 8000a7c:	6878      	ldr	r0, [r7, #4]
 8000a7e:	f7ff ffa1 	bl	80009c4 <GB_APDS9306_Get_Raw_Data>
	GB_APDS9306_Luminosity_Reading(APDS9306);
 8000a82:	6878      	ldr	r0, [r7, #4]
 8000a84:	f7ff ffd2 	bl	8000a2c <GB_APDS9306_Luminosity_Reading>
}
 8000a88:	bf00      	nop
 8000a8a:	3708      	adds	r7, #8
 8000a8c:	46bd      	mov	sp, r7
 8000a8e:	bd80      	pop	{r7, pc}

08000a90 <chg_led_state>:


#include "funciones.h"


void chg_led_state(enum LEDS leds){
 8000a90:	b580      	push	{r7, lr}
 8000a92:	b082      	sub	sp, #8
 8000a94:	af00      	add	r7, sp, #0
 8000a96:	4603      	mov	r3, r0
 8000a98:	71fb      	strb	r3, [r7, #7]
	switch(leds){
 8000a9a:	79fb      	ldrb	r3, [r7, #7]
 8000a9c:	2b03      	cmp	r3, #3
 8000a9e:	d837      	bhi.n	8000b10 <chg_led_state+0x80>
 8000aa0:	a201      	add	r2, pc, #4	; (adr r2, 8000aa8 <chg_led_state+0x18>)
 8000aa2:	f852 f023 	ldr.w	pc, [r2, r3, lsl #2]
 8000aa6:	bf00      	nop
 8000aa8:	08000ab9 	.word	0x08000ab9
 8000aac:	08000acf 	.word	0x08000acf
 8000ab0:	08000ae5 	.word	0x08000ae5
 8000ab4:	08000afb 	.word	0x08000afb
	case CONEXION_EXITOSA:
		HAL_GPIO_WritePin(GPIO_LED_VERDE_GPIO_Port, GPIO_LED_VERDE_Pin, 1);
 8000ab8:	2201      	movs	r2, #1
 8000aba:	2180      	movs	r1, #128	; 0x80
 8000abc:	4816      	ldr	r0, [pc, #88]	; (8000b18 <chg_led_state+0x88>)
 8000abe:	f001 f9d5 	bl	8001e6c <HAL_GPIO_WritePin>
		HAL_GPIO_WritePin(GPIO_LED_ROJO_GPIO_Port, GPIO_LED_ROJO_Pin, 0);
 8000ac2:	2200      	movs	r2, #0
 8000ac4:	2140      	movs	r1, #64	; 0x40
 8000ac6:	4815      	ldr	r0, [pc, #84]	; (8000b1c <chg_led_state+0x8c>)
 8000ac8:	f001 f9d0 	bl	8001e6c <HAL_GPIO_WritePin>
		break;
 8000acc:	e020      	b.n	8000b10 <chg_led_state+0x80>
	case BUSY:
		HAL_GPIO_WritePin(GPIO_LED_VERDE_GPIO_Port, GPIO_LED_VERDE_Pin, 1);
 8000ace:	2201      	movs	r2, #1
 8000ad0:	2180      	movs	r1, #128	; 0x80
 8000ad2:	4811      	ldr	r0, [pc, #68]	; (8000b18 <chg_led_state+0x88>)
 8000ad4:	f001 f9ca 	bl	8001e6c <HAL_GPIO_WritePin>
		HAL_GPIO_WritePin(GPIO_LED_ROJO_GPIO_Port, GPIO_LED_ROJO_Pin, 1);
 8000ad8:	2201      	movs	r2, #1
 8000ada:	2140      	movs	r1, #64	; 0x40
 8000adc:	480f      	ldr	r0, [pc, #60]	; (8000b1c <chg_led_state+0x8c>)
 8000ade:	f001 f9c5 	bl	8001e6c <HAL_GPIO_WritePin>
		break;
 8000ae2:	e015      	b.n	8000b10 <chg_led_state+0x80>
	case FALLO_CRITICO:
		HAL_GPIO_WritePin(GPIO_LED_VERDE_GPIO_Port, GPIO_LED_VERDE_Pin, 0);
 8000ae4:	2200      	movs	r2, #0
 8000ae6:	2180      	movs	r1, #128	; 0x80
 8000ae8:	480b      	ldr	r0, [pc, #44]	; (8000b18 <chg_led_state+0x88>)
 8000aea:	f001 f9bf 	bl	8001e6c <HAL_GPIO_WritePin>
		HAL_GPIO_WritePin(GPIO_LED_ROJO_GPIO_Port, GPIO_LED_ROJO_Pin, 1);
 8000aee:	2201      	movs	r2, #1
 8000af0:	2140      	movs	r1, #64	; 0x40
 8000af2:	480a      	ldr	r0, [pc, #40]	; (8000b1c <chg_led_state+0x8c>)
 8000af4:	f001 f9ba 	bl	8001e6c <HAL_GPIO_WritePin>
		break;
 8000af8:	e00a      	b.n	8000b10 <chg_led_state+0x80>
	case OFF:
		HAL_GPIO_WritePin(GPIO_LED_VERDE_GPIO_Port, GPIO_LED_VERDE_Pin, 0);
 8000afa:	2200      	movs	r2, #0
 8000afc:	2180      	movs	r1, #128	; 0x80
 8000afe:	4806      	ldr	r0, [pc, #24]	; (8000b18 <chg_led_state+0x88>)
 8000b00:	f001 f9b4 	bl	8001e6c <HAL_GPIO_WritePin>
		HAL_GPIO_WritePin(GPIO_LED_ROJO_GPIO_Port, GPIO_LED_ROJO_Pin, 0);
 8000b04:	2200      	movs	r2, #0
 8000b06:	2140      	movs	r1, #64	; 0x40
 8000b08:	4804      	ldr	r0, [pc, #16]	; (8000b1c <chg_led_state+0x8c>)
 8000b0a:	f001 f9af 	bl	8001e6c <HAL_GPIO_WritePin>
	}

};
 8000b0e:	e7ff      	b.n	8000b10 <chg_led_state+0x80>
 8000b10:	bf00      	nop
 8000b12:	3708      	adds	r7, #8
 8000b14:	46bd      	mov	sp, r7
 8000b16:	bd80      	pop	{r7, pc}
 8000b18:	48000800 	.word	0x48000800
 8000b1c:	48000400 	.word	0x48000400

08000b20 <MX_GPIO_Init>:
        * Output
        * EVENT_OUT
        * EXTI
*/
void MX_GPIO_Init(void)
{
 8000b20:	b580      	push	{r7, lr}
 8000b22:	b08a      	sub	sp, #40	; 0x28
 8000b24:	af00      	add	r7, sp, #0

  GPIO_InitTypeDef GPIO_InitStruct = {0};
 8000b26:	f107 0314 	add.w	r3, r7, #20
 8000b2a:	2200      	movs	r2, #0
 8000b2c:	601a      	str	r2, [r3, #0]
 8000b2e:	605a      	str	r2, [r3, #4]
 8000b30:	609a      	str	r2, [r3, #8]
 8000b32:	60da      	str	r2, [r3, #12]
 8000b34:	611a      	str	r2, [r3, #16]

  /* GPIO Ports Clock Enable */
  __HAL_RCC_GPIOC_CLK_ENABLE();
 8000b36:	4b51      	ldr	r3, [pc, #324]	; (8000c7c <MX_GPIO_Init+0x15c>)
 8000b38:	6cdb      	ldr	r3, [r3, #76]	; 0x4c
 8000b3a:	4a50      	ldr	r2, [pc, #320]	; (8000c7c <MX_GPIO_Init+0x15c>)
 8000b3c:	f043 0304 	orr.w	r3, r3, #4
 8000b40:	64d3      	str	r3, [r2, #76]	; 0x4c
 8000b42:	4b4e      	ldr	r3, [pc, #312]	; (8000c7c <MX_GPIO_Init+0x15c>)
 8000b44:	6cdb      	ldr	r3, [r3, #76]	; 0x4c
 8000b46:	f003 0304 	and.w	r3, r3, #4
 8000b4a:	613b      	str	r3, [r7, #16]
 8000b4c:	693b      	ldr	r3, [r7, #16]
  __HAL_RCC_GPIOH_CLK_ENABLE();
 8000b4e:	4b4b      	ldr	r3, [pc, #300]	; (8000c7c <MX_GPIO_Init+0x15c>)
 8000b50:	6cdb      	ldr	r3, [r3, #76]	; 0x4c
 8000b52:	4a4a      	ldr	r2, [pc, #296]	; (8000c7c <MX_GPIO_Init+0x15c>)
 8000b54:	f043 0380 	orr.w	r3, r3, #128	; 0x80
 8000b58:	64d3      	str	r3, [r2, #76]	; 0x4c
 8000b5a:	4b48      	ldr	r3, [pc, #288]	; (8000c7c <MX_GPIO_Init+0x15c>)
 8000b5c:	6cdb      	ldr	r3, [r3, #76]	; 0x4c
 8000b5e:	f003 0380 	and.w	r3, r3, #128	; 0x80
 8000b62:	60fb      	str	r3, [r7, #12]
 8000b64:	68fb      	ldr	r3, [r7, #12]
  __HAL_RCC_GPIOA_CLK_ENABLE();
 8000b66:	4b45      	ldr	r3, [pc, #276]	; (8000c7c <MX_GPIO_Init+0x15c>)
 8000b68:	6cdb      	ldr	r3, [r3, #76]	; 0x4c
 8000b6a:	4a44      	ldr	r2, [pc, #272]	; (8000c7c <MX_GPIO_Init+0x15c>)
 8000b6c:	f043 0301 	orr.w	r3, r3, #1
 8000b70:	64d3      	str	r3, [r2, #76]	; 0x4c
 8000b72:	4b42      	ldr	r3, [pc, #264]	; (8000c7c <MX_GPIO_Init+0x15c>)
 8000b74:	6cdb      	ldr	r3, [r3, #76]	; 0x4c
 8000b76:	f003 0301 	and.w	r3, r3, #1
 8000b7a:	60bb      	str	r3, [r7, #8]
 8000b7c:	68bb      	ldr	r3, [r7, #8]
  __HAL_RCC_GPIOB_CLK_ENABLE();
 8000b7e:	4b3f      	ldr	r3, [pc, #252]	; (8000c7c <MX_GPIO_Init+0x15c>)
 8000b80:	6cdb      	ldr	r3, [r3, #76]	; 0x4c
 8000b82:	4a3e      	ldr	r2, [pc, #248]	; (8000c7c <MX_GPIO_Init+0x15c>)
 8000b84:	f043 0302 	orr.w	r3, r3, #2
 8000b88:	64d3      	str	r3, [r2, #76]	; 0x4c
 8000b8a:	4b3c      	ldr	r3, [pc, #240]	; (8000c7c <MX_GPIO_Init+0x15c>)
 8000b8c:	6cdb      	ldr	r3, [r3, #76]	; 0x4c
 8000b8e:	f003 0302 	and.w	r3, r3, #2
 8000b92:	607b      	str	r3, [r7, #4]
 8000b94:	687b      	ldr	r3, [r7, #4]

  /*Configure GPIO pin Output Level */
  HAL_GPIO_WritePin(GPIOA, MESP_EN_Pin|LD4_Pin, GPIO_PIN_RESET);
 8000b96:	2200      	movs	r2, #0
 8000b98:	2121      	movs	r1, #33	; 0x21
 8000b9a:	f04f 4090 	mov.w	r0, #1207959552	; 0x48000000
 8000b9e:	f001 f965 	bl	8001e6c <HAL_GPIO_WritePin>

  /*Configure GPIO pin Output Level */
  HAL_GPIO_WritePin(GPIO_LED_VERDE_GPIO_Port, GPIO_LED_VERDE_Pin, GPIO_PIN_RESET);
 8000ba2:	2200      	movs	r2, #0
 8000ba4:	2180      	movs	r1, #128	; 0x80
 8000ba6:	4836      	ldr	r0, [pc, #216]	; (8000c80 <MX_GPIO_Init+0x160>)
 8000ba8:	f001 f960 	bl	8001e6c <HAL_GPIO_WritePin>

  /*Configure GPIO pin Output Level */
  HAL_GPIO_WritePin(GPIO_LED_ROJO_GPIO_Port, GPIO_LED_ROJO_Pin, GPIO_PIN_RESET);
 8000bac:	2200      	movs	r2, #0
 8000bae:	2140      	movs	r1, #64	; 0x40
 8000bb0:	4834      	ldr	r0, [pc, #208]	; (8000c84 <MX_GPIO_Init+0x164>)
 8000bb2:	f001 f95b 	bl	8001e6c <HAL_GPIO_WritePin>

  /*Configure GPIO pin : PtPin */
  GPIO_InitStruct.Pin = B1_Pin;
 8000bb6:	f44f 5300 	mov.w	r3, #8192	; 0x2000
 8000bba:	617b      	str	r3, [r7, #20]
  GPIO_InitStruct.Mode = GPIO_MODE_IT_FALLING;
 8000bbc:	f44f 1304 	mov.w	r3, #2162688	; 0x210000
 8000bc0:	61bb      	str	r3, [r7, #24]
  GPIO_InitStruct.Pull = GPIO_NOPULL;
 8000bc2:	2300      	movs	r3, #0
 8000bc4:	61fb      	str	r3, [r7, #28]
  HAL_GPIO_Init(B1_GPIO_Port, &GPIO_InitStruct);
 8000bc6:	f107 0314 	add.w	r3, r7, #20
 8000bca:	4619      	mov	r1, r3
 8000bcc:	482c      	ldr	r0, [pc, #176]	; (8000c80 <MX_GPIO_Init+0x160>)
 8000bce:	f000 ffd3 	bl	8001b78 <HAL_GPIO_Init>

  /*Configure GPIO pins : PAPin PAPin */
  GPIO_InitStruct.Pin = MESP_EN_Pin|LD4_Pin;
 8000bd2:	2321      	movs	r3, #33	; 0x21
 8000bd4:	617b      	str	r3, [r7, #20]
  GPIO_InitStruct.Mode = GPIO_MODE_OUTPUT_PP;
 8000bd6:	2301      	movs	r3, #1
 8000bd8:	61bb      	str	r3, [r7, #24]
  GPIO_InitStruct.Pull = GPIO_NOPULL;
 8000bda:	2300      	movs	r3, #0
 8000bdc:	61fb      	str	r3, [r7, #28]
  GPIO_InitStruct.Speed = GPIO_SPEED_FREQ_LOW;
 8000bde:	2300      	movs	r3, #0
 8000be0:	623b      	str	r3, [r7, #32]
  HAL_GPIO_Init(GPIOA, &GPIO_InitStruct);
 8000be2:	f107 0314 	add.w	r3, r7, #20
 8000be6:	4619      	mov	r1, r3
 8000be8:	f04f 4090 	mov.w	r0, #1207959552	; 0x48000000
 8000bec:	f000 ffc4 	bl	8001b78 <HAL_GPIO_Init>

  /*Configure GPIO pin : PtPin */
  GPIO_InitStruct.Pin = GPIO_BOTON_Pin;
 8000bf0:	f44f 6380 	mov.w	r3, #1024	; 0x400
 8000bf4:	617b      	str	r3, [r7, #20]
  GPIO_InitStruct.Mode = GPIO_MODE_IT_RISING;
 8000bf6:	f44f 1388 	mov.w	r3, #1114112	; 0x110000
 8000bfa:	61bb      	str	r3, [r7, #24]
  GPIO_InitStruct.Pull = GPIO_NOPULL;
 8000bfc:	2300      	movs	r3, #0
 8000bfe:	61fb      	str	r3, [r7, #28]
  HAL_GPIO_Init(GPIO_BOTON_GPIO_Port, &GPIO_InitStruct);
 8000c00:	f107 0314 	add.w	r3, r7, #20
 8000c04:	4619      	mov	r1, r3
 8000c06:	481f      	ldr	r0, [pc, #124]	; (8000c84 <MX_GPIO_Init+0x164>)
 8000c08:	f000 ffb6 	bl	8001b78 <HAL_GPIO_Init>

  /*Configure GPIO pin : PtPin */
  GPIO_InitStruct.Pin = GPIO_LED_VERDE_Pin;
 8000c0c:	2380      	movs	r3, #128	; 0x80
 8000c0e:	617b      	str	r3, [r7, #20]
  GPIO_InitStruct.Mode = GPIO_MODE_OUTPUT_PP;
 8000c10:	2301      	movs	r3, #1
 8000c12:	61bb      	str	r3, [r7, #24]
  GPIO_InitStruct.Pull = GPIO_NOPULL;
 8000c14:	2300      	movs	r3, #0
 8000c16:	61fb      	str	r3, [r7, #28]
  GPIO_InitStruct.Speed = GPIO_SPEED_FREQ_LOW;
 8000c18:	2300      	movs	r3, #0
 8000c1a:	623b      	str	r3, [r7, #32]
  HAL_GPIO_Init(GPIO_LED_VERDE_GPIO_Port, &GPIO_InitStruct);
 8000c1c:	f107 0314 	add.w	r3, r7, #20
 8000c20:	4619      	mov	r1, r3
 8000c22:	4817      	ldr	r0, [pc, #92]	; (8000c80 <MX_GPIO_Init+0x160>)
 8000c24:	f000 ffa8 	bl	8001b78 <HAL_GPIO_Init>

  /*Configure GPIO pin : PtPin */
  GPIO_InitStruct.Pin = SENSOR_INT_Pin;
 8000c28:	f44f 7380 	mov.w	r3, #256	; 0x100
 8000c2c:	617b      	str	r3, [r7, #20]
  GPIO_InitStruct.Mode = GPIO_MODE_IT_RISING;
 8000c2e:	f44f 1388 	mov.w	r3, #1114112	; 0x110000
 8000c32:	61bb      	str	r3, [r7, #24]
  GPIO_InitStruct.Pull = GPIO_NOPULL;
 8000c34:	2300      	movs	r3, #0
 8000c36:	61fb      	str	r3, [r7, #28]
  HAL_GPIO_Init(SENSOR_INT_GPIO_Port, &GPIO_InitStruct);
 8000c38:	f107 0314 	add.w	r3, r7, #20
 8000c3c:	4619      	mov	r1, r3
 8000c3e:	f04f 4090 	mov.w	r0, #1207959552	; 0x48000000
 8000c42:	f000 ff99 	bl	8001b78 <HAL_GPIO_Init>

  /*Configure GPIO pin : PtPin */
  GPIO_InitStruct.Pin = GPIO_LED_ROJO_Pin;
 8000c46:	2340      	movs	r3, #64	; 0x40
 8000c48:	617b      	str	r3, [r7, #20]
  GPIO_InitStruct.Mode = GPIO_MODE_OUTPUT_PP;
 8000c4a:	2301      	movs	r3, #1
 8000c4c:	61bb      	str	r3, [r7, #24]
  GPIO_InitStruct.Pull = GPIO_NOPULL;
 8000c4e:	2300      	movs	r3, #0
 8000c50:	61fb      	str	r3, [r7, #28]
  GPIO_InitStruct.Speed = GPIO_SPEED_FREQ_LOW;
 8000c52:	2300      	movs	r3, #0
 8000c54:	623b      	str	r3, [r7, #32]
  HAL_GPIO_Init(GPIO_LED_ROJO_GPIO_Port, &GPIO_InitStruct);
 8000c56:	f107 0314 	add.w	r3, r7, #20
 8000c5a:	4619      	mov	r1, r3
 8000c5c:	4809      	ldr	r0, [pc, #36]	; (8000c84 <MX_GPIO_Init+0x164>)
 8000c5e:	f000 ff8b 	bl	8001b78 <HAL_GPIO_Init>

  /* EXTI interrupt init*/
  HAL_NVIC_SetPriority(EXTI15_10_IRQn, 0, 0);
 8000c62:	2200      	movs	r2, #0
 8000c64:	2100      	movs	r1, #0
 8000c66:	2028      	movs	r0, #40	; 0x28
 8000c68:	f000 fed1 	bl	8001a0e <HAL_NVIC_SetPriority>
  HAL_NVIC_EnableIRQ(EXTI15_10_IRQn);
 8000c6c:	2028      	movs	r0, #40	; 0x28
 8000c6e:	f000 feea 	bl	8001a46 <HAL_NVIC_EnableIRQ>

}
 8000c72:	bf00      	nop
 8000c74:	3728      	adds	r7, #40	; 0x28
 8000c76:	46bd      	mov	sp, r7
 8000c78:	bd80      	pop	{r7, pc}
 8000c7a:	bf00      	nop
 8000c7c:	40021000 	.word	0x40021000
 8000c80:	48000800 	.word	0x48000800
 8000c84:	48000400 	.word	0x48000400

08000c88 <MX_I2C3_Init>:

I2C_HandleTypeDef hi2c3;

/* I2C3 init function */
void MX_I2C3_Init(void)
{
 8000c88:	b580      	push	{r7, lr}
 8000c8a:	af00      	add	r7, sp, #0
  /* USER CODE END I2C3_Init 0 */

  /* USER CODE BEGIN I2C3_Init 1 */

  /* USER CODE END I2C3_Init 1 */
  hi2c3.Instance = I2C3;
 8000c8c:	4b1b      	ldr	r3, [pc, #108]	; (8000cfc <MX_I2C3_Init+0x74>)
 8000c8e:	4a1c      	ldr	r2, [pc, #112]	; (8000d00 <MX_I2C3_Init+0x78>)
 8000c90:	601a      	str	r2, [r3, #0]
  hi2c3.Init.Timing = 0x10909CEC;
 8000c92:	4b1a      	ldr	r3, [pc, #104]	; (8000cfc <MX_I2C3_Init+0x74>)
 8000c94:	4a1b      	ldr	r2, [pc, #108]	; (8000d04 <MX_I2C3_Init+0x7c>)
 8000c96:	605a      	str	r2, [r3, #4]
  hi2c3.Init.OwnAddress1 = 0;
 8000c98:	4b18      	ldr	r3, [pc, #96]	; (8000cfc <MX_I2C3_Init+0x74>)
 8000c9a:	2200      	movs	r2, #0
 8000c9c:	609a      	str	r2, [r3, #8]
  hi2c3.Init.AddressingMode = I2C_ADDRESSINGMODE_7BIT;
 8000c9e:	4b17      	ldr	r3, [pc, #92]	; (8000cfc <MX_I2C3_Init+0x74>)
 8000ca0:	2201      	movs	r2, #1
 8000ca2:	60da      	str	r2, [r3, #12]
  hi2c3.Init.DualAddressMode = I2C_DUALADDRESS_DISABLE;
 8000ca4:	4b15      	ldr	r3, [pc, #84]	; (8000cfc <MX_I2C3_Init+0x74>)
 8000ca6:	2200      	movs	r2, #0
 8000ca8:	611a      	str	r2, [r3, #16]
  hi2c3.Init.OwnAddress2 = 0;
 8000caa:	4b14      	ldr	r3, [pc, #80]	; (8000cfc <MX_I2C3_Init+0x74>)
 8000cac:	2200      	movs	r2, #0
 8000cae:	615a      	str	r2, [r3, #20]
  hi2c3.Init.OwnAddress2Masks = I2C_OA2_NOMASK;
 8000cb0:	4b12      	ldr	r3, [pc, #72]	; (8000cfc <MX_I2C3_Init+0x74>)
 8000cb2:	2200      	movs	r2, #0
 8000cb4:	619a      	str	r2, [r3, #24]
  hi2c3.Init.GeneralCallMode = I2C_GENERALCALL_DISABLE;
 8000cb6:	4b11      	ldr	r3, [pc, #68]	; (8000cfc <MX_I2C3_Init+0x74>)
 8000cb8:	2200      	movs	r2, #0
 8000cba:	61da      	str	r2, [r3, #28]
  hi2c3.Init.NoStretchMode = I2C_NOSTRETCH_DISABLE;
 8000cbc:	4b0f      	ldr	r3, [pc, #60]	; (8000cfc <MX_I2C3_Init+0x74>)
 8000cbe:	2200      	movs	r2, #0
 8000cc0:	621a      	str	r2, [r3, #32]
  if (HAL_I2C_Init(&hi2c3) != HAL_OK)
 8000cc2:	480e      	ldr	r0, [pc, #56]	; (8000cfc <MX_I2C3_Init+0x74>)
 8000cc4:	f001 f902 	bl	8001ecc <HAL_I2C_Init>
 8000cc8:	4603      	mov	r3, r0
 8000cca:	2b00      	cmp	r3, #0
 8000ccc:	d001      	beq.n	8000cd2 <MX_I2C3_Init+0x4a>
  {
    Error_Handler();
 8000cce:	f000 faac 	bl	800122a <Error_Handler>
  }

  /** Configure Analogue filter
  */
  if (HAL_I2CEx_ConfigAnalogFilter(&hi2c3, I2C_ANALOGFILTER_ENABLE) != HAL_OK)
 8000cd2:	2100      	movs	r1, #0
 8000cd4:	4809      	ldr	r0, [pc, #36]	; (8000cfc <MX_I2C3_Init+0x74>)
 8000cd6:	f001 fe7b 	bl	80029d0 <HAL_I2CEx_ConfigAnalogFilter>
 8000cda:	4603      	mov	r3, r0
 8000cdc:	2b00      	cmp	r3, #0
 8000cde:	d001      	beq.n	8000ce4 <MX_I2C3_Init+0x5c>
  {
    Error_Handler();
 8000ce0:	f000 faa3 	bl	800122a <Error_Handler>
  }

  /** Configure Digital filter
  */
  if (HAL_I2CEx_ConfigDigitalFilter(&hi2c3, 0) != HAL_OK)
 8000ce4:	2100      	movs	r1, #0
 8000ce6:	4805      	ldr	r0, [pc, #20]	; (8000cfc <MX_I2C3_Init+0x74>)
 8000ce8:	f001 febd 	bl	8002a66 <HAL_I2CEx_ConfigDigitalFilter>
 8000cec:	4603      	mov	r3, r0
 8000cee:	2b00      	cmp	r3, #0
 8000cf0:	d001      	beq.n	8000cf6 <MX_I2C3_Init+0x6e>
  {
    Error_Handler();
 8000cf2:	f000 fa9a 	bl	800122a <Error_Handler>
  }
  /* USER CODE BEGIN I2C3_Init 2 */

  /* USER CODE END I2C3_Init 2 */

}
 8000cf6:	bf00      	nop
 8000cf8:	bd80      	pop	{r7, pc}
 8000cfa:	bf00      	nop
 8000cfc:	2000007c 	.word	0x2000007c
 8000d00:	40005c00 	.word	0x40005c00
 8000d04:	10909cec 	.word	0x10909cec

08000d08 <HAL_I2C_MspInit>:

void HAL_I2C_MspInit(I2C_HandleTypeDef* i2cHandle)
{
 8000d08:	b580      	push	{r7, lr}
 8000d0a:	b0a4      	sub	sp, #144	; 0x90
 8000d0c:	af00      	add	r7, sp, #0
 8000d0e:	6078      	str	r0, [r7, #4]

  GPIO_InitTypeDef GPIO_InitStruct = {0};
 8000d10:	f107 037c 	add.w	r3, r7, #124	; 0x7c
 8000d14:	2200      	movs	r2, #0
 8000d16:	601a      	str	r2, [r3, #0]
 8000d18:	605a      	str	r2, [r3, #4]
 8000d1a:	609a      	str	r2, [r3, #8]
 8000d1c:	60da      	str	r2, [r3, #12]
 8000d1e:	611a      	str	r2, [r3, #16]
  RCC_PeriphCLKInitTypeDef PeriphClkInit = {0};
 8000d20:	f107 0314 	add.w	r3, r7, #20
 8000d24:	2268      	movs	r2, #104	; 0x68
 8000d26:	2100      	movs	r1, #0
 8000d28:	4618      	mov	r0, r3
 8000d2a:	f005 f911 	bl	8005f50 <memset>
  if(i2cHandle->Instance==I2C3)
 8000d2e:	687b      	ldr	r3, [r7, #4]
 8000d30:	681b      	ldr	r3, [r3, #0]
 8000d32:	4a21      	ldr	r2, [pc, #132]	; (8000db8 <HAL_I2C_MspInit+0xb0>)
 8000d34:	4293      	cmp	r3, r2
 8000d36:	d13a      	bne.n	8000dae <HAL_I2C_MspInit+0xa6>

  /* USER CODE END I2C3_MspInit 0 */

  /** Initializes the peripherals clock
  */
    PeriphClkInit.PeriphClockSelection = RCC_PERIPHCLK_I2C3;
 8000d38:	f44f 7380 	mov.w	r3, #256	; 0x100
 8000d3c:	617b      	str	r3, [r7, #20]
    PeriphClkInit.I2c3ClockSelection = RCC_I2C3CLKSOURCE_PCLK1;
 8000d3e:	2300      	movs	r3, #0
 8000d40:	653b      	str	r3, [r7, #80]	; 0x50
    if (HAL_RCCEx_PeriphCLKConfig(&PeriphClkInit) != HAL_OK)
 8000d42:	f107 0314 	add.w	r3, r7, #20
 8000d46:	4618      	mov	r0, r3
 8000d48:	f002 fd76 	bl	8003838 <HAL_RCCEx_PeriphCLKConfig>
 8000d4c:	4603      	mov	r3, r0
 8000d4e:	2b00      	cmp	r3, #0
 8000d50:	d001      	beq.n	8000d56 <HAL_I2C_MspInit+0x4e>
    {
      Error_Handler();
 8000d52:	f000 fa6a 	bl	800122a <Error_Handler>
    }

    __HAL_RCC_GPIOC_CLK_ENABLE();
 8000d56:	4b19      	ldr	r3, [pc, #100]	; (8000dbc <HAL_I2C_MspInit+0xb4>)
 8000d58:	6cdb      	ldr	r3, [r3, #76]	; 0x4c
 8000d5a:	4a18      	ldr	r2, [pc, #96]	; (8000dbc <HAL_I2C_MspInit+0xb4>)
 8000d5c:	f043 0304 	orr.w	r3, r3, #4
 8000d60:	64d3      	str	r3, [r2, #76]	; 0x4c
 8000d62:	4b16      	ldr	r3, [pc, #88]	; (8000dbc <HAL_I2C_MspInit+0xb4>)
 8000d64:	6cdb      	ldr	r3, [r3, #76]	; 0x4c
 8000d66:	f003 0304 	and.w	r3, r3, #4
 8000d6a:	613b      	str	r3, [r7, #16]
 8000d6c:	693b      	ldr	r3, [r7, #16]
    /**I2C3 GPIO Configuration
    PC0     ------> I2C3_SCL
    PC1     ------> I2C3_SDA
    */
    GPIO_InitStruct.Pin = SENSOR_SCL_Pin|SENSOR_SDA_Pin;
 8000d6e:	2303      	movs	r3, #3
 8000d70:	67fb      	str	r3, [r7, #124]	; 0x7c
    GPIO_InitStruct.Mode = GPIO_MODE_AF_OD;
 8000d72:	2312      	movs	r3, #18
 8000d74:	f8c7 3080 	str.w	r3, [r7, #128]	; 0x80
    GPIO_InitStruct.Pull = GPIO_NOPULL;
 8000d78:	2300      	movs	r3, #0
 8000d7a:	f8c7 3084 	str.w	r3, [r7, #132]	; 0x84
    GPIO_InitStruct.Speed = GPIO_SPEED_FREQ_VERY_HIGH;
 8000d7e:	2303      	movs	r3, #3
 8000d80:	f8c7 3088 	str.w	r3, [r7, #136]	; 0x88
    GPIO_InitStruct.Alternate = GPIO_AF4_I2C3;
 8000d84:	2304      	movs	r3, #4
 8000d86:	f8c7 308c 	str.w	r3, [r7, #140]	; 0x8c
    HAL_GPIO_Init(GPIOC, &GPIO_InitStruct);
 8000d8a:	f107 037c 	add.w	r3, r7, #124	; 0x7c
 8000d8e:	4619      	mov	r1, r3
 8000d90:	480b      	ldr	r0, [pc, #44]	; (8000dc0 <HAL_I2C_MspInit+0xb8>)
 8000d92:	f000 fef1 	bl	8001b78 <HAL_GPIO_Init>

    /* I2C3 clock enable */
    __HAL_RCC_I2C3_CLK_ENABLE();
 8000d96:	4b09      	ldr	r3, [pc, #36]	; (8000dbc <HAL_I2C_MspInit+0xb4>)
 8000d98:	6d9b      	ldr	r3, [r3, #88]	; 0x58
 8000d9a:	4a08      	ldr	r2, [pc, #32]	; (8000dbc <HAL_I2C_MspInit+0xb4>)
 8000d9c:	f443 0300 	orr.w	r3, r3, #8388608	; 0x800000
 8000da0:	6593      	str	r3, [r2, #88]	; 0x58
 8000da2:	4b06      	ldr	r3, [pc, #24]	; (8000dbc <HAL_I2C_MspInit+0xb4>)
 8000da4:	6d9b      	ldr	r3, [r3, #88]	; 0x58
 8000da6:	f403 0300 	and.w	r3, r3, #8388608	; 0x800000
 8000daa:	60fb      	str	r3, [r7, #12]
 8000dac:	68fb      	ldr	r3, [r7, #12]
  /* USER CODE BEGIN I2C3_MspInit 1 */

  /* USER CODE END I2C3_MspInit 1 */
  }
}
 8000dae:	bf00      	nop
 8000db0:	3790      	adds	r7, #144	; 0x90
 8000db2:	46bd      	mov	sp, r7
 8000db4:	bd80      	pop	{r7, pc}
 8000db6:	bf00      	nop
 8000db8:	40005c00 	.word	0x40005c00
 8000dbc:	40021000 	.word	0x40021000
 8000dc0:	48000800 	.word	0x48000800

08000dc4 <HAL_GPIO_EXTI_Callback>:
extern int ESP_READY;
extern int count;
uint8_t rx_buffer [512];
extern int Q_OK;

void HAL_GPIO_EXTI_Callback(uint16_t GPIO_Pin){
 8000dc4:	b580      	push	{r7, lr}
 8000dc6:	b082      	sub	sp, #8
 8000dc8:	af00      	add	r7, sp, #0
 8000dca:	4603      	mov	r3, r0
 8000dcc:	80fb      	strh	r3, [r7, #6]
	// Interrupcin desde el botn de la Shield
	if ((GPIO_Pin == B1_Pin/*GPIO_BOTON_Pin*/) && (estado==CONECTADO)){ //Ante interrupcin del botn, cambiar flag BTN a 1 cuando corresponda
 8000dce:	88fb      	ldrh	r3, [r7, #6]
 8000dd0:	f5b3 5f00 	cmp.w	r3, #8192	; 0x2000
 8000dd4:	d106      	bne.n	8000de4 <HAL_GPIO_EXTI_Callback+0x20>
 8000dd6:	4b08      	ldr	r3, [pc, #32]	; (8000df8 <HAL_GPIO_EXTI_Callback+0x34>)
 8000dd8:	781b      	ldrb	r3, [r3, #0]
 8000dda:	2b04      	cmp	r3, #4
 8000ddc:	d102      	bne.n	8000de4 <HAL_GPIO_EXTI_Callback+0x20>
		BTN=1;
 8000dde:	4b07      	ldr	r3, [pc, #28]	; (8000dfc <HAL_GPIO_EXTI_Callback+0x38>)
 8000de0:	2201      	movs	r2, #1
 8000de2:	601a      	str	r2, [r3, #0]
	}
	HAL_UART_Receive_IT(&huart1, (uint8_t*) &msg, 1);
 8000de4:	2201      	movs	r2, #1
 8000de6:	4906      	ldr	r1, [pc, #24]	; (8000e00 <HAL_GPIO_EXTI_Callback+0x3c>)
 8000de8:	4806      	ldr	r0, [pc, #24]	; (8000e04 <HAL_GPIO_EXTI_Callback+0x40>)
 8000dea:	f003 fd17 	bl	800481c <HAL_UART_Receive_IT>
}
 8000dee:	bf00      	nop
 8000df0:	3708      	adds	r7, #8
 8000df2:	46bd      	mov	sp, r7
 8000df4:	bd80      	pop	{r7, pc}
 8000df6:	bf00      	nop
 8000df8:	20000308 	.word	0x20000308
 8000dfc:	2000030c 	.word	0x2000030c
 8000e00:	20000310 	.word	0x20000310
 8000e04:	20000378 	.word	0x20000378

08000e08 <HAL_UART_RxCpltCallback>:


void HAL_UART_RxCpltCallback (UART_HandleTypeDef *huart)
{
 8000e08:	b580      	push	{r7, lr}
 8000e0a:	b082      	sub	sp, #8
 8000e0c:	af00      	add	r7, sp, #0
 8000e0e:	6078      	str	r0, [r7, #4]
 if(huart->Instance == USART1)
 8000e10:	687b      	ldr	r3, [r7, #4]
 8000e12:	681b      	ldr	r3, [r3, #0]
 8000e14:	4a94      	ldr	r2, [pc, #592]	; (8001068 <HAL_UART_RxCpltCallback+0x260>)
 8000e16:	4293      	cmp	r3, r2
 8000e18:	f040 811c 	bne.w	8001054 <HAL_UART_RxCpltCallback+0x24c>
 {
	 rx_buffer[count]=msg;
 8000e1c:	4b93      	ldr	r3, [pc, #588]	; (800106c <HAL_UART_RxCpltCallback+0x264>)
 8000e1e:	681b      	ldr	r3, [r3, #0]
 8000e20:	4a93      	ldr	r2, [pc, #588]	; (8001070 <HAL_UART_RxCpltCallback+0x268>)
 8000e22:	7811      	ldrb	r1, [r2, #0]
 8000e24:	4a93      	ldr	r2, [pc, #588]	; (8001074 <HAL_UART_RxCpltCallback+0x26c>)
 8000e26:	54d1      	strb	r1, [r2, r3]
	 count++;
 8000e28:	4b90      	ldr	r3, [pc, #576]	; (800106c <HAL_UART_RxCpltCallback+0x264>)
 8000e2a:	681b      	ldr	r3, [r3, #0]
 8000e2c:	3301      	adds	r3, #1
 8000e2e:	4a8f      	ldr	r2, [pc, #572]	; (800106c <HAL_UART_RxCpltCallback+0x264>)
 8000e30:	6013      	str	r3, [r2, #0]

	 if (strstr(rx_buffer,"WIFI DISCONNECT")!=NULL){
 8000e32:	4991      	ldr	r1, [pc, #580]	; (8001078 <HAL_UART_RxCpltCallback+0x270>)
 8000e34:	488f      	ldr	r0, [pc, #572]	; (8001074 <HAL_UART_RxCpltCallback+0x26c>)
 8000e36:	f005 f893 	bl	8005f60 <strstr>
 8000e3a:	4603      	mov	r3, r0
 8000e3c:	2b00      	cmp	r3, #0
 8000e3e:	d00e      	beq.n	8000e5e <HAL_UART_RxCpltCallback+0x56>
		 estado=PERDIO_CONEXION;
 8000e40:	4b8e      	ldr	r3, [pc, #568]	; (800107c <HAL_UART_RxCpltCallback+0x274>)
 8000e42:	2207      	movs	r2, #7
 8000e44:	701a      	strb	r2, [r3, #0]
		 disc=1;
 8000e46:	4b8e      	ldr	r3, [pc, #568]	; (8001080 <HAL_UART_RxCpltCallback+0x278>)
 8000e48:	2201      	movs	r2, #1
 8000e4a:	601a      	str	r2, [r3, #0]
		 count=0;
 8000e4c:	4b87      	ldr	r3, [pc, #540]	; (800106c <HAL_UART_RxCpltCallback+0x264>)
 8000e4e:	2200      	movs	r2, #0
 8000e50:	601a      	str	r2, [r3, #0]
		 memset(rx_buffer,'\0',sizeof(rx_buffer));
 8000e52:	f44f 7200 	mov.w	r2, #512	; 0x200
 8000e56:	2100      	movs	r1, #0
 8000e58:	4886      	ldr	r0, [pc, #536]	; (8001074 <HAL_UART_RxCpltCallback+0x26c>)
 8000e5a:	f005 f879 	bl	8005f50 <memset>
		 responder=3;
		count=0;
		memset(rx_buffer,'\0',sizeof(rx_buffer));
	 }*/

	 switch(estado){
 8000e5e:	4b87      	ldr	r3, [pc, #540]	; (800107c <HAL_UART_RxCpltCallback+0x274>)
 8000e60:	781b      	ldrb	r3, [r3, #0]
 8000e62:	2b08      	cmp	r3, #8
 8000e64:	f200 80f6 	bhi.w	8001054 <HAL_UART_RxCpltCallback+0x24c>
 8000e68:	a201      	add	r2, pc, #4	; (adr r2, 8000e70 <HAL_UART_RxCpltCallback+0x68>)
 8000e6a:	f852 f023 	ldr.w	pc, [r2, r3, lsl #2]
 8000e6e:	bf00      	nop
 8000e70:	08000e95 	.word	0x08000e95
 8000e74:	08000ef1 	.word	0x08000ef1
 8000e78:	08000f27 	.word	0x08000f27
 8000e7c:	08000f5d 	.word	0x08000f5d
 8000e80:	08000fc1 	.word	0x08000fc1
 8000e84:	08000fe1 	.word	0x08000fe1
 8000e88:	08000fd9 	.word	0x08000fd9
 8000e8c:	0800104d 	.word	0x0800104d
 8000e90:	08001045 	.word	0x08001045
	 	 case WAIT_ESP:
	 		if (strstr(rx_buffer,"ready")!=NULL){
 8000e94:	497b      	ldr	r1, [pc, #492]	; (8001084 <HAL_UART_RxCpltCallback+0x27c>)
 8000e96:	4877      	ldr	r0, [pc, #476]	; (8001074 <HAL_UART_RxCpltCallback+0x26c>)
 8000e98:	f005 f862 	bl	8005f60 <strstr>
 8000e9c:	4603      	mov	r3, r0
 8000e9e:	2b00      	cmp	r3, #0
 8000ea0:	d00e      	beq.n	8000ec0 <HAL_UART_RxCpltCallback+0xb8>
	 			ESP_OK=1;
 8000ea2:	4b79      	ldr	r3, [pc, #484]	; (8001088 <HAL_UART_RxCpltCallback+0x280>)
 8000ea4:	2201      	movs	r2, #1
 8000ea6:	601a      	str	r2, [r3, #0]
	 			estado=WAIT_ESP;
 8000ea8:	4b74      	ldr	r3, [pc, #464]	; (800107c <HAL_UART_RxCpltCallback+0x274>)
 8000eaa:	2200      	movs	r2, #0
 8000eac:	701a      	strb	r2, [r3, #0]
	 			count=0;
 8000eae:	4b6f      	ldr	r3, [pc, #444]	; (800106c <HAL_UART_RxCpltCallback+0x264>)
 8000eb0:	2200      	movs	r2, #0
 8000eb2:	601a      	str	r2, [r3, #0]
	 			memset(rx_buffer,'\0',sizeof(rx_buffer));
 8000eb4:	f44f 7200 	mov.w	r2, #512	; 0x200
 8000eb8:	2100      	movs	r1, #0
 8000eba:	486e      	ldr	r0, [pc, #440]	; (8001074 <HAL_UART_RxCpltCallback+0x26c>)
 8000ebc:	f005 f848 	bl	8005f50 <memset>
	 		}
			if (strstr(rx_buffer,"OK")!=NULL){
 8000ec0:	4972      	ldr	r1, [pc, #456]	; (800108c <HAL_UART_RxCpltCallback+0x284>)
 8000ec2:	486c      	ldr	r0, [pc, #432]	; (8001074 <HAL_UART_RxCpltCallback+0x26c>)
 8000ec4:	f005 f84c 	bl	8005f60 <strstr>
 8000ec8:	4603      	mov	r3, r0
 8000eca:	2b00      	cmp	r3, #0
 8000ecc:	d00c      	beq.n	8000ee8 <HAL_UART_RxCpltCallback+0xe0>
				estado=WAIT_ESP;
 8000ece:	4b6b      	ldr	r3, [pc, #428]	; (800107c <HAL_UART_RxCpltCallback+0x274>)
 8000ed0:	2200      	movs	r2, #0
 8000ed2:	701a      	strb	r2, [r3, #0]
				count=0;
 8000ed4:	4b65      	ldr	r3, [pc, #404]	; (800106c <HAL_UART_RxCpltCallback+0x264>)
 8000ed6:	2200      	movs	r2, #0
 8000ed8:	601a      	str	r2, [r3, #0]
				memset(rx_buffer,'\0',sizeof(rx_buffer));
 8000eda:	f44f 7200 	mov.w	r2, #512	; 0x200
 8000ede:	2100      	movs	r1, #0
 8000ee0:	4864      	ldr	r0, [pc, #400]	; (8001074 <HAL_UART_RxCpltCallback+0x26c>)
 8000ee2:	f005 f835 	bl	8005f50 <memset>
			}
	 		else{
	 			estado=WAIT_ESP;
	 		}
	 		break;
 8000ee6:	e0b5      	b.n	8001054 <HAL_UART_RxCpltCallback+0x24c>
	 			estado=WAIT_ESP;
 8000ee8:	4b64      	ldr	r3, [pc, #400]	; (800107c <HAL_UART_RxCpltCallback+0x274>)
 8000eea:	2200      	movs	r2, #0
 8000eec:	701a      	strb	r2, [r3, #0]
	 		break;
 8000eee:	e0b1      	b.n	8001054 <HAL_UART_RxCpltCallback+0x24c>
	 	 case QUERY_CONEXION:
			if (strstr(rx_buffer,"OK")!=NULL){
 8000ef0:	4966      	ldr	r1, [pc, #408]	; (800108c <HAL_UART_RxCpltCallback+0x284>)
 8000ef2:	4860      	ldr	r0, [pc, #384]	; (8001074 <HAL_UART_RxCpltCallback+0x26c>)
 8000ef4:	f005 f834 	bl	8005f60 <strstr>
 8000ef8:	4603      	mov	r3, r0
 8000efa:	2b00      	cmp	r3, #0
 8000efc:	d00f      	beq.n	8000f1e <HAL_UART_RxCpltCallback+0x116>
				Q_OK=1;
 8000efe:	4b64      	ldr	r3, [pc, #400]	; (8001090 <HAL_UART_RxCpltCallback+0x288>)
 8000f00:	2201      	movs	r2, #1
 8000f02:	601a      	str	r2, [r3, #0]
				count=0;
 8000f04:	4b59      	ldr	r3, [pc, #356]	; (800106c <HAL_UART_RxCpltCallback+0x264>)
 8000f06:	2200      	movs	r2, #0
 8000f08:	601a      	str	r2, [r3, #0]
				estado=QUERY_CONEXION;
 8000f0a:	4b5c      	ldr	r3, [pc, #368]	; (800107c <HAL_UART_RxCpltCallback+0x274>)
 8000f0c:	2201      	movs	r2, #1
 8000f0e:	701a      	strb	r2, [r3, #0]
				memset(rx_buffer,'\0',sizeof(rx_buffer));
 8000f10:	f44f 7200 	mov.w	r2, #512	; 0x200
 8000f14:	2100      	movs	r1, #0
 8000f16:	4857      	ldr	r0, [pc, #348]	; (8001074 <HAL_UART_RxCpltCallback+0x26c>)
 8000f18:	f005 f81a 	bl	8005f50 <memset>
			}
			else{
				estado=QUERY_CONEXION;
			}
	 		 break;
 8000f1c:	e09a      	b.n	8001054 <HAL_UART_RxCpltCallback+0x24c>
				estado=QUERY_CONEXION;
 8000f1e:	4b57      	ldr	r3, [pc, #348]	; (800107c <HAL_UART_RxCpltCallback+0x274>)
 8000f20:	2201      	movs	r2, #1
 8000f22:	701a      	strb	r2, [r3, #0]
	 		 break;
 8000f24:	e096      	b.n	8001054 <HAL_UART_RxCpltCallback+0x24c>
	 	 case WAIT_OK_ESP:
	 		if (strstr(rx_buffer,"OK")!=NULL){
 8000f26:	4959      	ldr	r1, [pc, #356]	; (800108c <HAL_UART_RxCpltCallback+0x284>)
 8000f28:	4852      	ldr	r0, [pc, #328]	; (8001074 <HAL_UART_RxCpltCallback+0x26c>)
 8000f2a:	f005 f819 	bl	8005f60 <strstr>
 8000f2e:	4603      	mov	r3, r0
 8000f30:	2b00      	cmp	r3, #0
 8000f32:	d00f      	beq.n	8000f54 <HAL_UART_RxCpltCallback+0x14c>
				ESP_READY=1;
 8000f34:	4b57      	ldr	r3, [pc, #348]	; (8001094 <HAL_UART_RxCpltCallback+0x28c>)
 8000f36:	2201      	movs	r2, #1
 8000f38:	601a      	str	r2, [r3, #0]
				count=0;
 8000f3a:	4b4c      	ldr	r3, [pc, #304]	; (800106c <HAL_UART_RxCpltCallback+0x264>)
 8000f3c:	2200      	movs	r2, #0
 8000f3e:	601a      	str	r2, [r3, #0]
				estado=WAIT_OK_ESP;
 8000f40:	4b4e      	ldr	r3, [pc, #312]	; (800107c <HAL_UART_RxCpltCallback+0x274>)
 8000f42:	2202      	movs	r2, #2
 8000f44:	701a      	strb	r2, [r3, #0]
				memset(rx_buffer,'\0',sizeof(rx_buffer));
 8000f46:	f44f 7200 	mov.w	r2, #512	; 0x200
 8000f4a:	2100      	movs	r1, #0
 8000f4c:	4849      	ldr	r0, [pc, #292]	; (8001074 <HAL_UART_RxCpltCallback+0x26c>)
 8000f4e:	f004 ffff 	bl	8005f50 <memset>
	 		}
	 		else{
	 			estado=WAIT_OK_ESP;
	 		}

	 		break;
 8000f52:	e07f      	b.n	8001054 <HAL_UART_RxCpltCallback+0x24c>
	 			estado=WAIT_OK_ESP;
 8000f54:	4b49      	ldr	r3, [pc, #292]	; (800107c <HAL_UART_RxCpltCallback+0x274>)
 8000f56:	2202      	movs	r2, #2
 8000f58:	701a      	strb	r2, [r3, #0]
	 		break;
 8000f5a:	e07b      	b.n	8001054 <HAL_UART_RxCpltCallback+0x24c>
	 	case ESTABLECER_CONEXION_WI_FI:
	 		if (strstr(rx_buffer,"OK")!=NULL){
 8000f5c:	494b      	ldr	r1, [pc, #300]	; (800108c <HAL_UART_RxCpltCallback+0x284>)
 8000f5e:	4845      	ldr	r0, [pc, #276]	; (8001074 <HAL_UART_RxCpltCallback+0x26c>)
 8000f60:	f004 fffe 	bl	8005f60 <strstr>
 8000f64:	4603      	mov	r3, r0
 8000f66:	2b00      	cmp	r3, #0
 8000f68:	d00f      	beq.n	8000f8a <HAL_UART_RxCpltCallback+0x182>
	 			esp_connect=OK;
 8000f6a:	4b4b      	ldr	r3, [pc, #300]	; (8001098 <HAL_UART_RxCpltCallback+0x290>)
 8000f6c:	2200      	movs	r2, #0
 8000f6e:	701a      	strb	r2, [r3, #0]
	 			estado=ESTABLECER_CONEXION_WI_FI;
 8000f70:	4b42      	ldr	r3, [pc, #264]	; (800107c <HAL_UART_RxCpltCallback+0x274>)
 8000f72:	2203      	movs	r2, #3
 8000f74:	701a      	strb	r2, [r3, #0]
				count=0;
 8000f76:	4b3d      	ldr	r3, [pc, #244]	; (800106c <HAL_UART_RxCpltCallback+0x264>)
 8000f78:	2200      	movs	r2, #0
 8000f7a:	601a      	str	r2, [r3, #0]
				memset(rx_buffer,'\0',sizeof(rx_buffer));
 8000f7c:	f44f 7200 	mov.w	r2, #512	; 0x200
 8000f80:	2100      	movs	r1, #0
 8000f82:	483c      	ldr	r0, [pc, #240]	; (8001074 <HAL_UART_RxCpltCallback+0x26c>)
 8000f84:	f004 ffe4 	bl	8005f50 <memset>
				memset(rx_buffer,'\0',sizeof(rx_buffer));
	 		}
	 		else{
	 			estado=ESTABLECER_CONEXION_WI_FI;
	 		}
	 		break;
 8000f88:	e064      	b.n	8001054 <HAL_UART_RxCpltCallback+0x24c>
	 		else if (strstr(rx_buffer,"ERROR")!=NULL){
 8000f8a:	4944      	ldr	r1, [pc, #272]	; (800109c <HAL_UART_RxCpltCallback+0x294>)
 8000f8c:	4839      	ldr	r0, [pc, #228]	; (8001074 <HAL_UART_RxCpltCallback+0x26c>)
 8000f8e:	f004 ffe7 	bl	8005f60 <strstr>
 8000f92:	4603      	mov	r3, r0
 8000f94:	2b00      	cmp	r3, #0
 8000f96:	d00f      	beq.n	8000fb8 <HAL_UART_RxCpltCallback+0x1b0>
	 			esp_connect=FAIL;
 8000f98:	4b3f      	ldr	r3, [pc, #252]	; (8001098 <HAL_UART_RxCpltCallback+0x290>)
 8000f9a:	2201      	movs	r2, #1
 8000f9c:	701a      	strb	r2, [r3, #0]
	 			estado=ESTABLECER_CONEXION_WI_FI;
 8000f9e:	4b37      	ldr	r3, [pc, #220]	; (800107c <HAL_UART_RxCpltCallback+0x274>)
 8000fa0:	2203      	movs	r2, #3
 8000fa2:	701a      	strb	r2, [r3, #0]
				count=0;
 8000fa4:	4b31      	ldr	r3, [pc, #196]	; (800106c <HAL_UART_RxCpltCallback+0x264>)
 8000fa6:	2200      	movs	r2, #0
 8000fa8:	601a      	str	r2, [r3, #0]
				memset(rx_buffer,'\0',sizeof(rx_buffer));
 8000faa:	f44f 7200 	mov.w	r2, #512	; 0x200
 8000fae:	2100      	movs	r1, #0
 8000fb0:	4830      	ldr	r0, [pc, #192]	; (8001074 <HAL_UART_RxCpltCallback+0x26c>)
 8000fb2:	f004 ffcd 	bl	8005f50 <memset>
	 		break;
 8000fb6:	e04d      	b.n	8001054 <HAL_UART_RxCpltCallback+0x24c>
	 			estado=ESTABLECER_CONEXION_WI_FI;
 8000fb8:	4b30      	ldr	r3, [pc, #192]	; (800107c <HAL_UART_RxCpltCallback+0x274>)
 8000fba:	2203      	movs	r2, #3
 8000fbc:	701a      	strb	r2, [r3, #0]
	 		break;
 8000fbe:	e049      	b.n	8001054 <HAL_UART_RxCpltCallback+0x24c>
	 	case CONECTADO:
	 		if (disc==1){
 8000fc0:	4b2f      	ldr	r3, [pc, #188]	; (8001080 <HAL_UART_RxCpltCallback+0x278>)
 8000fc2:	681b      	ldr	r3, [r3, #0]
 8000fc4:	2b01      	cmp	r3, #1
 8000fc6:	d103      	bne.n	8000fd0 <HAL_UART_RxCpltCallback+0x1c8>
	 		estado=ESTABLECER_CONEXION_WI_FI;
 8000fc8:	4b2c      	ldr	r3, [pc, #176]	; (800107c <HAL_UART_RxCpltCallback+0x274>)
 8000fca:	2203      	movs	r2, #3
 8000fcc:	701a      	strb	r2, [r3, #0]
	 		}
	 		else{
	 			estado=CONECTADO;
	 		}
	 		break;
 8000fce:	e041      	b.n	8001054 <HAL_UART_RxCpltCallback+0x24c>
	 			estado=CONECTADO;
 8000fd0:	4b2a      	ldr	r3, [pc, #168]	; (800107c <HAL_UART_RxCpltCallback+0x274>)
 8000fd2:	2204      	movs	r2, #4
 8000fd4:	701a      	strb	r2, [r3, #0]
	 		break;
 8000fd6:	e03d      	b.n	8001054 <HAL_UART_RxCpltCallback+0x24c>
	 	case ENVIAR_DATOS:
	 		estado=ENVIAR_DATOS;
 8000fd8:	4b28      	ldr	r3, [pc, #160]	; (800107c <HAL_UART_RxCpltCallback+0x274>)
 8000fda:	2206      	movs	r2, #6
 8000fdc:	701a      	strb	r2, [r3, #0]
	 		break;
 8000fde:	e039      	b.n	8001054 <HAL_UART_RxCpltCallback+0x24c>
	 	case WAIT_ENVIAR_DATOS:
			if (strstr(rx_buffer,"OK")!=NULL){
 8000fe0:	492a      	ldr	r1, [pc, #168]	; (800108c <HAL_UART_RxCpltCallback+0x284>)
 8000fe2:	4824      	ldr	r0, [pc, #144]	; (8001074 <HAL_UART_RxCpltCallback+0x26c>)
 8000fe4:	f004 ffbc 	bl	8005f60 <strstr>
 8000fe8:	4603      	mov	r3, r0
 8000fea:	2b00      	cmp	r3, #0
 8000fec:	d00f      	beq.n	800100e <HAL_UART_RxCpltCallback+0x206>
				esp_envio=OK;
 8000fee:	4b2c      	ldr	r3, [pc, #176]	; (80010a0 <HAL_UART_RxCpltCallback+0x298>)
 8000ff0:	2200      	movs	r2, #0
 8000ff2:	701a      	strb	r2, [r3, #0]
				count=0;
 8000ff4:	4b1d      	ldr	r3, [pc, #116]	; (800106c <HAL_UART_RxCpltCallback+0x264>)
 8000ff6:	2200      	movs	r2, #0
 8000ff8:	601a      	str	r2, [r3, #0]
				estado=WAIT_ENVIAR_DATOS;
 8000ffa:	4b20      	ldr	r3, [pc, #128]	; (800107c <HAL_UART_RxCpltCallback+0x274>)
 8000ffc:	2205      	movs	r2, #5
 8000ffe:	701a      	strb	r2, [r3, #0]
				memset(rx_buffer,'\0',sizeof(rx_buffer));
 8001000:	f44f 7200 	mov.w	r2, #512	; 0x200
 8001004:	2100      	movs	r1, #0
 8001006:	481b      	ldr	r0, [pc, #108]	; (8001074 <HAL_UART_RxCpltCallback+0x26c>)
 8001008:	f004 ffa2 	bl	8005f50 <memset>
			}
			else{
				estado=WAIT_ENVIAR_DATOS;
			}
			//no entend estado de else if (BTN)
			break;
 800100c:	e022      	b.n	8001054 <HAL_UART_RxCpltCallback+0x24c>
			else if (strstr(rx_buffer,"ERROR")!=NULL){
 800100e:	4923      	ldr	r1, [pc, #140]	; (800109c <HAL_UART_RxCpltCallback+0x294>)
 8001010:	4818      	ldr	r0, [pc, #96]	; (8001074 <HAL_UART_RxCpltCallback+0x26c>)
 8001012:	f004 ffa5 	bl	8005f60 <strstr>
 8001016:	4603      	mov	r3, r0
 8001018:	2b00      	cmp	r3, #0
 800101a:	d00f      	beq.n	800103c <HAL_UART_RxCpltCallback+0x234>
				esp_envio=FAIL;
 800101c:	4b20      	ldr	r3, [pc, #128]	; (80010a0 <HAL_UART_RxCpltCallback+0x298>)
 800101e:	2201      	movs	r2, #1
 8001020:	701a      	strb	r2, [r3, #0]
				count=0;
 8001022:	4b12      	ldr	r3, [pc, #72]	; (800106c <HAL_UART_RxCpltCallback+0x264>)
 8001024:	2200      	movs	r2, #0
 8001026:	601a      	str	r2, [r3, #0]
				estado=WAIT_ENVIAR_DATOS;
 8001028:	4b14      	ldr	r3, [pc, #80]	; (800107c <HAL_UART_RxCpltCallback+0x274>)
 800102a:	2205      	movs	r2, #5
 800102c:	701a      	strb	r2, [r3, #0]
				memset(rx_buffer,'\0',sizeof(rx_buffer));
 800102e:	f44f 7200 	mov.w	r2, #512	; 0x200
 8001032:	2100      	movs	r1, #0
 8001034:	480f      	ldr	r0, [pc, #60]	; (8001074 <HAL_UART_RxCpltCallback+0x26c>)
 8001036:	f004 ff8b 	bl	8005f50 <memset>
			break;
 800103a:	e00b      	b.n	8001054 <HAL_UART_RxCpltCallback+0x24c>
				estado=WAIT_ENVIAR_DATOS;
 800103c:	4b0f      	ldr	r3, [pc, #60]	; (800107c <HAL_UART_RxCpltCallback+0x274>)
 800103e:	2205      	movs	r2, #5
 8001040:	701a      	strb	r2, [r3, #0]
			break;
 8001042:	e007      	b.n	8001054 <HAL_UART_RxCpltCallback+0x24c>
	 	case FALLO_CONEXION:
	 		estado=FALLO_CONEXION;
 8001044:	4b0d      	ldr	r3, [pc, #52]	; (800107c <HAL_UART_RxCpltCallback+0x274>)
 8001046:	2208      	movs	r2, #8
 8001048:	701a      	strb	r2, [r3, #0]
	 		break;
 800104a:	e003      	b.n	8001054 <HAL_UART_RxCpltCallback+0x24c>
	 	case PERDIO_CONEXION:
	 		estado=PERDIO_CONEXION;
 800104c:	4b0b      	ldr	r3, [pc, #44]	; (800107c <HAL_UART_RxCpltCallback+0x274>)
 800104e:	2207      	movs	r2, #7
 8001050:	701a      	strb	r2, [r3, #0]
	 		break;
 8001052:	bf00      	nop
	 		 memset(rx_buffer,'\0',sizeof(rx_buffer));
	 	 }
*/

 }
 HAL_UART_Receive_IT(&huart1, (uint8_t*) &msg, 1); //activate UART receive interrupt
 8001054:	2201      	movs	r2, #1
 8001056:	4906      	ldr	r1, [pc, #24]	; (8001070 <HAL_UART_RxCpltCallback+0x268>)
 8001058:	4812      	ldr	r0, [pc, #72]	; (80010a4 <HAL_UART_RxCpltCallback+0x29c>)
 800105a:	f003 fbdf 	bl	800481c <HAL_UART_Receive_IT>

}
 800105e:	bf00      	nop
 8001060:	3708      	adds	r7, #8
 8001062:	46bd      	mov	sp, r7
 8001064:	bd80      	pop	{r7, pc}
 8001066:	bf00      	nop
 8001068:	40013800 	.word	0x40013800
 800106c:	20000320 	.word	0x20000320
 8001070:	20000310 	.word	0x20000310
 8001074:	200000d0 	.word	0x200000d0
 8001078:	0800689c 	.word	0x0800689c
 800107c:	20000308 	.word	0x20000308
 8001080:	20000314 	.word	0x20000314
 8001084:	080068ac 	.word	0x080068ac
 8001088:	20000318 	.word	0x20000318
 800108c:	080068b4 	.word	0x080068b4
 8001090:	20000324 	.word	0x20000324
 8001094:	2000031c 	.word	0x2000031c
 8001098:	20000000 	.word	0x20000000
 800109c:	080068b8 	.word	0x080068b8
 80010a0:	20000001 	.word	0x20000001
 80010a4:	20000378 	.word	0x20000378

080010a8 <main>:
/**
  * @brief  The application entry point.
  * @retval int
  */
int main(void)
{
 80010a8:	b580      	push	{r7, lr}
 80010aa:	b08e      	sub	sp, #56	; 0x38
 80010ac:	af00      	add	r7, sp, #0
  /* USER CODE BEGIN 1 */
	//enum ESTADO estado=WAIT_ESP;		//Variable que identifica el estado del sistema (FSM).
	int intentos=0;						//Contador de intentos de conexin.
 80010ae:	2300      	movs	r3, #0
 80010b0:	627b      	str	r3, [r7, #36]	; 0x24
	uint32_t timeout=0;
 80010b2:	2300      	movs	r3, #0
 80010b4:	623b      	str	r3, [r7, #32]
	uint32_t DELAY = 2000;
 80010b6:	f44f 63fa 	mov.w	r3, #2000	; 0x7d0
 80010ba:	62bb      	str	r3, [r7, #40]	; 0x28
							//1 para ESP lista para trabajar, 0 eoc.
	//int BTN=0;							//1 si se resion el botn, 0 eoc.
	int reconexion=0;					//1 si se intenta reconexin, 0 eoc.
 80010bc:	2300      	movs	r3, #0
 80010be:	62fb      	str	r3, [r7, #44]	; 0x2c
	chg_led_state(leds);				//al iniciar el sistema se apagan los leds (estado de WAIT_ESP)
 80010c0:	4b2b      	ldr	r3, [pc, #172]	; (8001170 <main+0xc8>)
 80010c2:	781b      	ldrb	r3, [r3, #0]
 80010c4:	4618      	mov	r0, r3
 80010c6:	f7ff fce3 	bl	8000a90 <chg_led_state>
	/* USER CODE END 1 */

  /* MCU Configuration--------------------------------------------------------*/

  /* Reset of all peripherals, Initializes the Flash interface and the Systick. */
  HAL_Init();
 80010ca:	f000 fb25 	bl	8001718 <HAL_Init>


  /* USER CODE END Init */

  /* Configure the system clock */
  SystemClock_Config();
 80010ce:	f000 f85b 	bl	8001188 <SystemClock_Config>
  /* USER CODE BEGIN SysInit */

  /* USER CODE END SysInit */

  /* Initialize all configured peripherals */
  MX_GPIO_Init();
 80010d2:	f7ff fd25 	bl	8000b20 <MX_GPIO_Init>
  MX_USART2_UART_Init();
 80010d6:	f000 fa13 	bl	8001500 <MX_USART2_UART_Init>
  MX_I2C3_Init();
 80010da:	f7ff fdd5 	bl	8000c88 <MX_I2C3_Init>
  MX_TIM3_Init();
 80010de:	f000 f969 	bl	80013b4 <MX_TIM3_Init>
  MX_USART1_UART_Init();
 80010e2:	f000 f9dd 	bl	80014a0 <MX_USART1_UART_Init>
   */
  char msg[MSG_SIZE];
  float luminosidad;
  int luminosidad_int;

  GB_APDS9306_initialize(&APDS9306_Module);
 80010e6:	4823      	ldr	r0, [pc, #140]	; (8001174 <main+0xcc>)
 80010e8:	f7ff fc36 	bl	8000958 <GB_APDS9306_initialize>
  GB_APDS9306_Configuration(&APDS9306_Module);
 80010ec:	4821      	ldr	r0, [pc, #132]	; (8001174 <main+0xcc>)
 80010ee:	f7ff fc51 	bl	8000994 <GB_APDS9306_Configuration>
  // Mensaje de bienvenida
  HAL_UART_Transmit_IT(&huart2, (uint8_t*) SENSOR_TEST_WELCOME_MSG, strlen(SENSOR_TEST_WELCOME_MSG));
 80010f2:	2258      	movs	r2, #88	; 0x58
 80010f4:	4920      	ldr	r1, [pc, #128]	; (8001178 <main+0xd0>)
 80010f6:	4821      	ldr	r0, [pc, #132]	; (800117c <main+0xd4>)
 80010f8:	f003 fb32 	bl	8004760 <HAL_UART_Transmit_IT>

  // Obtener ID y mandarla
  sprintf(msg, "ID f: %02X\n",APDS9306_Module.PART_ID);
 80010fc:	4b1d      	ldr	r3, [pc, #116]	; (8001174 <main+0xcc>)
 80010fe:	785b      	ldrb	r3, [r3, #1]
 8001100:	461a      	mov	r2, r3
 8001102:	463b      	mov	r3, r7
 8001104:	491e      	ldr	r1, [pc, #120]	; (8001180 <main+0xd8>)
 8001106:	4618      	mov	r0, r3
 8001108:	f004 ff02 	bl	8005f10 <siprintf>
  HAL_UART_Transmit_IT(&huart2, (uint8_t*) msg, strlen(msg));
 800110c:	463b      	mov	r3, r7
 800110e:	4618      	mov	r0, r3
 8001110:	f7ff f866 	bl	80001e0 <strlen>
 8001114:	4603      	mov	r3, r0
 8001116:	b29a      	uxth	r2, r3
 8001118:	463b      	mov	r3, r7
 800111a:	4619      	mov	r1, r3
 800111c:	4817      	ldr	r0, [pc, #92]	; (800117c <main+0xd4>)
 800111e:	f003 fb1f 	bl	8004760 <HAL_UART_Transmit_IT>

  // Loop infinito: Tomar mediciones cada 1 segundo permanentemente
  while(1){
	  // Obtener medicin
	  GB_APDS9306_Get_Data(&APDS9306_Module);
 8001122:	4814      	ldr	r0, [pc, #80]	; (8001174 <main+0xcc>)
 8001124:	f7ff fca6 	bl	8000a74 <GB_APDS9306_Get_Data>

	  // Truco para mostrarlo como INT para evitar reconfigurar MCU
	  luminosidad = APDS9306_Module.LUMINOSITY;
 8001128:	4b12      	ldr	r3, [pc, #72]	; (8001174 <main+0xcc>)
 800112a:	6b5b      	ldr	r3, [r3, #52]	; 0x34
 800112c:	633b      	str	r3, [r7, #48]	; 0x30
      luminosidad_int = luminosidad*10;
 800112e:	edd7 7a0c 	vldr	s15, [r7, #48]	; 0x30
 8001132:	eeb2 7a04 	vmov.f32	s14, #36	; 0x41200000  10.0
 8001136:	ee67 7a87 	vmul.f32	s15, s15, s14
 800113a:	eefd 7ae7 	vcvt.s32.f32	s15, s15
 800113e:	ee17 3a90 	vmov	r3, s15
 8001142:	637b      	str	r3, [r7, #52]	; 0x34

      // Generar mensaje y enviarlo por UART2
      sprintf(msg, "Medicin: %d\n",luminosidad_int);
 8001144:	463b      	mov	r3, r7
 8001146:	6b7a      	ldr	r2, [r7, #52]	; 0x34
 8001148:	490e      	ldr	r1, [pc, #56]	; (8001184 <main+0xdc>)
 800114a:	4618      	mov	r0, r3
 800114c:	f004 fee0 	bl	8005f10 <siprintf>
      HAL_UART_Transmit_IT(&huart2, (uint8_t*) msg, strlen(msg));
 8001150:	463b      	mov	r3, r7
 8001152:	4618      	mov	r0, r3
 8001154:	f7ff f844 	bl	80001e0 <strlen>
 8001158:	4603      	mov	r3, r0
 800115a:	b29a      	uxth	r2, r3
 800115c:	463b      	mov	r3, r7
 800115e:	4619      	mov	r1, r3
 8001160:	4806      	ldr	r0, [pc, #24]	; (800117c <main+0xd4>)
 8001162:	f003 fafd 	bl	8004760 <HAL_UART_Transmit_IT>
      HAL_Delay(DELAY_1S);
 8001166:	f44f 707a 	mov.w	r0, #1000	; 0x3e8
 800116a:	f000 fb51 	bl	8001810 <HAL_Delay>
	  GB_APDS9306_Get_Data(&APDS9306_Module);
 800116e:	e7d8      	b.n	8001122 <main+0x7a>
 8001170:	20000002 	.word	0x20000002
 8001174:	200002d0 	.word	0x200002d0
 8001178:	080068c0 	.word	0x080068c0
 800117c:	20000400 	.word	0x20000400
 8001180:	0800691c 	.word	0x0800691c
 8001184:	08006928 	.word	0x08006928

08001188 <SystemClock_Config>:
/**
  * @brief System Clock Configuration
  * @retval None
  */
void SystemClock_Config(void)
{
 8001188:	b580      	push	{r7, lr}
 800118a:	b096      	sub	sp, #88	; 0x58
 800118c:	af00      	add	r7, sp, #0
  RCC_OscInitTypeDef RCC_OscInitStruct = {0};
 800118e:	f107 0314 	add.w	r3, r7, #20
 8001192:	2244      	movs	r2, #68	; 0x44
 8001194:	2100      	movs	r1, #0
 8001196:	4618      	mov	r0, r3
 8001198:	f004 feda 	bl	8005f50 <memset>
  RCC_ClkInitTypeDef RCC_ClkInitStruct = {0};
 800119c:	463b      	mov	r3, r7
 800119e:	2200      	movs	r2, #0
 80011a0:	601a      	str	r2, [r3, #0]
 80011a2:	605a      	str	r2, [r3, #4]
 80011a4:	609a      	str	r2, [r3, #8]
 80011a6:	60da      	str	r2, [r3, #12]
 80011a8:	611a      	str	r2, [r3, #16]

  /** Configure the main internal regulator output voltage
  */
  if (HAL_PWREx_ControlVoltageScaling(PWR_REGULATOR_VOLTAGE_SCALE1) != HAL_OK)
 80011aa:	f44f 7000 	mov.w	r0, #512	; 0x200
 80011ae:	f001 fcb5 	bl	8002b1c <HAL_PWREx_ControlVoltageScaling>
 80011b2:	4603      	mov	r3, r0
 80011b4:	2b00      	cmp	r3, #0
 80011b6:	d001      	beq.n	80011bc <SystemClock_Config+0x34>
  {
    Error_Handler();
 80011b8:	f000 f837 	bl	800122a <Error_Handler>
  }

  /** Initializes the RCC Oscillators according to the specified parameters
  * in the RCC_OscInitTypeDef structure.
  */
  RCC_OscInitStruct.OscillatorType = RCC_OSCILLATORTYPE_HSI;
 80011bc:	2302      	movs	r3, #2
 80011be:	617b      	str	r3, [r7, #20]
  RCC_OscInitStruct.HSIState = RCC_HSI_ON;
 80011c0:	f44f 7380 	mov.w	r3, #256	; 0x100
 80011c4:	623b      	str	r3, [r7, #32]
  RCC_OscInitStruct.HSICalibrationValue = RCC_HSICALIBRATION_DEFAULT;
 80011c6:	2340      	movs	r3, #64	; 0x40
 80011c8:	627b      	str	r3, [r7, #36]	; 0x24
  RCC_OscInitStruct.PLL.PLLState = RCC_PLL_ON;
 80011ca:	2302      	movs	r3, #2
 80011cc:	63fb      	str	r3, [r7, #60]	; 0x3c
  RCC_OscInitStruct.PLL.PLLSource = RCC_PLLSOURCE_HSI;
 80011ce:	2302      	movs	r3, #2
 80011d0:	643b      	str	r3, [r7, #64]	; 0x40
  RCC_OscInitStruct.PLL.PLLM = 1;
 80011d2:	2301      	movs	r3, #1
 80011d4:	647b      	str	r3, [r7, #68]	; 0x44
  RCC_OscInitStruct.PLL.PLLN = 10;
 80011d6:	230a      	movs	r3, #10
 80011d8:	64bb      	str	r3, [r7, #72]	; 0x48
  RCC_OscInitStruct.PLL.PLLP = RCC_PLLP_DIV7;
 80011da:	2307      	movs	r3, #7
 80011dc:	64fb      	str	r3, [r7, #76]	; 0x4c
  RCC_OscInitStruct.PLL.PLLQ = RCC_PLLQ_DIV2;
 80011de:	2302      	movs	r3, #2
 80011e0:	653b      	str	r3, [r7, #80]	; 0x50
  RCC_OscInitStruct.PLL.PLLR = RCC_PLLR_DIV2;
 80011e2:	2302      	movs	r3, #2
 80011e4:	657b      	str	r3, [r7, #84]	; 0x54
  if (HAL_RCC_OscConfig(&RCC_OscInitStruct) != HAL_OK)
 80011e6:	f107 0314 	add.w	r3, r7, #20
 80011ea:	4618      	mov	r0, r3
 80011ec:	f001 fcec 	bl	8002bc8 <HAL_RCC_OscConfig>
 80011f0:	4603      	mov	r3, r0
 80011f2:	2b00      	cmp	r3, #0
 80011f4:	d001      	beq.n	80011fa <SystemClock_Config+0x72>
  {
    Error_Handler();
 80011f6:	f000 f818 	bl	800122a <Error_Handler>
  }

  /** Initializes the CPU, AHB and APB buses clocks
  */
  RCC_ClkInitStruct.ClockType = RCC_CLOCKTYPE_HCLK|RCC_CLOCKTYPE_SYSCLK
 80011fa:	230f      	movs	r3, #15
 80011fc:	603b      	str	r3, [r7, #0]
                              |RCC_CLOCKTYPE_PCLK1|RCC_CLOCKTYPE_PCLK2;
  RCC_ClkInitStruct.SYSCLKSource = RCC_SYSCLKSOURCE_PLLCLK;
 80011fe:	2303      	movs	r3, #3
 8001200:	607b      	str	r3, [r7, #4]
  RCC_ClkInitStruct.AHBCLKDivider = RCC_SYSCLK_DIV1;
 8001202:	2300      	movs	r3, #0
 8001204:	60bb      	str	r3, [r7, #8]
  RCC_ClkInitStruct.APB1CLKDivider = RCC_HCLK_DIV1;
 8001206:	2300      	movs	r3, #0
 8001208:	60fb      	str	r3, [r7, #12]
  RCC_ClkInitStruct.APB2CLKDivider = RCC_HCLK_DIV1;
 800120a:	2300      	movs	r3, #0
 800120c:	613b      	str	r3, [r7, #16]

  if (HAL_RCC_ClockConfig(&RCC_ClkInitStruct, FLASH_LATENCY_4) != HAL_OK)
 800120e:	463b      	mov	r3, r7
 8001210:	2104      	movs	r1, #4
 8001212:	4618      	mov	r0, r3
 8001214:	f002 f8ec 	bl	80033f0 <HAL_RCC_ClockConfig>
 8001218:	4603      	mov	r3, r0
 800121a:	2b00      	cmp	r3, #0
 800121c:	d001      	beq.n	8001222 <SystemClock_Config+0x9a>
  {
    Error_Handler();
 800121e:	f000 f804 	bl	800122a <Error_Handler>
  }
}
 8001222:	bf00      	nop
 8001224:	3758      	adds	r7, #88	; 0x58
 8001226:	46bd      	mov	sp, r7
 8001228:	bd80      	pop	{r7, pc}

0800122a <Error_Handler>:
/**
  * @brief  This function is executed in case of error occurrence.
  * @retval None
  */
void Error_Handler(void)
{
 800122a:	b480      	push	{r7}
 800122c:	af00      	add	r7, sp, #0
  \details Disables IRQ interrupts by setting the I-bit in the CPSR.
           Can only be executed in Privileged modes.
 */
__STATIC_FORCEINLINE void __disable_irq(void)
{
  __ASM volatile ("cpsid i" : : : "memory");
 800122e:	b672      	cpsid	i
}
 8001230:	bf00      	nop
  /* USER CODE BEGIN Error_Handler_Debug */
  /* User can add his own implementation to report the HAL error return state */
  __disable_irq();
  while (1)
 8001232:	e7fe      	b.n	8001232 <Error_Handler+0x8>

08001234 <HAL_MspInit>:
/* USER CODE END 0 */
/**
  * Initializes the Global MSP.
  */
void HAL_MspInit(void)
{
 8001234:	b480      	push	{r7}
 8001236:	b083      	sub	sp, #12
 8001238:	af00      	add	r7, sp, #0
  /* USER CODE BEGIN MspInit 0 */

  /* USER CODE END MspInit 0 */

  __HAL_RCC_SYSCFG_CLK_ENABLE();
 800123a:	4b0f      	ldr	r3, [pc, #60]	; (8001278 <HAL_MspInit+0x44>)
 800123c:	6e1b      	ldr	r3, [r3, #96]	; 0x60
 800123e:	4a0e      	ldr	r2, [pc, #56]	; (8001278 <HAL_MspInit+0x44>)
 8001240:	f043 0301 	orr.w	r3, r3, #1
 8001244:	6613      	str	r3, [r2, #96]	; 0x60
 8001246:	4b0c      	ldr	r3, [pc, #48]	; (8001278 <HAL_MspInit+0x44>)
 8001248:	6e1b      	ldr	r3, [r3, #96]	; 0x60
 800124a:	f003 0301 	and.w	r3, r3, #1
 800124e:	607b      	str	r3, [r7, #4]
 8001250:	687b      	ldr	r3, [r7, #4]
  __HAL_RCC_PWR_CLK_ENABLE();
 8001252:	4b09      	ldr	r3, [pc, #36]	; (8001278 <HAL_MspInit+0x44>)
 8001254:	6d9b      	ldr	r3, [r3, #88]	; 0x58
 8001256:	4a08      	ldr	r2, [pc, #32]	; (8001278 <HAL_MspInit+0x44>)
 8001258:	f043 5380 	orr.w	r3, r3, #268435456	; 0x10000000
 800125c:	6593      	str	r3, [r2, #88]	; 0x58
 800125e:	4b06      	ldr	r3, [pc, #24]	; (8001278 <HAL_MspInit+0x44>)
 8001260:	6d9b      	ldr	r3, [r3, #88]	; 0x58
 8001262:	f003 5380 	and.w	r3, r3, #268435456	; 0x10000000
 8001266:	603b      	str	r3, [r7, #0]
 8001268:	683b      	ldr	r3, [r7, #0]
  /* System interrupt init*/

  /* USER CODE BEGIN MspInit 1 */

  /* USER CODE END MspInit 1 */
}
 800126a:	bf00      	nop
 800126c:	370c      	adds	r7, #12
 800126e:	46bd      	mov	sp, r7
 8001270:	f85d 7b04 	ldr.w	r7, [sp], #4
 8001274:	4770      	bx	lr
 8001276:	bf00      	nop
 8001278:	40021000 	.word	0x40021000

0800127c <NMI_Handler>:
/******************************************************************************/
/**
  * @brief This function handles Non maskable interrupt.
  */
void NMI_Handler(void)
{
 800127c:	b480      	push	{r7}
 800127e:	af00      	add	r7, sp, #0
  /* USER CODE BEGIN NonMaskableInt_IRQn 0 */

  /* USER CODE END NonMaskableInt_IRQn 0 */
  /* USER CODE BEGIN NonMaskableInt_IRQn 1 */
  while (1)
 8001280:	e7fe      	b.n	8001280 <NMI_Handler+0x4>

08001282 <HardFault_Handler>:

/**
  * @brief This function handles Hard fault interrupt.
  */
void HardFault_Handler(void)
{
 8001282:	b480      	push	{r7}
 8001284:	af00      	add	r7, sp, #0
  /* USER CODE BEGIN HardFault_IRQn 0 */

  /* USER CODE END HardFault_IRQn 0 */
  while (1)
 8001286:	e7fe      	b.n	8001286 <HardFault_Handler+0x4>

08001288 <MemManage_Handler>:

/**
  * @brief This function handles Memory management fault.
  */
void MemManage_Handler(void)
{
 8001288:	b480      	push	{r7}
 800128a:	af00      	add	r7, sp, #0
  /* USER CODE BEGIN MemoryManagement_IRQn 0 */

  /* USER CODE END MemoryManagement_IRQn 0 */
  while (1)
 800128c:	e7fe      	b.n	800128c <MemManage_Handler+0x4>

0800128e <BusFault_Handler>:

/**
  * @brief This function handles Prefetch fault, memory access fault.
  */
void BusFault_Handler(void)
{
 800128e:	b480      	push	{r7}
 8001290:	af00      	add	r7, sp, #0
  /* USER CODE BEGIN BusFault_IRQn 0 */

  /* USER CODE END BusFault_IRQn 0 */
  while (1)
 8001292:	e7fe      	b.n	8001292 <BusFault_Handler+0x4>

08001294 <UsageFault_Handler>:

/**
  * @brief This function handles Undefined instruction or illegal state.
  */
void UsageFault_Handler(void)
{
 8001294:	b480      	push	{r7}
 8001296:	af00      	add	r7, sp, #0
  /* USER CODE BEGIN UsageFault_IRQn 0 */

  /* USER CODE END UsageFault_IRQn 0 */
  while (1)
 8001298:	e7fe      	b.n	8001298 <UsageFault_Handler+0x4>

0800129a <SVC_Handler>:

/**
  * @brief This function handles System service call via SWI instruction.
  */
void SVC_Handler(void)
{
 800129a:	b480      	push	{r7}
 800129c:	af00      	add	r7, sp, #0

  /* USER CODE END SVCall_IRQn 0 */
  /* USER CODE BEGIN SVCall_IRQn 1 */

  /* USER CODE END SVCall_IRQn 1 */
}
 800129e:	bf00      	nop
 80012a0:	46bd      	mov	sp, r7
 80012a2:	f85d 7b04 	ldr.w	r7, [sp], #4
 80012a6:	4770      	bx	lr

080012a8 <DebugMon_Handler>:

/**
  * @brief This function handles Debug monitor.
  */
void DebugMon_Handler(void)
{
 80012a8:	b480      	push	{r7}
 80012aa:	af00      	add	r7, sp, #0

  /* USER CODE END DebugMonitor_IRQn 0 */
  /* USER CODE BEGIN DebugMonitor_IRQn 1 */

  /* USER CODE END DebugMonitor_IRQn 1 */
}
 80012ac:	bf00      	nop
 80012ae:	46bd      	mov	sp, r7
 80012b0:	f85d 7b04 	ldr.w	r7, [sp], #4
 80012b4:	4770      	bx	lr

080012b6 <PendSV_Handler>:

/**
  * @brief This function handles Pendable request for system service.
  */
void PendSV_Handler(void)
{
 80012b6:	b480      	push	{r7}
 80012b8:	af00      	add	r7, sp, #0

  /* USER CODE END PendSV_IRQn 0 */
  /* USER CODE BEGIN PendSV_IRQn 1 */

  /* USER CODE END PendSV_IRQn 1 */
}
 80012ba:	bf00      	nop
 80012bc:	46bd      	mov	sp, r7
 80012be:	f85d 7b04 	ldr.w	r7, [sp], #4
 80012c2:	4770      	bx	lr

080012c4 <SysTick_Handler>:

/**
  * @brief This function handles System tick timer.
  */
void SysTick_Handler(void)
{
 80012c4:	b580      	push	{r7, lr}
 80012c6:	af00      	add	r7, sp, #0
  /* USER CODE BEGIN SysTick_IRQn 0 */

  /* USER CODE END SysTick_IRQn 0 */
  HAL_IncTick();
 80012c8:	f000 fa82 	bl	80017d0 <HAL_IncTick>
  /* USER CODE BEGIN SysTick_IRQn 1 */

  /* USER CODE END SysTick_IRQn 1 */
}
 80012cc:	bf00      	nop
 80012ce:	bd80      	pop	{r7, pc}

080012d0 <TIM3_IRQHandler>:

/**
  * @brief This function handles TIM3 global interrupt.
  */
void TIM3_IRQHandler(void)
{
 80012d0:	b580      	push	{r7, lr}
 80012d2:	af00      	add	r7, sp, #0
  /* USER CODE BEGIN TIM3_IRQn 0 */

  /* USER CODE END TIM3_IRQn 0 */
  HAL_TIM_IRQHandler(&htim3);
 80012d4:	4802      	ldr	r0, [pc, #8]	; (80012e0 <TIM3_IRQHandler+0x10>)
 80012d6:	f002 fe64 	bl	8003fa2 <HAL_TIM_IRQHandler>
  /* USER CODE BEGIN TIM3_IRQn 1 */

  /* USER CODE END TIM3_IRQn 1 */
}
 80012da:	bf00      	nop
 80012dc:	bd80      	pop	{r7, pc}
 80012de:	bf00      	nop
 80012e0:	2000032c 	.word	0x2000032c

080012e4 <USART1_IRQHandler>:

/**
  * @brief This function handles USART1 global interrupt.
  */
void USART1_IRQHandler(void)
{
 80012e4:	b580      	push	{r7, lr}
 80012e6:	af00      	add	r7, sp, #0
  /* USER CODE BEGIN USART1_IRQn 0 */

  /* USER CODE END USART1_IRQn 0 */
  HAL_UART_IRQHandler(&huart1);
 80012e8:	4802      	ldr	r0, [pc, #8]	; (80012f4 <USART1_IRQHandler+0x10>)
 80012ea:	f003 fae3 	bl	80048b4 <HAL_UART_IRQHandler>
  /* USER CODE BEGIN USART1_IRQn 1 */

  /* USER CODE END USART1_IRQn 1 */
}
 80012ee:	bf00      	nop
 80012f0:	bd80      	pop	{r7, pc}
 80012f2:	bf00      	nop
 80012f4:	20000378 	.word	0x20000378

080012f8 <USART2_IRQHandler>:

/**
  * @brief This function handles USART2 global interrupt.
  */
void USART2_IRQHandler(void)
{
 80012f8:	b580      	push	{r7, lr}
 80012fa:	af00      	add	r7, sp, #0
  /* USER CODE BEGIN USART2_IRQn 0 */

  /* USER CODE END USART2_IRQn 0 */
  HAL_UART_IRQHandler(&huart2);
 80012fc:	4802      	ldr	r0, [pc, #8]	; (8001308 <USART2_IRQHandler+0x10>)
 80012fe:	f003 fad9 	bl	80048b4 <HAL_UART_IRQHandler>
  /* USER CODE BEGIN USART2_IRQn 1 */

  /* USER CODE END USART2_IRQn 1 */
}
 8001302:	bf00      	nop
 8001304:	bd80      	pop	{r7, pc}
 8001306:	bf00      	nop
 8001308:	20000400 	.word	0x20000400

0800130c <EXTI15_10_IRQHandler>:

/**
  * @brief This function handles EXTI line[15:10] interrupts.
  */
void EXTI15_10_IRQHandler(void)
{
 800130c:	b580      	push	{r7, lr}
 800130e:	af00      	add	r7, sp, #0
  /* USER CODE BEGIN EXTI15_10_IRQn 0 */

  /* USER CODE END EXTI15_10_IRQn 0 */
  HAL_GPIO_EXTI_IRQHandler(GPIO_BOTON_Pin);
 8001310:	f44f 6080 	mov.w	r0, #1024	; 0x400
 8001314:	f000 fdc2 	bl	8001e9c <HAL_GPIO_EXTI_IRQHandler>
  HAL_GPIO_EXTI_IRQHandler(B1_Pin);
 8001318:	f44f 5000 	mov.w	r0, #8192	; 0x2000
 800131c:	f000 fdbe 	bl	8001e9c <HAL_GPIO_EXTI_IRQHandler>
  /* USER CODE BEGIN EXTI15_10_IRQn 1 */

  /* USER CODE END EXTI15_10_IRQn 1 */
}
 8001320:	bf00      	nop
 8001322:	bd80      	pop	{r7, pc}

08001324 <_sbrk>:
 *
 * @param incr Memory size
 * @return Pointer to allocated memory
 */
void *_sbrk(ptrdiff_t incr)
{
 8001324:	b580      	push	{r7, lr}
 8001326:	b086      	sub	sp, #24
 8001328:	af00      	add	r7, sp, #0
 800132a:	6078      	str	r0, [r7, #4]
  extern uint8_t _end; /* Symbol defined in the linker script */
  extern uint8_t _estack; /* Symbol defined in the linker script */
  extern uint32_t _Min_Stack_Size; /* Symbol defined in the linker script */
  const uint32_t stack_limit = (uint32_t)&_estack - (uint32_t)&_Min_Stack_Size;
 800132c:	4a14      	ldr	r2, [pc, #80]	; (8001380 <_sbrk+0x5c>)
 800132e:	4b15      	ldr	r3, [pc, #84]	; (8001384 <_sbrk+0x60>)
 8001330:	1ad3      	subs	r3, r2, r3
 8001332:	617b      	str	r3, [r7, #20]
  const uint8_t *max_heap = (uint8_t *)stack_limit;
 8001334:	697b      	ldr	r3, [r7, #20]
 8001336:	613b      	str	r3, [r7, #16]
  uint8_t *prev_heap_end;

  /* Initialize heap end at first call */
  if (NULL == __sbrk_heap_end)
 8001338:	4b13      	ldr	r3, [pc, #76]	; (8001388 <_sbrk+0x64>)
 800133a:	681b      	ldr	r3, [r3, #0]
 800133c:	2b00      	cmp	r3, #0
 800133e:	d102      	bne.n	8001346 <_sbrk+0x22>
  {
    __sbrk_heap_end = &_end;
 8001340:	4b11      	ldr	r3, [pc, #68]	; (8001388 <_sbrk+0x64>)
 8001342:	4a12      	ldr	r2, [pc, #72]	; (800138c <_sbrk+0x68>)
 8001344:	601a      	str	r2, [r3, #0]
  }

  /* Protect heap from growing into the reserved MSP stack */
  if (__sbrk_heap_end + incr > max_heap)
 8001346:	4b10      	ldr	r3, [pc, #64]	; (8001388 <_sbrk+0x64>)
 8001348:	681a      	ldr	r2, [r3, #0]
 800134a:	687b      	ldr	r3, [r7, #4]
 800134c:	4413      	add	r3, r2
 800134e:	693a      	ldr	r2, [r7, #16]
 8001350:	429a      	cmp	r2, r3
 8001352:	d207      	bcs.n	8001364 <_sbrk+0x40>
  {
    errno = ENOMEM;
 8001354:	f004 fe1a 	bl	8005f8c <__errno>
 8001358:	4603      	mov	r3, r0
 800135a:	220c      	movs	r2, #12
 800135c:	601a      	str	r2, [r3, #0]
    return (void *)-1;
 800135e:	f04f 33ff 	mov.w	r3, #4294967295
 8001362:	e009      	b.n	8001378 <_sbrk+0x54>
  }

  prev_heap_end = __sbrk_heap_end;
 8001364:	4b08      	ldr	r3, [pc, #32]	; (8001388 <_sbrk+0x64>)
 8001366:	681b      	ldr	r3, [r3, #0]
 8001368:	60fb      	str	r3, [r7, #12]
  __sbrk_heap_end += incr;
 800136a:	4b07      	ldr	r3, [pc, #28]	; (8001388 <_sbrk+0x64>)
 800136c:	681a      	ldr	r2, [r3, #0]
 800136e:	687b      	ldr	r3, [r7, #4]
 8001370:	4413      	add	r3, r2
 8001372:	4a05      	ldr	r2, [pc, #20]	; (8001388 <_sbrk+0x64>)
 8001374:	6013      	str	r3, [r2, #0]

  return (void *)prev_heap_end;
 8001376:	68fb      	ldr	r3, [r7, #12]
}
 8001378:	4618      	mov	r0, r3
 800137a:	3718      	adds	r7, #24
 800137c:	46bd      	mov	sp, r7
 800137e:	bd80      	pop	{r7, pc}
 8001380:	20028000 	.word	0x20028000
 8001384:	00000400 	.word	0x00000400
 8001388:	20000328 	.word	0x20000328
 800138c:	200005d8 	.word	0x200005d8

08001390 <SystemInit>:
  * @brief  Setup the microcontroller system.
  * @retval None
  */

void SystemInit(void)
{
 8001390:	b480      	push	{r7}
 8001392:	af00      	add	r7, sp, #0
  SCB->VTOR = VECT_TAB_BASE_ADDRESS | VECT_TAB_OFFSET;
#endif

  /* FPU settings ------------------------------------------------------------*/
#if (__FPU_PRESENT == 1) && (__FPU_USED == 1)
  SCB->CPACR |= ((3UL << 20U)|(3UL << 22U));  /* set CP10 and CP11 Full Access */
 8001394:	4b06      	ldr	r3, [pc, #24]	; (80013b0 <SystemInit+0x20>)
 8001396:	f8d3 3088 	ldr.w	r3, [r3, #136]	; 0x88
 800139a:	4a05      	ldr	r2, [pc, #20]	; (80013b0 <SystemInit+0x20>)
 800139c:	f443 0370 	orr.w	r3, r3, #15728640	; 0xf00000
 80013a0:	f8c2 3088 	str.w	r3, [r2, #136]	; 0x88
#endif
}
 80013a4:	bf00      	nop
 80013a6:	46bd      	mov	sp, r7
 80013a8:	f85d 7b04 	ldr.w	r7, [sp], #4
 80013ac:	4770      	bx	lr
 80013ae:	bf00      	nop
 80013b0:	e000ed00 	.word	0xe000ed00

080013b4 <MX_TIM3_Init>:

TIM_HandleTypeDef htim3;

/* TIM3 init function */
void MX_TIM3_Init(void)
{
 80013b4:	b580      	push	{r7, lr}
 80013b6:	b088      	sub	sp, #32
 80013b8:	af00      	add	r7, sp, #0

  /* USER CODE BEGIN TIM3_Init 0 */

  /* USER CODE END TIM3_Init 0 */

  TIM_ClockConfigTypeDef sClockSourceConfig = {0};
 80013ba:	f107 0310 	add.w	r3, r7, #16
 80013be:	2200      	movs	r2, #0
 80013c0:	601a      	str	r2, [r3, #0]
 80013c2:	605a      	str	r2, [r3, #4]
 80013c4:	609a      	str	r2, [r3, #8]
 80013c6:	60da      	str	r2, [r3, #12]
  TIM_MasterConfigTypeDef sMasterConfig = {0};
 80013c8:	1d3b      	adds	r3, r7, #4
 80013ca:	2200      	movs	r2, #0
 80013cc:	601a      	str	r2, [r3, #0]
 80013ce:	605a      	str	r2, [r3, #4]
 80013d0:	609a      	str	r2, [r3, #8]

  /* USER CODE BEGIN TIM3_Init 1 */

  /* USER CODE END TIM3_Init 1 */
  htim3.Instance = TIM3;
 80013d2:	4b1e      	ldr	r3, [pc, #120]	; (800144c <MX_TIM3_Init+0x98>)
 80013d4:	4a1e      	ldr	r2, [pc, #120]	; (8001450 <MX_TIM3_Init+0x9c>)
 80013d6:	601a      	str	r2, [r3, #0]
  htim3.Init.Prescaler = 40000-1;
 80013d8:	4b1c      	ldr	r3, [pc, #112]	; (800144c <MX_TIM3_Init+0x98>)
 80013da:	f649 423f 	movw	r2, #39999	; 0x9c3f
 80013de:	605a      	str	r2, [r3, #4]
  htim3.Init.CounterMode = TIM_COUNTERMODE_UP;
 80013e0:	4b1a      	ldr	r3, [pc, #104]	; (800144c <MX_TIM3_Init+0x98>)
 80013e2:	2200      	movs	r2, #0
 80013e4:	609a      	str	r2, [r3, #8]
  htim3.Init.Period = 10000-1;
 80013e6:	4b19      	ldr	r3, [pc, #100]	; (800144c <MX_TIM3_Init+0x98>)
 80013e8:	f242 720f 	movw	r2, #9999	; 0x270f
 80013ec:	60da      	str	r2, [r3, #12]
  htim3.Init.ClockDivision = TIM_CLOCKDIVISION_DIV1;
 80013ee:	4b17      	ldr	r3, [pc, #92]	; (800144c <MX_TIM3_Init+0x98>)
 80013f0:	2200      	movs	r2, #0
 80013f2:	611a      	str	r2, [r3, #16]
  htim3.Init.AutoReloadPreload = TIM_AUTORELOAD_PRELOAD_DISABLE;
 80013f4:	4b15      	ldr	r3, [pc, #84]	; (800144c <MX_TIM3_Init+0x98>)
 80013f6:	2200      	movs	r2, #0
 80013f8:	619a      	str	r2, [r3, #24]
  if (HAL_TIM_Base_Init(&htim3) != HAL_OK)
 80013fa:	4814      	ldr	r0, [pc, #80]	; (800144c <MX_TIM3_Init+0x98>)
 80013fc:	f002 fd7a 	bl	8003ef4 <HAL_TIM_Base_Init>
 8001400:	4603      	mov	r3, r0
 8001402:	2b00      	cmp	r3, #0
 8001404:	d001      	beq.n	800140a <MX_TIM3_Init+0x56>
  {
    Error_Handler();
 8001406:	f7ff ff10 	bl	800122a <Error_Handler>
  }
  sClockSourceConfig.ClockSource = TIM_CLOCKSOURCE_INTERNAL;
 800140a:	f44f 5380 	mov.w	r3, #4096	; 0x1000
 800140e:	613b      	str	r3, [r7, #16]
  if (HAL_TIM_ConfigClockSource(&htim3, &sClockSourceConfig) != HAL_OK)
 8001410:	f107 0310 	add.w	r3, r7, #16
 8001414:	4619      	mov	r1, r3
 8001416:	480d      	ldr	r0, [pc, #52]	; (800144c <MX_TIM3_Init+0x98>)
 8001418:	f002 fec5 	bl	80041a6 <HAL_TIM_ConfigClockSource>
 800141c:	4603      	mov	r3, r0
 800141e:	2b00      	cmp	r3, #0
 8001420:	d001      	beq.n	8001426 <MX_TIM3_Init+0x72>
  {
    Error_Handler();
 8001422:	f7ff ff02 	bl	800122a <Error_Handler>
  }
  sMasterConfig.MasterOutputTrigger = TIM_TRGO_RESET;
 8001426:	2300      	movs	r3, #0
 8001428:	607b      	str	r3, [r7, #4]
  sMasterConfig.MasterSlaveMode = TIM_MASTERSLAVEMODE_DISABLE;
 800142a:	2300      	movs	r3, #0
 800142c:	60fb      	str	r3, [r7, #12]
  if (HAL_TIMEx_MasterConfigSynchronization(&htim3, &sMasterConfig) != HAL_OK)
 800142e:	1d3b      	adds	r3, r7, #4
 8001430:	4619      	mov	r1, r3
 8001432:	4806      	ldr	r0, [pc, #24]	; (800144c <MX_TIM3_Init+0x98>)
 8001434:	f003 f8ba 	bl	80045ac <HAL_TIMEx_MasterConfigSynchronization>
 8001438:	4603      	mov	r3, r0
 800143a:	2b00      	cmp	r3, #0
 800143c:	d001      	beq.n	8001442 <MX_TIM3_Init+0x8e>
  {
    Error_Handler();
 800143e:	f7ff fef4 	bl	800122a <Error_Handler>
  }
  /* USER CODE BEGIN TIM3_Init 2 */

  /* USER CODE END TIM3_Init 2 */

}
 8001442:	bf00      	nop
 8001444:	3720      	adds	r7, #32
 8001446:	46bd      	mov	sp, r7
 8001448:	bd80      	pop	{r7, pc}
 800144a:	bf00      	nop
 800144c:	2000032c 	.word	0x2000032c
 8001450:	40000400 	.word	0x40000400

08001454 <HAL_TIM_Base_MspInit>:

void HAL_TIM_Base_MspInit(TIM_HandleTypeDef* tim_baseHandle)
{
 8001454:	b580      	push	{r7, lr}
 8001456:	b084      	sub	sp, #16
 8001458:	af00      	add	r7, sp, #0
 800145a:	6078      	str	r0, [r7, #4]

  if(tim_baseHandle->Instance==TIM3)
 800145c:	687b      	ldr	r3, [r7, #4]
 800145e:	681b      	ldr	r3, [r3, #0]
 8001460:	4a0d      	ldr	r2, [pc, #52]	; (8001498 <HAL_TIM_Base_MspInit+0x44>)
 8001462:	4293      	cmp	r3, r2
 8001464:	d113      	bne.n	800148e <HAL_TIM_Base_MspInit+0x3a>
  {
  /* USER CODE BEGIN TIM3_MspInit 0 */

  /* USER CODE END TIM3_MspInit 0 */
    /* TIM3 clock enable */
    __HAL_RCC_TIM3_CLK_ENABLE();
 8001466:	4b0d      	ldr	r3, [pc, #52]	; (800149c <HAL_TIM_Base_MspInit+0x48>)
 8001468:	6d9b      	ldr	r3, [r3, #88]	; 0x58
 800146a:	4a0c      	ldr	r2, [pc, #48]	; (800149c <HAL_TIM_Base_MspInit+0x48>)
 800146c:	f043 0302 	orr.w	r3, r3, #2
 8001470:	6593      	str	r3, [r2, #88]	; 0x58
 8001472:	4b0a      	ldr	r3, [pc, #40]	; (800149c <HAL_TIM_Base_MspInit+0x48>)
 8001474:	6d9b      	ldr	r3, [r3, #88]	; 0x58
 8001476:	f003 0302 	and.w	r3, r3, #2
 800147a:	60fb      	str	r3, [r7, #12]
 800147c:	68fb      	ldr	r3, [r7, #12]

    /* TIM3 interrupt Init */
    HAL_NVIC_SetPriority(TIM3_IRQn, 0, 0);
 800147e:	2200      	movs	r2, #0
 8001480:	2100      	movs	r1, #0
 8001482:	201d      	movs	r0, #29
 8001484:	f000 fac3 	bl	8001a0e <HAL_NVIC_SetPriority>
    HAL_NVIC_EnableIRQ(TIM3_IRQn);
 8001488:	201d      	movs	r0, #29
 800148a:	f000 fadc 	bl	8001a46 <HAL_NVIC_EnableIRQ>
  /* USER CODE BEGIN TIM3_MspInit 1 */

  /* USER CODE END TIM3_MspInit 1 */
  }
}
 800148e:	bf00      	nop
 8001490:	3710      	adds	r7, #16
 8001492:	46bd      	mov	sp, r7
 8001494:	bd80      	pop	{r7, pc}
 8001496:	bf00      	nop
 8001498:	40000400 	.word	0x40000400
 800149c:	40021000 	.word	0x40021000

080014a0 <MX_USART1_UART_Init>:
UART_HandleTypeDef huart2;

/* USART1 init function */

void MX_USART1_UART_Init(void)
{
 80014a0:	b580      	push	{r7, lr}
 80014a2:	af00      	add	r7, sp, #0
  /* USER CODE END USART1_Init 0 */

  /* USER CODE BEGIN USART1_Init 1 */

  /* USER CODE END USART1_Init 1 */
  huart1.Instance = USART1;
 80014a4:	4b14      	ldr	r3, [pc, #80]	; (80014f8 <MX_USART1_UART_Init+0x58>)
 80014a6:	4a15      	ldr	r2, [pc, #84]	; (80014fc <MX_USART1_UART_Init+0x5c>)
 80014a8:	601a      	str	r2, [r3, #0]
  huart1.Init.BaudRate = 115200;
 80014aa:	4b13      	ldr	r3, [pc, #76]	; (80014f8 <MX_USART1_UART_Init+0x58>)
 80014ac:	f44f 32e1 	mov.w	r2, #115200	; 0x1c200
 80014b0:	605a      	str	r2, [r3, #4]
  huart1.Init.WordLength = UART_WORDLENGTH_8B;
 80014b2:	4b11      	ldr	r3, [pc, #68]	; (80014f8 <MX_USART1_UART_Init+0x58>)
 80014b4:	2200      	movs	r2, #0
 80014b6:	609a      	str	r2, [r3, #8]
  huart1.Init.StopBits = UART_STOPBITS_1;
 80014b8:	4b0f      	ldr	r3, [pc, #60]	; (80014f8 <MX_USART1_UART_Init+0x58>)
 80014ba:	2200      	movs	r2, #0
 80014bc:	60da      	str	r2, [r3, #12]
  huart1.Init.Parity = UART_PARITY_NONE;
 80014be:	4b0e      	ldr	r3, [pc, #56]	; (80014f8 <MX_USART1_UART_Init+0x58>)
 80014c0:	2200      	movs	r2, #0
 80014c2:	611a      	str	r2, [r3, #16]
  huart1.Init.Mode = UART_MODE_TX_RX;
 80014c4:	4b0c      	ldr	r3, [pc, #48]	; (80014f8 <MX_USART1_UART_Init+0x58>)
 80014c6:	220c      	movs	r2, #12
 80014c8:	615a      	str	r2, [r3, #20]
  huart1.Init.HwFlowCtl = UART_HWCONTROL_NONE;
 80014ca:	4b0b      	ldr	r3, [pc, #44]	; (80014f8 <MX_USART1_UART_Init+0x58>)
 80014cc:	2200      	movs	r2, #0
 80014ce:	619a      	str	r2, [r3, #24]
  huart1.Init.OverSampling = UART_OVERSAMPLING_16;
 80014d0:	4b09      	ldr	r3, [pc, #36]	; (80014f8 <MX_USART1_UART_Init+0x58>)
 80014d2:	2200      	movs	r2, #0
 80014d4:	61da      	str	r2, [r3, #28]
  huart1.Init.OneBitSampling = UART_ONE_BIT_SAMPLE_DISABLE;
 80014d6:	4b08      	ldr	r3, [pc, #32]	; (80014f8 <MX_USART1_UART_Init+0x58>)
 80014d8:	2200      	movs	r2, #0
 80014da:	621a      	str	r2, [r3, #32]
  huart1.AdvancedInit.AdvFeatureInit = UART_ADVFEATURE_NO_INIT;
 80014dc:	4b06      	ldr	r3, [pc, #24]	; (80014f8 <MX_USART1_UART_Init+0x58>)
 80014de:	2200      	movs	r2, #0
 80014e0:	625a      	str	r2, [r3, #36]	; 0x24
  if (HAL_UART_Init(&huart1) != HAL_OK)
 80014e2:	4805      	ldr	r0, [pc, #20]	; (80014f8 <MX_USART1_UART_Init+0x58>)
 80014e4:	f003 f8ee 	bl	80046c4 <HAL_UART_Init>
 80014e8:	4603      	mov	r3, r0
 80014ea:	2b00      	cmp	r3, #0
 80014ec:	d001      	beq.n	80014f2 <MX_USART1_UART_Init+0x52>
  {
    Error_Handler();
 80014ee:	f7ff fe9c 	bl	800122a <Error_Handler>
  }
  /* USER CODE BEGIN USART1_Init 2 */

  /* USER CODE END USART1_Init 2 */

}
 80014f2:	bf00      	nop
 80014f4:	bd80      	pop	{r7, pc}
 80014f6:	bf00      	nop
 80014f8:	20000378 	.word	0x20000378
 80014fc:	40013800 	.word	0x40013800

08001500 <MX_USART2_UART_Init>:
/* USART2 init function */

void MX_USART2_UART_Init(void)
{
 8001500:	b580      	push	{r7, lr}
 8001502:	af00      	add	r7, sp, #0
  /* USER CODE END USART2_Init 0 */

  /* USER CODE BEGIN USART2_Init 1 */

  /* USER CODE END USART2_Init 1 */
  huart2.Instance = USART2;
 8001504:	4b14      	ldr	r3, [pc, #80]	; (8001558 <MX_USART2_UART_Init+0x58>)
 8001506:	4a15      	ldr	r2, [pc, #84]	; (800155c <MX_USART2_UART_Init+0x5c>)
 8001508:	601a      	str	r2, [r3, #0]
  huart2.Init.BaudRate = 115200;
 800150a:	4b13      	ldr	r3, [pc, #76]	; (8001558 <MX_USART2_UART_Init+0x58>)
 800150c:	f44f 32e1 	mov.w	r2, #115200	; 0x1c200
 8001510:	605a      	str	r2, [r3, #4]
  huart2.Init.WordLength = UART_WORDLENGTH_8B;
 8001512:	4b11      	ldr	r3, [pc, #68]	; (8001558 <MX_USART2_UART_Init+0x58>)
 8001514:	2200      	movs	r2, #0
 8001516:	609a      	str	r2, [r3, #8]
  huart2.Init.StopBits = UART_STOPBITS_1;
 8001518:	4b0f      	ldr	r3, [pc, #60]	; (8001558 <MX_USART2_UART_Init+0x58>)
 800151a:	2200      	movs	r2, #0
 800151c:	60da      	str	r2, [r3, #12]
  huart2.Init.Parity = UART_PARITY_NONE;
 800151e:	4b0e      	ldr	r3, [pc, #56]	; (8001558 <MX_USART2_UART_Init+0x58>)
 8001520:	2200      	movs	r2, #0
 8001522:	611a      	str	r2, [r3, #16]
  huart2.Init.Mode = UART_MODE_TX_RX;
 8001524:	4b0c      	ldr	r3, [pc, #48]	; (8001558 <MX_USART2_UART_Init+0x58>)
 8001526:	220c      	movs	r2, #12
 8001528:	615a      	str	r2, [r3, #20]
  huart2.Init.HwFlowCtl = UART_HWCONTROL_NONE;
 800152a:	4b0b      	ldr	r3, [pc, #44]	; (8001558 <MX_USART2_UART_Init+0x58>)
 800152c:	2200      	movs	r2, #0
 800152e:	619a      	str	r2, [r3, #24]
  huart2.Init.OverSampling = UART_OVERSAMPLING_16;
 8001530:	4b09      	ldr	r3, [pc, #36]	; (8001558 <MX_USART2_UART_Init+0x58>)
 8001532:	2200      	movs	r2, #0
 8001534:	61da      	str	r2, [r3, #28]
  huart2.Init.OneBitSampling = UART_ONE_BIT_SAMPLE_DISABLE;
 8001536:	4b08      	ldr	r3, [pc, #32]	; (8001558 <MX_USART2_UART_Init+0x58>)
 8001538:	2200      	movs	r2, #0
 800153a:	621a      	str	r2, [r3, #32]
  huart2.AdvancedInit.AdvFeatureInit = UART_ADVFEATURE_NO_INIT;
 800153c:	4b06      	ldr	r3, [pc, #24]	; (8001558 <MX_USART2_UART_Init+0x58>)
 800153e:	2200      	movs	r2, #0
 8001540:	625a      	str	r2, [r3, #36]	; 0x24
  if (HAL_UART_Init(&huart2) != HAL_OK)
 8001542:	4805      	ldr	r0, [pc, #20]	; (8001558 <MX_USART2_UART_Init+0x58>)
 8001544:	f003 f8be 	bl	80046c4 <HAL_UART_Init>
 8001548:	4603      	mov	r3, r0
 800154a:	2b00      	cmp	r3, #0
 800154c:	d001      	beq.n	8001552 <MX_USART2_UART_Init+0x52>
  {
    Error_Handler();
 800154e:	f7ff fe6c 	bl	800122a <Error_Handler>
  }
  /* USER CODE BEGIN USART2_Init 2 */

  /* USER CODE END USART2_Init 2 */

}
 8001552:	bf00      	nop
 8001554:	bd80      	pop	{r7, pc}
 8001556:	bf00      	nop
 8001558:	20000400 	.word	0x20000400
 800155c:	40004400 	.word	0x40004400

08001560 <HAL_UART_MspInit>:

void HAL_UART_MspInit(UART_HandleTypeDef* uartHandle)
{
 8001560:	b580      	push	{r7, lr}
 8001562:	b0a6      	sub	sp, #152	; 0x98
 8001564:	af00      	add	r7, sp, #0
 8001566:	6078      	str	r0, [r7, #4]

  GPIO_InitTypeDef GPIO_InitStruct = {0};
 8001568:	f107 0384 	add.w	r3, r7, #132	; 0x84
 800156c:	2200      	movs	r2, #0
 800156e:	601a      	str	r2, [r3, #0]
 8001570:	605a      	str	r2, [r3, #4]
 8001572:	609a      	str	r2, [r3, #8]
 8001574:	60da      	str	r2, [r3, #12]
 8001576:	611a      	str	r2, [r3, #16]
  RCC_PeriphCLKInitTypeDef PeriphClkInit = {0};
 8001578:	f107 031c 	add.w	r3, r7, #28
 800157c:	2268      	movs	r2, #104	; 0x68
 800157e:	2100      	movs	r1, #0
 8001580:	4618      	mov	r0, r3
 8001582:	f004 fce5 	bl	8005f50 <memset>
  if(uartHandle->Instance==USART1)
 8001586:	687b      	ldr	r3, [r7, #4]
 8001588:	681b      	ldr	r3, [r3, #0]
 800158a:	4a4b      	ldr	r2, [pc, #300]	; (80016b8 <HAL_UART_MspInit+0x158>)
 800158c:	4293      	cmp	r3, r2
 800158e:	d145      	bne.n	800161c <HAL_UART_MspInit+0xbc>

  /* USER CODE END USART1_MspInit 0 */

  /** Initializes the peripherals clock
  */
    PeriphClkInit.PeriphClockSelection = RCC_PERIPHCLK_USART1;
 8001590:	2301      	movs	r3, #1
 8001592:	61fb      	str	r3, [r7, #28]
    PeriphClkInit.Usart1ClockSelection = RCC_USART1CLKSOURCE_PCLK2;
 8001594:	2300      	movs	r3, #0
 8001596:	63fb      	str	r3, [r7, #60]	; 0x3c
    if (HAL_RCCEx_PeriphCLKConfig(&PeriphClkInit) != HAL_OK)
 8001598:	f107 031c 	add.w	r3, r7, #28
 800159c:	4618      	mov	r0, r3
 800159e:	f002 f94b 	bl	8003838 <HAL_RCCEx_PeriphCLKConfig>
 80015a2:	4603      	mov	r3, r0
 80015a4:	2b00      	cmp	r3, #0
 80015a6:	d001      	beq.n	80015ac <HAL_UART_MspInit+0x4c>
    {
      Error_Handler();
 80015a8:	f7ff fe3f 	bl	800122a <Error_Handler>
    }

    /* USART1 clock enable */
    __HAL_RCC_USART1_CLK_ENABLE();
 80015ac:	4b43      	ldr	r3, [pc, #268]	; (80016bc <HAL_UART_MspInit+0x15c>)
 80015ae:	6e1b      	ldr	r3, [r3, #96]	; 0x60
 80015b0:	4a42      	ldr	r2, [pc, #264]	; (80016bc <HAL_UART_MspInit+0x15c>)
 80015b2:	f443 4380 	orr.w	r3, r3, #16384	; 0x4000
 80015b6:	6613      	str	r3, [r2, #96]	; 0x60
 80015b8:	4b40      	ldr	r3, [pc, #256]	; (80016bc <HAL_UART_MspInit+0x15c>)
 80015ba:	6e1b      	ldr	r3, [r3, #96]	; 0x60
 80015bc:	f403 4380 	and.w	r3, r3, #16384	; 0x4000
 80015c0:	61bb      	str	r3, [r7, #24]
 80015c2:	69bb      	ldr	r3, [r7, #24]

    __HAL_RCC_GPIOA_CLK_ENABLE();
 80015c4:	4b3d      	ldr	r3, [pc, #244]	; (80016bc <HAL_UART_MspInit+0x15c>)
 80015c6:	6cdb      	ldr	r3, [r3, #76]	; 0x4c
 80015c8:	4a3c      	ldr	r2, [pc, #240]	; (80016bc <HAL_UART_MspInit+0x15c>)
 80015ca:	f043 0301 	orr.w	r3, r3, #1
 80015ce:	64d3      	str	r3, [r2, #76]	; 0x4c
 80015d0:	4b3a      	ldr	r3, [pc, #232]	; (80016bc <HAL_UART_MspInit+0x15c>)
 80015d2:	6cdb      	ldr	r3, [r3, #76]	; 0x4c
 80015d4:	f003 0301 	and.w	r3, r3, #1
 80015d8:	617b      	str	r3, [r7, #20]
 80015da:	697b      	ldr	r3, [r7, #20]
    /**USART1 GPIO Configuration
    PA9     ------> USART1_TX
    PA10     ------> USART1_RX
    */
    GPIO_InitStruct.Pin = TX_STM_Pin|RX_STM_Pin;
 80015dc:	f44f 63c0 	mov.w	r3, #1536	; 0x600
 80015e0:	f8c7 3084 	str.w	r3, [r7, #132]	; 0x84
    GPIO_InitStruct.Mode = GPIO_MODE_AF_PP;
 80015e4:	2302      	movs	r3, #2
 80015e6:	f8c7 3088 	str.w	r3, [r7, #136]	; 0x88
    GPIO_InitStruct.Pull = GPIO_NOPULL;
 80015ea:	2300      	movs	r3, #0
 80015ec:	f8c7 308c 	str.w	r3, [r7, #140]	; 0x8c
    GPIO_InitStruct.Speed = GPIO_SPEED_FREQ_VERY_HIGH;
 80015f0:	2303      	movs	r3, #3
 80015f2:	f8c7 3090 	str.w	r3, [r7, #144]	; 0x90
    GPIO_InitStruct.Alternate = GPIO_AF7_USART1;
 80015f6:	2307      	movs	r3, #7
 80015f8:	f8c7 3094 	str.w	r3, [r7, #148]	; 0x94
    HAL_GPIO_Init(GPIOA, &GPIO_InitStruct);
 80015fc:	f107 0384 	add.w	r3, r7, #132	; 0x84
 8001600:	4619      	mov	r1, r3
 8001602:	f04f 4090 	mov.w	r0, #1207959552	; 0x48000000
 8001606:	f000 fab7 	bl	8001b78 <HAL_GPIO_Init>

    /* USART1 interrupt Init */
    HAL_NVIC_SetPriority(USART1_IRQn, 0, 0);
 800160a:	2200      	movs	r2, #0
 800160c:	2100      	movs	r1, #0
 800160e:	2025      	movs	r0, #37	; 0x25
 8001610:	f000 f9fd 	bl	8001a0e <HAL_NVIC_SetPriority>
    HAL_NVIC_EnableIRQ(USART1_IRQn);
 8001614:	2025      	movs	r0, #37	; 0x25
 8001616:	f000 fa16 	bl	8001a46 <HAL_NVIC_EnableIRQ>
    HAL_NVIC_EnableIRQ(USART2_IRQn);
  /* USER CODE BEGIN USART2_MspInit 1 */

  /* USER CODE END USART2_MspInit 1 */
  }
}
 800161a:	e048      	b.n	80016ae <HAL_UART_MspInit+0x14e>
  else if(uartHandle->Instance==USART2)
 800161c:	687b      	ldr	r3, [r7, #4]
 800161e:	681b      	ldr	r3, [r3, #0]
 8001620:	4a27      	ldr	r2, [pc, #156]	; (80016c0 <HAL_UART_MspInit+0x160>)
 8001622:	4293      	cmp	r3, r2
 8001624:	d143      	bne.n	80016ae <HAL_UART_MspInit+0x14e>
    PeriphClkInit.PeriphClockSelection = RCC_PERIPHCLK_USART2;
 8001626:	2302      	movs	r3, #2
 8001628:	61fb      	str	r3, [r7, #28]
    PeriphClkInit.Usart2ClockSelection = RCC_USART2CLKSOURCE_PCLK1;
 800162a:	2300      	movs	r3, #0
 800162c:	643b      	str	r3, [r7, #64]	; 0x40
    if (HAL_RCCEx_PeriphCLKConfig(&PeriphClkInit) != HAL_OK)
 800162e:	f107 031c 	add.w	r3, r7, #28
 8001632:	4618      	mov	r0, r3
 8001634:	f002 f900 	bl	8003838 <HAL_RCCEx_PeriphCLKConfig>
 8001638:	4603      	mov	r3, r0
 800163a:	2b00      	cmp	r3, #0
 800163c:	d001      	beq.n	8001642 <HAL_UART_MspInit+0xe2>
      Error_Handler();
 800163e:	f7ff fdf4 	bl	800122a <Error_Handler>
    __HAL_RCC_USART2_CLK_ENABLE();
 8001642:	4b1e      	ldr	r3, [pc, #120]	; (80016bc <HAL_UART_MspInit+0x15c>)
 8001644:	6d9b      	ldr	r3, [r3, #88]	; 0x58
 8001646:	4a1d      	ldr	r2, [pc, #116]	; (80016bc <HAL_UART_MspInit+0x15c>)
 8001648:	f443 3300 	orr.w	r3, r3, #131072	; 0x20000
 800164c:	6593      	str	r3, [r2, #88]	; 0x58
 800164e:	4b1b      	ldr	r3, [pc, #108]	; (80016bc <HAL_UART_MspInit+0x15c>)
 8001650:	6d9b      	ldr	r3, [r3, #88]	; 0x58
 8001652:	f403 3300 	and.w	r3, r3, #131072	; 0x20000
 8001656:	613b      	str	r3, [r7, #16]
 8001658:	693b      	ldr	r3, [r7, #16]
    __HAL_RCC_GPIOA_CLK_ENABLE();
 800165a:	4b18      	ldr	r3, [pc, #96]	; (80016bc <HAL_UART_MspInit+0x15c>)
 800165c:	6cdb      	ldr	r3, [r3, #76]	; 0x4c
 800165e:	4a17      	ldr	r2, [pc, #92]	; (80016bc <HAL_UART_MspInit+0x15c>)
 8001660:	f043 0301 	orr.w	r3, r3, #1
 8001664:	64d3      	str	r3, [r2, #76]	; 0x4c
 8001666:	4b15      	ldr	r3, [pc, #84]	; (80016bc <HAL_UART_MspInit+0x15c>)
 8001668:	6cdb      	ldr	r3, [r3, #76]	; 0x4c
 800166a:	f003 0301 	and.w	r3, r3, #1
 800166e:	60fb      	str	r3, [r7, #12]
 8001670:	68fb      	ldr	r3, [r7, #12]
    GPIO_InitStruct.Pin = GPIO_PIN_2|GPIO_PIN_3;
 8001672:	230c      	movs	r3, #12
 8001674:	f8c7 3084 	str.w	r3, [r7, #132]	; 0x84
    GPIO_InitStruct.Mode = GPIO_MODE_AF_PP;
 8001678:	2302      	movs	r3, #2
 800167a:	f8c7 3088 	str.w	r3, [r7, #136]	; 0x88
    GPIO_InitStruct.Pull = GPIO_NOPULL;
 800167e:	2300      	movs	r3, #0
 8001680:	f8c7 308c 	str.w	r3, [r7, #140]	; 0x8c
    GPIO_InitStruct.Speed = GPIO_SPEED_FREQ_VERY_HIGH;
 8001684:	2303      	movs	r3, #3
 8001686:	f8c7 3090 	str.w	r3, [r7, #144]	; 0x90
    GPIO_InitStruct.Alternate = GPIO_AF7_USART2;
 800168a:	2307      	movs	r3, #7
 800168c:	f8c7 3094 	str.w	r3, [r7, #148]	; 0x94
    HAL_GPIO_Init(GPIOA, &GPIO_InitStruct);
 8001690:	f107 0384 	add.w	r3, r7, #132	; 0x84
 8001694:	4619      	mov	r1, r3
 8001696:	f04f 4090 	mov.w	r0, #1207959552	; 0x48000000
 800169a:	f000 fa6d 	bl	8001b78 <HAL_GPIO_Init>
    HAL_NVIC_SetPriority(USART2_IRQn, 0, 0);
 800169e:	2200      	movs	r2, #0
 80016a0:	2100      	movs	r1, #0
 80016a2:	2026      	movs	r0, #38	; 0x26
 80016a4:	f000 f9b3 	bl	8001a0e <HAL_NVIC_SetPriority>
    HAL_NVIC_EnableIRQ(USART2_IRQn);
 80016a8:	2026      	movs	r0, #38	; 0x26
 80016aa:	f000 f9cc 	bl	8001a46 <HAL_NVIC_EnableIRQ>
}
 80016ae:	bf00      	nop
 80016b0:	3798      	adds	r7, #152	; 0x98
 80016b2:	46bd      	mov	sp, r7
 80016b4:	bd80      	pop	{r7, pc}
 80016b6:	bf00      	nop
 80016b8:	40013800 	.word	0x40013800
 80016bc:	40021000 	.word	0x40021000
 80016c0:	40004400 	.word	0x40004400

080016c4 <Reset_Handler>:
 80016c4:	f8df d034 	ldr.w	sp, [pc, #52]	; 80016fc <LoopForever+0x2>
 80016c8:	f7ff fe62 	bl	8001390 <SystemInit>
 80016cc:	480c      	ldr	r0, [pc, #48]	; (8001700 <LoopForever+0x6>)
 80016ce:	490d      	ldr	r1, [pc, #52]	; (8001704 <LoopForever+0xa>)
 80016d0:	4a0d      	ldr	r2, [pc, #52]	; (8001708 <LoopForever+0xe>)
 80016d2:	2300      	movs	r3, #0
 80016d4:	e002      	b.n	80016dc <LoopCopyDataInit>

080016d6 <CopyDataInit>:
 80016d6:	58d4      	ldr	r4, [r2, r3]
 80016d8:	50c4      	str	r4, [r0, r3]
 80016da:	3304      	adds	r3, #4

080016dc <LoopCopyDataInit>:
 80016dc:	18c4      	adds	r4, r0, r3
 80016de:	428c      	cmp	r4, r1
 80016e0:	d3f9      	bcc.n	80016d6 <CopyDataInit>
 80016e2:	4a0a      	ldr	r2, [pc, #40]	; (800170c <LoopForever+0x12>)
 80016e4:	4c0a      	ldr	r4, [pc, #40]	; (8001710 <LoopForever+0x16>)
 80016e6:	2300      	movs	r3, #0
 80016e8:	e001      	b.n	80016ee <LoopFillZerobss>

080016ea <FillZerobss>:
 80016ea:	6013      	str	r3, [r2, #0]
 80016ec:	3204      	adds	r2, #4

080016ee <LoopFillZerobss>:
 80016ee:	42a2      	cmp	r2, r4
 80016f0:	d3fb      	bcc.n	80016ea <FillZerobss>
 80016f2:	f004 fc51 	bl	8005f98 <__libc_init_array>
 80016f6:	f7ff fcd7 	bl	80010a8 <main>

080016fa <LoopForever>:
 80016fa:	e7fe      	b.n	80016fa <LoopForever>
 80016fc:	20028000 	.word	0x20028000
 8001700:	20000000 	.word	0x20000000
 8001704:	20000060 	.word	0x20000060
 8001708:	080069c4 	.word	0x080069c4
 800170c:	20000060 	.word	0x20000060
 8001710:	200005d4 	.word	0x200005d4

08001714 <ADC1_IRQHandler>:
 8001714:	e7fe      	b.n	8001714 <ADC1_IRQHandler>
	...

08001718 <HAL_Init>:
 8001718:	b580      	push	{r7, lr}
 800171a:	b082      	sub	sp, #8
 800171c:	af00      	add	r7, sp, #0
 800171e:	2300      	movs	r3, #0
 8001720:	71fb      	strb	r3, [r7, #7]
 8001722:	4b0c      	ldr	r3, [pc, #48]	; (8001754 <HAL_Init+0x3c>)
 8001724:	681b      	ldr	r3, [r3, #0]
 8001726:	4a0b      	ldr	r2, [pc, #44]	; (8001754 <HAL_Init+0x3c>)
 8001728:	f443 7380 	orr.w	r3, r3, #256	; 0x100
 800172c:	6013      	str	r3, [r2, #0]
 800172e:	2003      	movs	r0, #3
 8001730:	f000 f962 	bl	80019f8 <HAL_NVIC_SetPriorityGrouping>
 8001734:	2000      	movs	r0, #0
 8001736:	f000 f80f 	bl	8001758 <HAL_InitTick>
 800173a:	4603      	mov	r3, r0
 800173c:	2b00      	cmp	r3, #0
 800173e:	d002      	beq.n	8001746 <HAL_Init+0x2e>
 8001740:	2301      	movs	r3, #1
 8001742:	71fb      	strb	r3, [r7, #7]
 8001744:	e001      	b.n	800174a <HAL_Init+0x32>
 8001746:	f7ff fd75 	bl	8001234 <HAL_MspInit>
 800174a:	79fb      	ldrb	r3, [r7, #7]
 800174c:	4618      	mov	r0, r3
 800174e:	3708      	adds	r7, #8
 8001750:	46bd      	mov	sp, r7
 8001752:	bd80      	pop	{r7, pc}
 8001754:	40022000 	.word	0x40022000

08001758 <HAL_InitTick>:
 8001758:	b580      	push	{r7, lr}
 800175a:	b084      	sub	sp, #16
 800175c:	af00      	add	r7, sp, #0
 800175e:	6078      	str	r0, [r7, #4]
 8001760:	2300      	movs	r3, #0
 8001762:	73fb      	strb	r3, [r7, #15]
 8001764:	4b17      	ldr	r3, [pc, #92]	; (80017c4 <HAL_InitTick+0x6c>)
 8001766:	781b      	ldrb	r3, [r3, #0]
 8001768:	2b00      	cmp	r3, #0
 800176a:	d023      	beq.n	80017b4 <HAL_InitTick+0x5c>
 800176c:	4b16      	ldr	r3, [pc, #88]	; (80017c8 <HAL_InitTick+0x70>)
 800176e:	681a      	ldr	r2, [r3, #0]
 8001770:	4b14      	ldr	r3, [pc, #80]	; (80017c4 <HAL_InitTick+0x6c>)
 8001772:	781b      	ldrb	r3, [r3, #0]
 8001774:	4619      	mov	r1, r3
 8001776:	f44f 737a 	mov.w	r3, #1000	; 0x3e8
 800177a:	fbb3 f3f1 	udiv	r3, r3, r1
 800177e:	fbb2 f3f3 	udiv	r3, r2, r3
 8001782:	4618      	mov	r0, r3
 8001784:	f000 f96d 	bl	8001a62 <HAL_SYSTICK_Config>
 8001788:	4603      	mov	r3, r0
 800178a:	2b00      	cmp	r3, #0
 800178c:	d10f      	bne.n	80017ae <HAL_InitTick+0x56>
 800178e:	687b      	ldr	r3, [r7, #4]
 8001790:	2b0f      	cmp	r3, #15
 8001792:	d809      	bhi.n	80017a8 <HAL_InitTick+0x50>
 8001794:	2200      	movs	r2, #0
 8001796:	6879      	ldr	r1, [r7, #4]
 8001798:	f04f 30ff 	mov.w	r0, #4294967295
 800179c:	f000 f937 	bl	8001a0e <HAL_NVIC_SetPriority>
 80017a0:	4a0a      	ldr	r2, [pc, #40]	; (80017cc <HAL_InitTick+0x74>)
 80017a2:	687b      	ldr	r3, [r7, #4]
 80017a4:	6013      	str	r3, [r2, #0]
 80017a6:	e007      	b.n	80017b8 <HAL_InitTick+0x60>
 80017a8:	2301      	movs	r3, #1
 80017aa:	73fb      	strb	r3, [r7, #15]
 80017ac:	e004      	b.n	80017b8 <HAL_InitTick+0x60>
 80017ae:	2301      	movs	r3, #1
 80017b0:	73fb      	strb	r3, [r7, #15]
 80017b2:	e001      	b.n	80017b8 <HAL_InitTick+0x60>
 80017b4:	2301      	movs	r3, #1
 80017b6:	73fb      	strb	r3, [r7, #15]
 80017b8:	7bfb      	ldrb	r3, [r7, #15]
 80017ba:	4618      	mov	r0, r3
 80017bc:	3710      	adds	r7, #16
 80017be:	46bd      	mov	sp, r7
 80017c0:	bd80      	pop	{r7, pc}
 80017c2:	bf00      	nop
 80017c4:	2000000c 	.word	0x2000000c
 80017c8:	20000004 	.word	0x20000004
 80017cc:	20000008 	.word	0x20000008

080017d0 <HAL_IncTick>:
 80017d0:	b480      	push	{r7}
 80017d2:	af00      	add	r7, sp, #0
 80017d4:	4b06      	ldr	r3, [pc, #24]	; (80017f0 <HAL_IncTick+0x20>)
 80017d6:	781b      	ldrb	r3, [r3, #0]
 80017d8:	461a      	mov	r2, r3
 80017da:	4b06      	ldr	r3, [pc, #24]	; (80017f4 <HAL_IncTick+0x24>)
 80017dc:	681b      	ldr	r3, [r3, #0]
 80017de:	4413      	add	r3, r2
 80017e0:	4a04      	ldr	r2, [pc, #16]	; (80017f4 <HAL_IncTick+0x24>)
 80017e2:	6013      	str	r3, [r2, #0]
 80017e4:	bf00      	nop
 80017e6:	46bd      	mov	sp, r7
 80017e8:	f85d 7b04 	ldr.w	r7, [sp], #4
 80017ec:	4770      	bx	lr
 80017ee:	bf00      	nop
 80017f0:	2000000c 	.word	0x2000000c
 80017f4:	20000488 	.word	0x20000488

080017f8 <HAL_GetTick>:
 80017f8:	b480      	push	{r7}
 80017fa:	af00      	add	r7, sp, #0
 80017fc:	4b03      	ldr	r3, [pc, #12]	; (800180c <HAL_GetTick+0x14>)
 80017fe:	681b      	ldr	r3, [r3, #0]
 8001800:	4618      	mov	r0, r3
 8001802:	46bd      	mov	sp, r7
 8001804:	f85d 7b04 	ldr.w	r7, [sp], #4
 8001808:	4770      	bx	lr
 800180a:	bf00      	nop
 800180c:	20000488 	.word	0x20000488

08001810 <HAL_Delay>:
 8001810:	b580      	push	{r7, lr}
 8001812:	b084      	sub	sp, #16
 8001814:	af00      	add	r7, sp, #0
 8001816:	6078      	str	r0, [r7, #4]
 8001818:	f7ff ffee 	bl	80017f8 <HAL_GetTick>
 800181c:	60b8      	str	r0, [r7, #8]
 800181e:	687b      	ldr	r3, [r7, #4]
 8001820:	60fb      	str	r3, [r7, #12]
 8001822:	68fb      	ldr	r3, [r7, #12]
 8001824:	f1b3 3fff 	cmp.w	r3, #4294967295
 8001828:	d005      	beq.n	8001836 <HAL_Delay+0x26>
 800182a:	4b0a      	ldr	r3, [pc, #40]	; (8001854 <HAL_Delay+0x44>)
 800182c:	781b      	ldrb	r3, [r3, #0]
 800182e:	461a      	mov	r2, r3
 8001830:	68fb      	ldr	r3, [r7, #12]
 8001832:	4413      	add	r3, r2
 8001834:	60fb      	str	r3, [r7, #12]
 8001836:	bf00      	nop
 8001838:	f7ff ffde 	bl	80017f8 <HAL_GetTick>
 800183c:	4602      	mov	r2, r0
 800183e:	68bb      	ldr	r3, [r7, #8]
 8001840:	1ad3      	subs	r3, r2, r3
 8001842:	68fa      	ldr	r2, [r7, #12]
 8001844:	429a      	cmp	r2, r3
 8001846:	d8f7      	bhi.n	8001838 <HAL_Delay+0x28>
 8001848:	bf00      	nop
 800184a:	bf00      	nop
 800184c:	3710      	adds	r7, #16
 800184e:	46bd      	mov	sp, r7
 8001850:	bd80      	pop	{r7, pc}
 8001852:	bf00      	nop
 8001854:	2000000c 	.word	0x2000000c

08001858 <__NVIC_SetPriorityGrouping>:
 8001858:	b480      	push	{r7}
 800185a:	b085      	sub	sp, #20
 800185c:	af00      	add	r7, sp, #0
 800185e:	6078      	str	r0, [r7, #4]
 8001860:	687b      	ldr	r3, [r7, #4]
 8001862:	f003 0307 	and.w	r3, r3, #7
 8001866:	60fb      	str	r3, [r7, #12]
 8001868:	4b0c      	ldr	r3, [pc, #48]	; (800189c <__NVIC_SetPriorityGrouping+0x44>)
 800186a:	68db      	ldr	r3, [r3, #12]
 800186c:	60bb      	str	r3, [r7, #8]
 800186e:	68ba      	ldr	r2, [r7, #8]
 8001870:	f64f 03ff 	movw	r3, #63743	; 0xf8ff
 8001874:	4013      	ands	r3, r2
 8001876:	60bb      	str	r3, [r7, #8]
 8001878:	68fb      	ldr	r3, [r7, #12]
 800187a:	021a      	lsls	r2, r3, #8
 800187c:	68bb      	ldr	r3, [r7, #8]
 800187e:	4313      	orrs	r3, r2
 8001880:	f043 63bf 	orr.w	r3, r3, #100139008	; 0x5f80000
 8001884:	f443 3300 	orr.w	r3, r3, #131072	; 0x20000
 8001888:	60bb      	str	r3, [r7, #8]
 800188a:	4a04      	ldr	r2, [pc, #16]	; (800189c <__NVIC_SetPriorityGrouping+0x44>)
 800188c:	68bb      	ldr	r3, [r7, #8]
 800188e:	60d3      	str	r3, [r2, #12]
 8001890:	bf00      	nop
 8001892:	3714      	adds	r7, #20
 8001894:	46bd      	mov	sp, r7
 8001896:	f85d 7b04 	ldr.w	r7, [sp], #4
 800189a:	4770      	bx	lr
 800189c:	e000ed00 	.word	0xe000ed00

080018a0 <__NVIC_GetPriorityGrouping>:
 80018a0:	b480      	push	{r7}
 80018a2:	af00      	add	r7, sp, #0
 80018a4:	4b04      	ldr	r3, [pc, #16]	; (80018b8 <__NVIC_GetPriorityGrouping+0x18>)
 80018a6:	68db      	ldr	r3, [r3, #12]
 80018a8:	0a1b      	lsrs	r3, r3, #8
 80018aa:	f003 0307 	and.w	r3, r3, #7
 80018ae:	4618      	mov	r0, r3
 80018b0:	46bd      	mov	sp, r7
 80018b2:	f85d 7b04 	ldr.w	r7, [sp], #4
 80018b6:	4770      	bx	lr
 80018b8:	e000ed00 	.word	0xe000ed00

080018bc <__NVIC_EnableIRQ>:
 80018bc:	b480      	push	{r7}
 80018be:	b083      	sub	sp, #12
 80018c0:	af00      	add	r7, sp, #0
 80018c2:	4603      	mov	r3, r0
 80018c4:	71fb      	strb	r3, [r7, #7]
 80018c6:	f997 3007 	ldrsb.w	r3, [r7, #7]
 80018ca:	2b00      	cmp	r3, #0
 80018cc:	db0b      	blt.n	80018e6 <__NVIC_EnableIRQ+0x2a>
 80018ce:	79fb      	ldrb	r3, [r7, #7]
 80018d0:	f003 021f 	and.w	r2, r3, #31
 80018d4:	4907      	ldr	r1, [pc, #28]	; (80018f4 <__NVIC_EnableIRQ+0x38>)
 80018d6:	f997 3007 	ldrsb.w	r3, [r7, #7]
 80018da:	095b      	lsrs	r3, r3, #5
 80018dc:	2001      	movs	r0, #1
 80018de:	fa00 f202 	lsl.w	r2, r0, r2
 80018e2:	f841 2023 	str.w	r2, [r1, r3, lsl #2]
 80018e6:	bf00      	nop
 80018e8:	370c      	adds	r7, #12
 80018ea:	46bd      	mov	sp, r7
 80018ec:	f85d 7b04 	ldr.w	r7, [sp], #4
 80018f0:	4770      	bx	lr
 80018f2:	bf00      	nop
 80018f4:	e000e100 	.word	0xe000e100

080018f8 <__NVIC_SetPriority>:
 80018f8:	b480      	push	{r7}
 80018fa:	b083      	sub	sp, #12
 80018fc:	af00      	add	r7, sp, #0
 80018fe:	4603      	mov	r3, r0
 8001900:	6039      	str	r1, [r7, #0]
 8001902:	71fb      	strb	r3, [r7, #7]
 8001904:	f997 3007 	ldrsb.w	r3, [r7, #7]
 8001908:	2b00      	cmp	r3, #0
 800190a:	db0a      	blt.n	8001922 <__NVIC_SetPriority+0x2a>
 800190c:	683b      	ldr	r3, [r7, #0]
 800190e:	b2da      	uxtb	r2, r3
 8001910:	490c      	ldr	r1, [pc, #48]	; (8001944 <__NVIC_SetPriority+0x4c>)
 8001912:	f997 3007 	ldrsb.w	r3, [r7, #7]
 8001916:	0112      	lsls	r2, r2, #4
 8001918:	b2d2      	uxtb	r2, r2
 800191a:	440b      	add	r3, r1
 800191c:	f883 2300 	strb.w	r2, [r3, #768]	; 0x300
 8001920:	e00a      	b.n	8001938 <__NVIC_SetPriority+0x40>
 8001922:	683b      	ldr	r3, [r7, #0]
 8001924:	b2da      	uxtb	r2, r3
 8001926:	4908      	ldr	r1, [pc, #32]	; (8001948 <__NVIC_SetPriority+0x50>)
 8001928:	79fb      	ldrb	r3, [r7, #7]
 800192a:	f003 030f 	and.w	r3, r3, #15
 800192e:	3b04      	subs	r3, #4
 8001930:	0112      	lsls	r2, r2, #4
 8001932:	b2d2      	uxtb	r2, r2
 8001934:	440b      	add	r3, r1
 8001936:	761a      	strb	r2, [r3, #24]
 8001938:	bf00      	nop
 800193a:	370c      	adds	r7, #12
 800193c:	46bd      	mov	sp, r7
 800193e:	f85d 7b04 	ldr.w	r7, [sp], #4
 8001942:	4770      	bx	lr
 8001944:	e000e100 	.word	0xe000e100
 8001948:	e000ed00 	.word	0xe000ed00

0800194c <NVIC_EncodePriority>:
 800194c:	b480      	push	{r7}
 800194e:	b089      	sub	sp, #36	; 0x24
 8001950:	af00      	add	r7, sp, #0
 8001952:	60f8      	str	r0, [r7, #12]
 8001954:	60b9      	str	r1, [r7, #8]
 8001956:	607a      	str	r2, [r7, #4]
 8001958:	68fb      	ldr	r3, [r7, #12]
 800195a:	f003 0307 	and.w	r3, r3, #7
 800195e:	61fb      	str	r3, [r7, #28]
 8001960:	69fb      	ldr	r3, [r7, #28]
 8001962:	f1c3 0307 	rsb	r3, r3, #7
 8001966:	2b04      	cmp	r3, #4
 8001968:	bf28      	it	cs
 800196a:	2304      	movcs	r3, #4
 800196c:	61bb      	str	r3, [r7, #24]
 800196e:	69fb      	ldr	r3, [r7, #28]
 8001970:	3304      	adds	r3, #4
 8001972:	2b06      	cmp	r3, #6
 8001974:	d902      	bls.n	800197c <NVIC_EncodePriority+0x30>
 8001976:	69fb      	ldr	r3, [r7, #28]
 8001978:	3b03      	subs	r3, #3
 800197a:	e000      	b.n	800197e <NVIC_EncodePriority+0x32>
 800197c:	2300      	movs	r3, #0
 800197e:	617b      	str	r3, [r7, #20]
 8001980:	f04f 32ff 	mov.w	r2, #4294967295
 8001984:	69bb      	ldr	r3, [r7, #24]
 8001986:	fa02 f303 	lsl.w	r3, r2, r3
 800198a:	43da      	mvns	r2, r3
 800198c:	68bb      	ldr	r3, [r7, #8]
 800198e:	401a      	ands	r2, r3
 8001990:	697b      	ldr	r3, [r7, #20]
 8001992:	409a      	lsls	r2, r3
 8001994:	f04f 31ff 	mov.w	r1, #4294967295
 8001998:	697b      	ldr	r3, [r7, #20]
 800199a:	fa01 f303 	lsl.w	r3, r1, r3
 800199e:	43d9      	mvns	r1, r3
 80019a0:	687b      	ldr	r3, [r7, #4]
 80019a2:	400b      	ands	r3, r1
 80019a4:	4313      	orrs	r3, r2
 80019a6:	4618      	mov	r0, r3
 80019a8:	3724      	adds	r7, #36	; 0x24
 80019aa:	46bd      	mov	sp, r7
 80019ac:	f85d 7b04 	ldr.w	r7, [sp], #4
 80019b0:	4770      	bx	lr
	...

080019b4 <SysTick_Config>:
 80019b4:	b580      	push	{r7, lr}
 80019b6:	b082      	sub	sp, #8
 80019b8:	af00      	add	r7, sp, #0
 80019ba:	6078      	str	r0, [r7, #4]
 80019bc:	687b      	ldr	r3, [r7, #4]
 80019be:	3b01      	subs	r3, #1
 80019c0:	f1b3 7f80 	cmp.w	r3, #16777216	; 0x1000000
 80019c4:	d301      	bcc.n	80019ca <SysTick_Config+0x16>
 80019c6:	2301      	movs	r3, #1
 80019c8:	e00f      	b.n	80019ea <SysTick_Config+0x36>
 80019ca:	4a0a      	ldr	r2, [pc, #40]	; (80019f4 <SysTick_Config+0x40>)
 80019cc:	687b      	ldr	r3, [r7, #4]
 80019ce:	3b01      	subs	r3, #1
 80019d0:	6053      	str	r3, [r2, #4]
 80019d2:	210f      	movs	r1, #15
 80019d4:	f04f 30ff 	mov.w	r0, #4294967295
 80019d8:	f7ff ff8e 	bl	80018f8 <__NVIC_SetPriority>
 80019dc:	4b05      	ldr	r3, [pc, #20]	; (80019f4 <SysTick_Config+0x40>)
 80019de:	2200      	movs	r2, #0
 80019e0:	609a      	str	r2, [r3, #8]
 80019e2:	4b04      	ldr	r3, [pc, #16]	; (80019f4 <SysTick_Config+0x40>)
 80019e4:	2207      	movs	r2, #7
 80019e6:	601a      	str	r2, [r3, #0]
 80019e8:	2300      	movs	r3, #0
 80019ea:	4618      	mov	r0, r3
 80019ec:	3708      	adds	r7, #8
 80019ee:	46bd      	mov	sp, r7
 80019f0:	bd80      	pop	{r7, pc}
 80019f2:	bf00      	nop
 80019f4:	e000e010 	.word	0xe000e010

080019f8 <HAL_NVIC_SetPriorityGrouping>:
 80019f8:	b580      	push	{r7, lr}
 80019fa:	b082      	sub	sp, #8
 80019fc:	af00      	add	r7, sp, #0
 80019fe:	6078      	str	r0, [r7, #4]
 8001a00:	6878      	ldr	r0, [r7, #4]
 8001a02:	f7ff ff29 	bl	8001858 <__NVIC_SetPriorityGrouping>
 8001a06:	bf00      	nop
 8001a08:	3708      	adds	r7, #8
 8001a0a:	46bd      	mov	sp, r7
 8001a0c:	bd80      	pop	{r7, pc}

08001a0e <HAL_NVIC_SetPriority>:
 8001a0e:	b580      	push	{r7, lr}
 8001a10:	b086      	sub	sp, #24
 8001a12:	af00      	add	r7, sp, #0
 8001a14:	4603      	mov	r3, r0
 8001a16:	60b9      	str	r1, [r7, #8]
 8001a18:	607a      	str	r2, [r7, #4]
 8001a1a:	73fb      	strb	r3, [r7, #15]
 8001a1c:	2300      	movs	r3, #0
 8001a1e:	617b      	str	r3, [r7, #20]
 8001a20:	f7ff ff3e 	bl	80018a0 <__NVIC_GetPriorityGrouping>
 8001a24:	6178      	str	r0, [r7, #20]
 8001a26:	687a      	ldr	r2, [r7, #4]
 8001a28:	68b9      	ldr	r1, [r7, #8]
 8001a2a:	6978      	ldr	r0, [r7, #20]
 8001a2c:	f7ff ff8e 	bl	800194c <NVIC_EncodePriority>
 8001a30:	4602      	mov	r2, r0
 8001a32:	f997 300f 	ldrsb.w	r3, [r7, #15]
 8001a36:	4611      	mov	r1, r2
 8001a38:	4618      	mov	r0, r3
 8001a3a:	f7ff ff5d 	bl	80018f8 <__NVIC_SetPriority>
 8001a3e:	bf00      	nop
 8001a40:	3718      	adds	r7, #24
 8001a42:	46bd      	mov	sp, r7
 8001a44:	bd80      	pop	{r7, pc}

08001a46 <HAL_NVIC_EnableIRQ>:
 8001a46:	b580      	push	{r7, lr}
 8001a48:	b082      	sub	sp, #8
 8001a4a:	af00      	add	r7, sp, #0
 8001a4c:	4603      	mov	r3, r0
 8001a4e:	71fb      	strb	r3, [r7, #7]
 8001a50:	f997 3007 	ldrsb.w	r3, [r7, #7]
 8001a54:	4618      	mov	r0, r3
 8001a56:	f7ff ff31 	bl	80018bc <__NVIC_EnableIRQ>
 8001a5a:	bf00      	nop
 8001a5c:	3708      	adds	r7, #8
 8001a5e:	46bd      	mov	sp, r7
 8001a60:	bd80      	pop	{r7, pc}

08001a62 <HAL_SYSTICK_Config>:
 8001a62:	b580      	push	{r7, lr}
 8001a64:	b082      	sub	sp, #8
 8001a66:	af00      	add	r7, sp, #0
 8001a68:	6078      	str	r0, [r7, #4]
 8001a6a:	6878      	ldr	r0, [r7, #4]
 8001a6c:	f7ff ffa2 	bl	80019b4 <SysTick_Config>
 8001a70:	4603      	mov	r3, r0
 8001a72:	4618      	mov	r0, r3
 8001a74:	3708      	adds	r7, #8
 8001a76:	46bd      	mov	sp, r7
 8001a78:	bd80      	pop	{r7, pc}

08001a7a <HAL_DMA_Abort>:
 8001a7a:	b480      	push	{r7}
 8001a7c:	b085      	sub	sp, #20
 8001a7e:	af00      	add	r7, sp, #0
 8001a80:	6078      	str	r0, [r7, #4]
 8001a82:	2300      	movs	r3, #0
 8001a84:	73fb      	strb	r3, [r7, #15]
 8001a86:	687b      	ldr	r3, [r7, #4]
 8001a88:	f893 3025 	ldrb.w	r3, [r3, #37]	; 0x25
 8001a8c:	b2db      	uxtb	r3, r3
 8001a8e:	2b02      	cmp	r3, #2
 8001a90:	d008      	beq.n	8001aa4 <HAL_DMA_Abort+0x2a>
 8001a92:	687b      	ldr	r3, [r7, #4]
 8001a94:	2204      	movs	r2, #4
 8001a96:	63da      	str	r2, [r3, #60]	; 0x3c
 8001a98:	687b      	ldr	r3, [r7, #4]
 8001a9a:	2200      	movs	r2, #0
 8001a9c:	f883 2024 	strb.w	r2, [r3, #36]	; 0x24
 8001aa0:	2301      	movs	r3, #1
 8001aa2:	e022      	b.n	8001aea <HAL_DMA_Abort+0x70>
 8001aa4:	687b      	ldr	r3, [r7, #4]
 8001aa6:	681b      	ldr	r3, [r3, #0]
 8001aa8:	681a      	ldr	r2, [r3, #0]
 8001aaa:	687b      	ldr	r3, [r7, #4]
 8001aac:	681b      	ldr	r3, [r3, #0]
 8001aae:	f022 020e 	bic.w	r2, r2, #14
 8001ab2:	601a      	str	r2, [r3, #0]
 8001ab4:	687b      	ldr	r3, [r7, #4]
 8001ab6:	681b      	ldr	r3, [r3, #0]
 8001ab8:	681a      	ldr	r2, [r3, #0]
 8001aba:	687b      	ldr	r3, [r7, #4]
 8001abc:	681b      	ldr	r3, [r3, #0]
 8001abe:	f022 0201 	bic.w	r2, r2, #1
 8001ac2:	601a      	str	r2, [r3, #0]
 8001ac4:	687b      	ldr	r3, [r7, #4]
 8001ac6:	6c5b      	ldr	r3, [r3, #68]	; 0x44
 8001ac8:	f003 021c 	and.w	r2, r3, #28
 8001acc:	687b      	ldr	r3, [r7, #4]
 8001ace:	6c1b      	ldr	r3, [r3, #64]	; 0x40
 8001ad0:	2101      	movs	r1, #1
 8001ad2:	fa01 f202 	lsl.w	r2, r1, r2
 8001ad6:	605a      	str	r2, [r3, #4]
 8001ad8:	687b      	ldr	r3, [r7, #4]
 8001ada:	2201      	movs	r2, #1
 8001adc:	f883 2025 	strb.w	r2, [r3, #37]	; 0x25
 8001ae0:	687b      	ldr	r3, [r7, #4]
 8001ae2:	2200      	movs	r2, #0
 8001ae4:	f883 2024 	strb.w	r2, [r3, #36]	; 0x24
 8001ae8:	7bfb      	ldrb	r3, [r7, #15]
 8001aea:	4618      	mov	r0, r3
 8001aec:	3714      	adds	r7, #20
 8001aee:	46bd      	mov	sp, r7
 8001af0:	f85d 7b04 	ldr.w	r7, [sp], #4
 8001af4:	4770      	bx	lr

08001af6 <HAL_DMA_Abort_IT>:
 8001af6:	b580      	push	{r7, lr}
 8001af8:	b084      	sub	sp, #16
 8001afa:	af00      	add	r7, sp, #0
 8001afc:	6078      	str	r0, [r7, #4]
 8001afe:	2300      	movs	r3, #0
 8001b00:	73fb      	strb	r3, [r7, #15]
 8001b02:	687b      	ldr	r3, [r7, #4]
 8001b04:	f893 3025 	ldrb.w	r3, [r3, #37]	; 0x25
 8001b08:	b2db      	uxtb	r3, r3
 8001b0a:	2b02      	cmp	r3, #2
 8001b0c:	d005      	beq.n	8001b1a <HAL_DMA_Abort_IT+0x24>
 8001b0e:	687b      	ldr	r3, [r7, #4]
 8001b10:	2204      	movs	r2, #4
 8001b12:	63da      	str	r2, [r3, #60]	; 0x3c
 8001b14:	2301      	movs	r3, #1
 8001b16:	73fb      	strb	r3, [r7, #15]
 8001b18:	e029      	b.n	8001b6e <HAL_DMA_Abort_IT+0x78>
 8001b1a:	687b      	ldr	r3, [r7, #4]
 8001b1c:	681b      	ldr	r3, [r3, #0]
 8001b1e:	681a      	ldr	r2, [r3, #0]
 8001b20:	687b      	ldr	r3, [r7, #4]
 8001b22:	681b      	ldr	r3, [r3, #0]
 8001b24:	f022 020e 	bic.w	r2, r2, #14
 8001b28:	601a      	str	r2, [r3, #0]
 8001b2a:	687b      	ldr	r3, [r7, #4]
 8001b2c:	681b      	ldr	r3, [r3, #0]
 8001b2e:	681a      	ldr	r2, [r3, #0]
 8001b30:	687b      	ldr	r3, [r7, #4]
 8001b32:	681b      	ldr	r3, [r3, #0]
 8001b34:	f022 0201 	bic.w	r2, r2, #1
 8001b38:	601a      	str	r2, [r3, #0]
 8001b3a:	687b      	ldr	r3, [r7, #4]
 8001b3c:	6c5b      	ldr	r3, [r3, #68]	; 0x44
 8001b3e:	f003 021c 	and.w	r2, r3, #28
 8001b42:	687b      	ldr	r3, [r7, #4]
 8001b44:	6c1b      	ldr	r3, [r3, #64]	; 0x40
 8001b46:	2101      	movs	r1, #1
 8001b48:	fa01 f202 	lsl.w	r2, r1, r2
 8001b4c:	605a      	str	r2, [r3, #4]
 8001b4e:	687b      	ldr	r3, [r7, #4]
 8001b50:	2201      	movs	r2, #1
 8001b52:	f883 2025 	strb.w	r2, [r3, #37]	; 0x25
 8001b56:	687b      	ldr	r3, [r7, #4]
 8001b58:	2200      	movs	r2, #0
 8001b5a:	f883 2024 	strb.w	r2, [r3, #36]	; 0x24
 8001b5e:	687b      	ldr	r3, [r7, #4]
 8001b60:	6b9b      	ldr	r3, [r3, #56]	; 0x38
 8001b62:	2b00      	cmp	r3, #0
 8001b64:	d003      	beq.n	8001b6e <HAL_DMA_Abort_IT+0x78>
 8001b66:	687b      	ldr	r3, [r7, #4]
 8001b68:	6b9b      	ldr	r3, [r3, #56]	; 0x38
 8001b6a:	6878      	ldr	r0, [r7, #4]
 8001b6c:	4798      	blx	r3
 8001b6e:	7bfb      	ldrb	r3, [r7, #15]
 8001b70:	4618      	mov	r0, r3
 8001b72:	3710      	adds	r7, #16
 8001b74:	46bd      	mov	sp, r7
 8001b76:	bd80      	pop	{r7, pc}

08001b78 <HAL_GPIO_Init>:
 8001b78:	b480      	push	{r7}
 8001b7a:	b087      	sub	sp, #28
 8001b7c:	af00      	add	r7, sp, #0
 8001b7e:	6078      	str	r0, [r7, #4]
 8001b80:	6039      	str	r1, [r7, #0]
 8001b82:	2300      	movs	r3, #0
 8001b84:	617b      	str	r3, [r7, #20]
 8001b86:	e154      	b.n	8001e32 <HAL_GPIO_Init+0x2ba>
 8001b88:	683b      	ldr	r3, [r7, #0]
 8001b8a:	681a      	ldr	r2, [r3, #0]
 8001b8c:	2101      	movs	r1, #1
 8001b8e:	697b      	ldr	r3, [r7, #20]
 8001b90:	fa01 f303 	lsl.w	r3, r1, r3
 8001b94:	4013      	ands	r3, r2
 8001b96:	60fb      	str	r3, [r7, #12]
 8001b98:	68fb      	ldr	r3, [r7, #12]
 8001b9a:	2b00      	cmp	r3, #0
 8001b9c:	f000 8146 	beq.w	8001e2c <HAL_GPIO_Init+0x2b4>
 8001ba0:	683b      	ldr	r3, [r7, #0]
 8001ba2:	685b      	ldr	r3, [r3, #4]
 8001ba4:	f003 0303 	and.w	r3, r3, #3
 8001ba8:	2b01      	cmp	r3, #1
 8001baa:	d005      	beq.n	8001bb8 <HAL_GPIO_Init+0x40>
 8001bac:	683b      	ldr	r3, [r7, #0]
 8001bae:	685b      	ldr	r3, [r3, #4]
 8001bb0:	f003 0303 	and.w	r3, r3, #3
 8001bb4:	2b02      	cmp	r3, #2
 8001bb6:	d130      	bne.n	8001c1a <HAL_GPIO_Init+0xa2>
 8001bb8:	687b      	ldr	r3, [r7, #4]
 8001bba:	689b      	ldr	r3, [r3, #8]
 8001bbc:	613b      	str	r3, [r7, #16]
 8001bbe:	697b      	ldr	r3, [r7, #20]
 8001bc0:	005b      	lsls	r3, r3, #1
 8001bc2:	2203      	movs	r2, #3
 8001bc4:	fa02 f303 	lsl.w	r3, r2, r3
 8001bc8:	43db      	mvns	r3, r3
 8001bca:	693a      	ldr	r2, [r7, #16]
 8001bcc:	4013      	ands	r3, r2
 8001bce:	613b      	str	r3, [r7, #16]
 8001bd0:	683b      	ldr	r3, [r7, #0]
 8001bd2:	68da      	ldr	r2, [r3, #12]
 8001bd4:	697b      	ldr	r3, [r7, #20]
 8001bd6:	005b      	lsls	r3, r3, #1
 8001bd8:	fa02 f303 	lsl.w	r3, r2, r3
 8001bdc:	693a      	ldr	r2, [r7, #16]
 8001bde:	4313      	orrs	r3, r2
 8001be0:	613b      	str	r3, [r7, #16]
 8001be2:	687b      	ldr	r3, [r7, #4]
 8001be4:	693a      	ldr	r2, [r7, #16]
 8001be6:	609a      	str	r2, [r3, #8]
 8001be8:	687b      	ldr	r3, [r7, #4]
 8001bea:	685b      	ldr	r3, [r3, #4]
 8001bec:	613b      	str	r3, [r7, #16]
 8001bee:	2201      	movs	r2, #1
 8001bf0:	697b      	ldr	r3, [r7, #20]
 8001bf2:	fa02 f303 	lsl.w	r3, r2, r3
 8001bf6:	43db      	mvns	r3, r3
 8001bf8:	693a      	ldr	r2, [r7, #16]
 8001bfa:	4013      	ands	r3, r2
 8001bfc:	613b      	str	r3, [r7, #16]
 8001bfe:	683b      	ldr	r3, [r7, #0]
 8001c00:	685b      	ldr	r3, [r3, #4]
 8001c02:	091b      	lsrs	r3, r3, #4
 8001c04:	f003 0201 	and.w	r2, r3, #1
 8001c08:	697b      	ldr	r3, [r7, #20]
 8001c0a:	fa02 f303 	lsl.w	r3, r2, r3
 8001c0e:	693a      	ldr	r2, [r7, #16]
 8001c10:	4313      	orrs	r3, r2
 8001c12:	613b      	str	r3, [r7, #16]
 8001c14:	687b      	ldr	r3, [r7, #4]
 8001c16:	693a      	ldr	r2, [r7, #16]
 8001c18:	605a      	str	r2, [r3, #4]
 8001c1a:	683b      	ldr	r3, [r7, #0]
 8001c1c:	685b      	ldr	r3, [r3, #4]
 8001c1e:	f003 0303 	and.w	r3, r3, #3
 8001c22:	2b03      	cmp	r3, #3
 8001c24:	d017      	beq.n	8001c56 <HAL_GPIO_Init+0xde>
 8001c26:	687b      	ldr	r3, [r7, #4]
 8001c28:	68db      	ldr	r3, [r3, #12]
 8001c2a:	613b      	str	r3, [r7, #16]
 8001c2c:	697b      	ldr	r3, [r7, #20]
 8001c2e:	005b      	lsls	r3, r3, #1
 8001c30:	2203      	movs	r2, #3
 8001c32:	fa02 f303 	lsl.w	r3, r2, r3
 8001c36:	43db      	mvns	r3, r3
 8001c38:	693a      	ldr	r2, [r7, #16]
 8001c3a:	4013      	ands	r3, r2
 8001c3c:	613b      	str	r3, [r7, #16]
 8001c3e:	683b      	ldr	r3, [r7, #0]
 8001c40:	689a      	ldr	r2, [r3, #8]
 8001c42:	697b      	ldr	r3, [r7, #20]
 8001c44:	005b      	lsls	r3, r3, #1
 8001c46:	fa02 f303 	lsl.w	r3, r2, r3
 8001c4a:	693a      	ldr	r2, [r7, #16]
 8001c4c:	4313      	orrs	r3, r2
 8001c4e:	613b      	str	r3, [r7, #16]
 8001c50:	687b      	ldr	r3, [r7, #4]
 8001c52:	693a      	ldr	r2, [r7, #16]
 8001c54:	60da      	str	r2, [r3, #12]
 8001c56:	683b      	ldr	r3, [r7, #0]
 8001c58:	685b      	ldr	r3, [r3, #4]
 8001c5a:	f003 0303 	and.w	r3, r3, #3
 8001c5e:	2b02      	cmp	r3, #2
 8001c60:	d123      	bne.n	8001caa <HAL_GPIO_Init+0x132>
 8001c62:	697b      	ldr	r3, [r7, #20]
 8001c64:	08da      	lsrs	r2, r3, #3
 8001c66:	687b      	ldr	r3, [r7, #4]
 8001c68:	3208      	adds	r2, #8
 8001c6a:	f853 3022 	ldr.w	r3, [r3, r2, lsl #2]
 8001c6e:	613b      	str	r3, [r7, #16]
 8001c70:	697b      	ldr	r3, [r7, #20]
 8001c72:	f003 0307 	and.w	r3, r3, #7
 8001c76:	009b      	lsls	r3, r3, #2
 8001c78:	220f      	movs	r2, #15
 8001c7a:	fa02 f303 	lsl.w	r3, r2, r3
 8001c7e:	43db      	mvns	r3, r3
 8001c80:	693a      	ldr	r2, [r7, #16]
 8001c82:	4013      	ands	r3, r2
 8001c84:	613b      	str	r3, [r7, #16]
 8001c86:	683b      	ldr	r3, [r7, #0]
 8001c88:	691a      	ldr	r2, [r3, #16]
 8001c8a:	697b      	ldr	r3, [r7, #20]
 8001c8c:	f003 0307 	and.w	r3, r3, #7
 8001c90:	009b      	lsls	r3, r3, #2
 8001c92:	fa02 f303 	lsl.w	r3, r2, r3
 8001c96:	693a      	ldr	r2, [r7, #16]
 8001c98:	4313      	orrs	r3, r2
 8001c9a:	613b      	str	r3, [r7, #16]
 8001c9c:	697b      	ldr	r3, [r7, #20]
 8001c9e:	08da      	lsrs	r2, r3, #3
 8001ca0:	687b      	ldr	r3, [r7, #4]
 8001ca2:	3208      	adds	r2, #8
 8001ca4:	6939      	ldr	r1, [r7, #16]
 8001ca6:	f843 1022 	str.w	r1, [r3, r2, lsl #2]
 8001caa:	687b      	ldr	r3, [r7, #4]
 8001cac:	681b      	ldr	r3, [r3, #0]
 8001cae:	613b      	str	r3, [r7, #16]
 8001cb0:	697b      	ldr	r3, [r7, #20]
 8001cb2:	005b      	lsls	r3, r3, #1
 8001cb4:	2203      	movs	r2, #3
 8001cb6:	fa02 f303 	lsl.w	r3, r2, r3
 8001cba:	43db      	mvns	r3, r3
 8001cbc:	693a      	ldr	r2, [r7, #16]
 8001cbe:	4013      	ands	r3, r2
 8001cc0:	613b      	str	r3, [r7, #16]
 8001cc2:	683b      	ldr	r3, [r7, #0]
 8001cc4:	685b      	ldr	r3, [r3, #4]
 8001cc6:	f003 0203 	and.w	r2, r3, #3
 8001cca:	697b      	ldr	r3, [r7, #20]
 8001ccc:	005b      	lsls	r3, r3, #1
 8001cce:	fa02 f303 	lsl.w	r3, r2, r3
 8001cd2:	693a      	ldr	r2, [r7, #16]
 8001cd4:	4313      	orrs	r3, r2
 8001cd6:	613b      	str	r3, [r7, #16]
 8001cd8:	687b      	ldr	r3, [r7, #4]
 8001cda:	693a      	ldr	r2, [r7, #16]
 8001cdc:	601a      	str	r2, [r3, #0]
 8001cde:	683b      	ldr	r3, [r7, #0]
 8001ce0:	685b      	ldr	r3, [r3, #4]
 8001ce2:	f403 3340 	and.w	r3, r3, #196608	; 0x30000
 8001ce6:	2b00      	cmp	r3, #0
 8001ce8:	f000 80a0 	beq.w	8001e2c <HAL_GPIO_Init+0x2b4>
 8001cec:	4b58      	ldr	r3, [pc, #352]	; (8001e50 <HAL_GPIO_Init+0x2d8>)
 8001cee:	6e1b      	ldr	r3, [r3, #96]	; 0x60
 8001cf0:	4a57      	ldr	r2, [pc, #348]	; (8001e50 <HAL_GPIO_Init+0x2d8>)
 8001cf2:	f043 0301 	orr.w	r3, r3, #1
 8001cf6:	6613      	str	r3, [r2, #96]	; 0x60
 8001cf8:	4b55      	ldr	r3, [pc, #340]	; (8001e50 <HAL_GPIO_Init+0x2d8>)
 8001cfa:	6e1b      	ldr	r3, [r3, #96]	; 0x60
 8001cfc:	f003 0301 	and.w	r3, r3, #1
 8001d00:	60bb      	str	r3, [r7, #8]
 8001d02:	68bb      	ldr	r3, [r7, #8]
 8001d04:	4a53      	ldr	r2, [pc, #332]	; (8001e54 <HAL_GPIO_Init+0x2dc>)
 8001d06:	697b      	ldr	r3, [r7, #20]
 8001d08:	089b      	lsrs	r3, r3, #2
 8001d0a:	3302      	adds	r3, #2
 8001d0c:	f852 3023 	ldr.w	r3, [r2, r3, lsl #2]
 8001d10:	613b      	str	r3, [r7, #16]
 8001d12:	697b      	ldr	r3, [r7, #20]
 8001d14:	f003 0303 	and.w	r3, r3, #3
 8001d18:	009b      	lsls	r3, r3, #2
 8001d1a:	220f      	movs	r2, #15
 8001d1c:	fa02 f303 	lsl.w	r3, r2, r3
 8001d20:	43db      	mvns	r3, r3
 8001d22:	693a      	ldr	r2, [r7, #16]
 8001d24:	4013      	ands	r3, r2
 8001d26:	613b      	str	r3, [r7, #16]
 8001d28:	687b      	ldr	r3, [r7, #4]
 8001d2a:	f1b3 4f90 	cmp.w	r3, #1207959552	; 0x48000000
 8001d2e:	d019      	beq.n	8001d64 <HAL_GPIO_Init+0x1ec>
 8001d30:	687b      	ldr	r3, [r7, #4]
 8001d32:	4a49      	ldr	r2, [pc, #292]	; (8001e58 <HAL_GPIO_Init+0x2e0>)
 8001d34:	4293      	cmp	r3, r2
 8001d36:	d013      	beq.n	8001d60 <HAL_GPIO_Init+0x1e8>
 8001d38:	687b      	ldr	r3, [r7, #4]
 8001d3a:	4a48      	ldr	r2, [pc, #288]	; (8001e5c <HAL_GPIO_Init+0x2e4>)
 8001d3c:	4293      	cmp	r3, r2
 8001d3e:	d00d      	beq.n	8001d5c <HAL_GPIO_Init+0x1e4>
 8001d40:	687b      	ldr	r3, [r7, #4]
 8001d42:	4a47      	ldr	r2, [pc, #284]	; (8001e60 <HAL_GPIO_Init+0x2e8>)
 8001d44:	4293      	cmp	r3, r2
 8001d46:	d007      	beq.n	8001d58 <HAL_GPIO_Init+0x1e0>
 8001d48:	687b      	ldr	r3, [r7, #4]
 8001d4a:	4a46      	ldr	r2, [pc, #280]	; (8001e64 <HAL_GPIO_Init+0x2ec>)
 8001d4c:	4293      	cmp	r3, r2
 8001d4e:	d101      	bne.n	8001d54 <HAL_GPIO_Init+0x1dc>
 8001d50:	2304      	movs	r3, #4
 8001d52:	e008      	b.n	8001d66 <HAL_GPIO_Init+0x1ee>
 8001d54:	2307      	movs	r3, #7
 8001d56:	e006      	b.n	8001d66 <HAL_GPIO_Init+0x1ee>
 8001d58:	2303      	movs	r3, #3
 8001d5a:	e004      	b.n	8001d66 <HAL_GPIO_Init+0x1ee>
 8001d5c:	2302      	movs	r3, #2
 8001d5e:	e002      	b.n	8001d66 <HAL_GPIO_Init+0x1ee>
 8001d60:	2301      	movs	r3, #1
 8001d62:	e000      	b.n	8001d66 <HAL_GPIO_Init+0x1ee>
 8001d64:	2300      	movs	r3, #0
 8001d66:	697a      	ldr	r2, [r7, #20]
 8001d68:	f002 0203 	and.w	r2, r2, #3
 8001d6c:	0092      	lsls	r2, r2, #2
 8001d6e:	4093      	lsls	r3, r2
 8001d70:	693a      	ldr	r2, [r7, #16]
 8001d72:	4313      	orrs	r3, r2
 8001d74:	613b      	str	r3, [r7, #16]
 8001d76:	4937      	ldr	r1, [pc, #220]	; (8001e54 <HAL_GPIO_Init+0x2dc>)
 8001d78:	697b      	ldr	r3, [r7, #20]
 8001d7a:	089b      	lsrs	r3, r3, #2
 8001d7c:	3302      	adds	r3, #2
 8001d7e:	693a      	ldr	r2, [r7, #16]
 8001d80:	f841 2023 	str.w	r2, [r1, r3, lsl #2]
 8001d84:	4b38      	ldr	r3, [pc, #224]	; (8001e68 <HAL_GPIO_Init+0x2f0>)
 8001d86:	689b      	ldr	r3, [r3, #8]
 8001d88:	613b      	str	r3, [r7, #16]
 8001d8a:	68fb      	ldr	r3, [r7, #12]
 8001d8c:	43db      	mvns	r3, r3
 8001d8e:	693a      	ldr	r2, [r7, #16]
 8001d90:	4013      	ands	r3, r2
 8001d92:	613b      	str	r3, [r7, #16]
 8001d94:	683b      	ldr	r3, [r7, #0]
 8001d96:	685b      	ldr	r3, [r3, #4]
 8001d98:	f403 1380 	and.w	r3, r3, #1048576	; 0x100000
 8001d9c:	2b00      	cmp	r3, #0
 8001d9e:	d003      	beq.n	8001da8 <HAL_GPIO_Init+0x230>
 8001da0:	693a      	ldr	r2, [r7, #16]
 8001da2:	68fb      	ldr	r3, [r7, #12]
 8001da4:	4313      	orrs	r3, r2
 8001da6:	613b      	str	r3, [r7, #16]
 8001da8:	4a2f      	ldr	r2, [pc, #188]	; (8001e68 <HAL_GPIO_Init+0x2f0>)
 8001daa:	693b      	ldr	r3, [r7, #16]
 8001dac:	6093      	str	r3, [r2, #8]
 8001dae:	4b2e      	ldr	r3, [pc, #184]	; (8001e68 <HAL_GPIO_Init+0x2f0>)
 8001db0:	68db      	ldr	r3, [r3, #12]
 8001db2:	613b      	str	r3, [r7, #16]
 8001db4:	68fb      	ldr	r3, [r7, #12]
 8001db6:	43db      	mvns	r3, r3
 8001db8:	693a      	ldr	r2, [r7, #16]
 8001dba:	4013      	ands	r3, r2
 8001dbc:	613b      	str	r3, [r7, #16]
 8001dbe:	683b      	ldr	r3, [r7, #0]
 8001dc0:	685b      	ldr	r3, [r3, #4]
 8001dc2:	f403 1300 	and.w	r3, r3, #2097152	; 0x200000
 8001dc6:	2b00      	cmp	r3, #0
 8001dc8:	d003      	beq.n	8001dd2 <HAL_GPIO_Init+0x25a>
 8001dca:	693a      	ldr	r2, [r7, #16]
 8001dcc:	68fb      	ldr	r3, [r7, #12]
 8001dce:	4313      	orrs	r3, r2
 8001dd0:	613b      	str	r3, [r7, #16]
 8001dd2:	4a25      	ldr	r2, [pc, #148]	; (8001e68 <HAL_GPIO_Init+0x2f0>)
 8001dd4:	693b      	ldr	r3, [r7, #16]
 8001dd6:	60d3      	str	r3, [r2, #12]
 8001dd8:	4b23      	ldr	r3, [pc, #140]	; (8001e68 <HAL_GPIO_Init+0x2f0>)
 8001dda:	685b      	ldr	r3, [r3, #4]
 8001ddc:	613b      	str	r3, [r7, #16]
 8001dde:	68fb      	ldr	r3, [r7, #12]
 8001de0:	43db      	mvns	r3, r3
 8001de2:	693a      	ldr	r2, [r7, #16]
 8001de4:	4013      	ands	r3, r2
 8001de6:	613b      	str	r3, [r7, #16]
 8001de8:	683b      	ldr	r3, [r7, #0]
 8001dea:	685b      	ldr	r3, [r3, #4]
 8001dec:	f403 3300 	and.w	r3, r3, #131072	; 0x20000
 8001df0:	2b00      	cmp	r3, #0
 8001df2:	d003      	beq.n	8001dfc <HAL_GPIO_Init+0x284>
 8001df4:	693a      	ldr	r2, [r7, #16]
 8001df6:	68fb      	ldr	r3, [r7, #12]
 8001df8:	4313      	orrs	r3, r2
 8001dfa:	613b      	str	r3, [r7, #16]
 8001dfc:	4a1a      	ldr	r2, [pc, #104]	; (8001e68 <HAL_GPIO_Init+0x2f0>)
 8001dfe:	693b      	ldr	r3, [r7, #16]
 8001e00:	6053      	str	r3, [r2, #4]
 8001e02:	4b19      	ldr	r3, [pc, #100]	; (8001e68 <HAL_GPIO_Init+0x2f0>)
 8001e04:	681b      	ldr	r3, [r3, #0]
 8001e06:	613b      	str	r3, [r7, #16]
 8001e08:	68fb      	ldr	r3, [r7, #12]
 8001e0a:	43db      	mvns	r3, r3
 8001e0c:	693a      	ldr	r2, [r7, #16]
 8001e0e:	4013      	ands	r3, r2
 8001e10:	613b      	str	r3, [r7, #16]
 8001e12:	683b      	ldr	r3, [r7, #0]
 8001e14:	685b      	ldr	r3, [r3, #4]
 8001e16:	f403 3380 	and.w	r3, r3, #65536	; 0x10000
 8001e1a:	2b00      	cmp	r3, #0
 8001e1c:	d003      	beq.n	8001e26 <HAL_GPIO_Init+0x2ae>
 8001e1e:	693a      	ldr	r2, [r7, #16]
 8001e20:	68fb      	ldr	r3, [r7, #12]
 8001e22:	4313      	orrs	r3, r2
 8001e24:	613b      	str	r3, [r7, #16]
 8001e26:	4a10      	ldr	r2, [pc, #64]	; (8001e68 <HAL_GPIO_Init+0x2f0>)
 8001e28:	693b      	ldr	r3, [r7, #16]
 8001e2a:	6013      	str	r3, [r2, #0]
 8001e2c:	697b      	ldr	r3, [r7, #20]
 8001e2e:	3301      	adds	r3, #1
 8001e30:	617b      	str	r3, [r7, #20]
 8001e32:	683b      	ldr	r3, [r7, #0]
 8001e34:	681a      	ldr	r2, [r3, #0]
 8001e36:	697b      	ldr	r3, [r7, #20]
 8001e38:	fa22 f303 	lsr.w	r3, r2, r3
 8001e3c:	2b00      	cmp	r3, #0
 8001e3e:	f47f aea3 	bne.w	8001b88 <HAL_GPIO_Init+0x10>
 8001e42:	bf00      	nop
 8001e44:	bf00      	nop
 8001e46:	371c      	adds	r7, #28
 8001e48:	46bd      	mov	sp, r7
 8001e4a:	f85d 7b04 	ldr.w	r7, [sp], #4
 8001e4e:	4770      	bx	lr
 8001e50:	40021000 	.word	0x40021000
 8001e54:	40010000 	.word	0x40010000
 8001e58:	48000400 	.word	0x48000400
 8001e5c:	48000800 	.word	0x48000800
 8001e60:	48000c00 	.word	0x48000c00
 8001e64:	48001000 	.word	0x48001000
 8001e68:	40010400 	.word	0x40010400

08001e6c <HAL_GPIO_WritePin>:
 8001e6c:	b480      	push	{r7}
 8001e6e:	b083      	sub	sp, #12
 8001e70:	af00      	add	r7, sp, #0
 8001e72:	6078      	str	r0, [r7, #4]
 8001e74:	460b      	mov	r3, r1
 8001e76:	807b      	strh	r3, [r7, #2]
 8001e78:	4613      	mov	r3, r2
 8001e7a:	707b      	strb	r3, [r7, #1]
 8001e7c:	787b      	ldrb	r3, [r7, #1]
 8001e7e:	2b00      	cmp	r3, #0
 8001e80:	d003      	beq.n	8001e8a <HAL_GPIO_WritePin+0x1e>
 8001e82:	887a      	ldrh	r2, [r7, #2]
 8001e84:	687b      	ldr	r3, [r7, #4]
 8001e86:	619a      	str	r2, [r3, #24]
 8001e88:	e002      	b.n	8001e90 <HAL_GPIO_WritePin+0x24>
 8001e8a:	887a      	ldrh	r2, [r7, #2]
 8001e8c:	687b      	ldr	r3, [r7, #4]
 8001e8e:	629a      	str	r2, [r3, #40]	; 0x28
 8001e90:	bf00      	nop
 8001e92:	370c      	adds	r7, #12
 8001e94:	46bd      	mov	sp, r7
 8001e96:	f85d 7b04 	ldr.w	r7, [sp], #4
 8001e9a:	4770      	bx	lr

08001e9c <HAL_GPIO_EXTI_IRQHandler>:
 8001e9c:	b580      	push	{r7, lr}
 8001e9e:	b082      	sub	sp, #8
 8001ea0:	af00      	add	r7, sp, #0
 8001ea2:	4603      	mov	r3, r0
 8001ea4:	80fb      	strh	r3, [r7, #6]
 8001ea6:	4b08      	ldr	r3, [pc, #32]	; (8001ec8 <HAL_GPIO_EXTI_IRQHandler+0x2c>)
 8001ea8:	695a      	ldr	r2, [r3, #20]
 8001eaa:	88fb      	ldrh	r3, [r7, #6]
 8001eac:	4013      	ands	r3, r2
 8001eae:	2b00      	cmp	r3, #0
 8001eb0:	d006      	beq.n	8001ec0 <HAL_GPIO_EXTI_IRQHandler+0x24>
 8001eb2:	4a05      	ldr	r2, [pc, #20]	; (8001ec8 <HAL_GPIO_EXTI_IRQHandler+0x2c>)
 8001eb4:	88fb      	ldrh	r3, [r7, #6]
 8001eb6:	6153      	str	r3, [r2, #20]
 8001eb8:	88fb      	ldrh	r3, [r7, #6]
 8001eba:	4618      	mov	r0, r3
 8001ebc:	f7fe ff82 	bl	8000dc4 <HAL_GPIO_EXTI_Callback>
 8001ec0:	bf00      	nop
 8001ec2:	3708      	adds	r7, #8
 8001ec4:	46bd      	mov	sp, r7
 8001ec6:	bd80      	pop	{r7, pc}
 8001ec8:	40010400 	.word	0x40010400

08001ecc <HAL_I2C_Init>:
 8001ecc:	b580      	push	{r7, lr}
 8001ece:	b082      	sub	sp, #8
 8001ed0:	af00      	add	r7, sp, #0
 8001ed2:	6078      	str	r0, [r7, #4]
 8001ed4:	687b      	ldr	r3, [r7, #4]
 8001ed6:	2b00      	cmp	r3, #0
 8001ed8:	d101      	bne.n	8001ede <HAL_I2C_Init+0x12>
 8001eda:	2301      	movs	r3, #1
 8001edc:	e08d      	b.n	8001ffa <HAL_I2C_Init+0x12e>
 8001ede:	687b      	ldr	r3, [r7, #4]
 8001ee0:	f893 3041 	ldrb.w	r3, [r3, #65]	; 0x41
 8001ee4:	b2db      	uxtb	r3, r3
 8001ee6:	2b00      	cmp	r3, #0
 8001ee8:	d106      	bne.n	8001ef8 <HAL_I2C_Init+0x2c>
 8001eea:	687b      	ldr	r3, [r7, #4]
 8001eec:	2200      	movs	r2, #0
 8001eee:	f883 2040 	strb.w	r2, [r3, #64]	; 0x40
 8001ef2:	6878      	ldr	r0, [r7, #4]
 8001ef4:	f7fe ff08 	bl	8000d08 <HAL_I2C_MspInit>
 8001ef8:	687b      	ldr	r3, [r7, #4]
 8001efa:	2224      	movs	r2, #36	; 0x24
 8001efc:	f883 2041 	strb.w	r2, [r3, #65]	; 0x41
 8001f00:	687b      	ldr	r3, [r7, #4]
 8001f02:	681b      	ldr	r3, [r3, #0]
 8001f04:	681a      	ldr	r2, [r3, #0]
 8001f06:	687b      	ldr	r3, [r7, #4]
 8001f08:	681b      	ldr	r3, [r3, #0]
 8001f0a:	f022 0201 	bic.w	r2, r2, #1
 8001f0e:	601a      	str	r2, [r3, #0]
 8001f10:	687b      	ldr	r3, [r7, #4]
 8001f12:	685a      	ldr	r2, [r3, #4]
 8001f14:	687b      	ldr	r3, [r7, #4]
 8001f16:	681b      	ldr	r3, [r3, #0]
 8001f18:	f022 6270 	bic.w	r2, r2, #251658240	; 0xf000000
 8001f1c:	611a      	str	r2, [r3, #16]
 8001f1e:	687b      	ldr	r3, [r7, #4]
 8001f20:	681b      	ldr	r3, [r3, #0]
 8001f22:	689a      	ldr	r2, [r3, #8]
 8001f24:	687b      	ldr	r3, [r7, #4]
 8001f26:	681b      	ldr	r3, [r3, #0]
 8001f28:	f422 4200 	bic.w	r2, r2, #32768	; 0x8000
 8001f2c:	609a      	str	r2, [r3, #8]
 8001f2e:	687b      	ldr	r3, [r7, #4]
 8001f30:	68db      	ldr	r3, [r3, #12]
 8001f32:	2b01      	cmp	r3, #1
 8001f34:	d107      	bne.n	8001f46 <HAL_I2C_Init+0x7a>
 8001f36:	687b      	ldr	r3, [r7, #4]
 8001f38:	689a      	ldr	r2, [r3, #8]
 8001f3a:	687b      	ldr	r3, [r7, #4]
 8001f3c:	681b      	ldr	r3, [r3, #0]
 8001f3e:	f442 4200 	orr.w	r2, r2, #32768	; 0x8000
 8001f42:	609a      	str	r2, [r3, #8]
 8001f44:	e006      	b.n	8001f54 <HAL_I2C_Init+0x88>
 8001f46:	687b      	ldr	r3, [r7, #4]
 8001f48:	689a      	ldr	r2, [r3, #8]
 8001f4a:	687b      	ldr	r3, [r7, #4]
 8001f4c:	681b      	ldr	r3, [r3, #0]
 8001f4e:	f442 4204 	orr.w	r2, r2, #33792	; 0x8400
 8001f52:	609a      	str	r2, [r3, #8]
 8001f54:	687b      	ldr	r3, [r7, #4]
 8001f56:	68db      	ldr	r3, [r3, #12]
 8001f58:	2b02      	cmp	r3, #2
 8001f5a:	d108      	bne.n	8001f6e <HAL_I2C_Init+0xa2>
 8001f5c:	687b      	ldr	r3, [r7, #4]
 8001f5e:	681b      	ldr	r3, [r3, #0]
 8001f60:	685a      	ldr	r2, [r3, #4]
 8001f62:	687b      	ldr	r3, [r7, #4]
 8001f64:	681b      	ldr	r3, [r3, #0]
 8001f66:	f442 6200 	orr.w	r2, r2, #2048	; 0x800
 8001f6a:	605a      	str	r2, [r3, #4]
 8001f6c:	e007      	b.n	8001f7e <HAL_I2C_Init+0xb2>
 8001f6e:	687b      	ldr	r3, [r7, #4]
 8001f70:	681b      	ldr	r3, [r3, #0]
 8001f72:	685a      	ldr	r2, [r3, #4]
 8001f74:	687b      	ldr	r3, [r7, #4]
 8001f76:	681b      	ldr	r3, [r3, #0]
 8001f78:	f422 6200 	bic.w	r2, r2, #2048	; 0x800
 8001f7c:	605a      	str	r2, [r3, #4]
 8001f7e:	687b      	ldr	r3, [r7, #4]
 8001f80:	681b      	ldr	r3, [r3, #0]
 8001f82:	685b      	ldr	r3, [r3, #4]
 8001f84:	687a      	ldr	r2, [r7, #4]
 8001f86:	6812      	ldr	r2, [r2, #0]
 8001f88:	f043 7300 	orr.w	r3, r3, #33554432	; 0x2000000
 8001f8c:	f443 4300 	orr.w	r3, r3, #32768	; 0x8000
 8001f90:	6053      	str	r3, [r2, #4]
 8001f92:	687b      	ldr	r3, [r7, #4]
 8001f94:	681b      	ldr	r3, [r3, #0]
 8001f96:	68da      	ldr	r2, [r3, #12]
 8001f98:	687b      	ldr	r3, [r7, #4]
 8001f9a:	681b      	ldr	r3, [r3, #0]
 8001f9c:	f422 4200 	bic.w	r2, r2, #32768	; 0x8000
 8001fa0:	60da      	str	r2, [r3, #12]
 8001fa2:	687b      	ldr	r3, [r7, #4]
 8001fa4:	691a      	ldr	r2, [r3, #16]
 8001fa6:	687b      	ldr	r3, [r7, #4]
 8001fa8:	695b      	ldr	r3, [r3, #20]
 8001faa:	ea42 0103 	orr.w	r1, r2, r3
 8001fae:	687b      	ldr	r3, [r7, #4]
 8001fb0:	699b      	ldr	r3, [r3, #24]
 8001fb2:	021a      	lsls	r2, r3, #8
 8001fb4:	687b      	ldr	r3, [r7, #4]
 8001fb6:	681b      	ldr	r3, [r3, #0]
 8001fb8:	430a      	orrs	r2, r1
 8001fba:	60da      	str	r2, [r3, #12]
 8001fbc:	687b      	ldr	r3, [r7, #4]
 8001fbe:	69d9      	ldr	r1, [r3, #28]
 8001fc0:	687b      	ldr	r3, [r7, #4]
 8001fc2:	6a1a      	ldr	r2, [r3, #32]
 8001fc4:	687b      	ldr	r3, [r7, #4]
 8001fc6:	681b      	ldr	r3, [r3, #0]
 8001fc8:	430a      	orrs	r2, r1
 8001fca:	601a      	str	r2, [r3, #0]
 8001fcc:	687b      	ldr	r3, [r7, #4]
 8001fce:	681b      	ldr	r3, [r3, #0]
 8001fd0:	681a      	ldr	r2, [r3, #0]
 8001fd2:	687b      	ldr	r3, [r7, #4]
 8001fd4:	681b      	ldr	r3, [r3, #0]
 8001fd6:	f042 0201 	orr.w	r2, r2, #1
 8001fda:	601a      	str	r2, [r3, #0]
 8001fdc:	687b      	ldr	r3, [r7, #4]
 8001fde:	2200      	movs	r2, #0
 8001fe0:	645a      	str	r2, [r3, #68]	; 0x44
 8001fe2:	687b      	ldr	r3, [r7, #4]
 8001fe4:	2220      	movs	r2, #32
 8001fe6:	f883 2041 	strb.w	r2, [r3, #65]	; 0x41
 8001fea:	687b      	ldr	r3, [r7, #4]
 8001fec:	2200      	movs	r2, #0
 8001fee:	631a      	str	r2, [r3, #48]	; 0x30
 8001ff0:	687b      	ldr	r3, [r7, #4]
 8001ff2:	2200      	movs	r2, #0
 8001ff4:	f883 2042 	strb.w	r2, [r3, #66]	; 0x42
 8001ff8:	2300      	movs	r3, #0
 8001ffa:	4618      	mov	r0, r3
 8001ffc:	3708      	adds	r7, #8
 8001ffe:	46bd      	mov	sp, r7
 8002000:	bd80      	pop	{r7, pc}
	...

08002004 <HAL_I2C_Mem_Write>:
 8002004:	b580      	push	{r7, lr}
 8002006:	b088      	sub	sp, #32
 8002008:	af02      	add	r7, sp, #8
 800200a:	60f8      	str	r0, [r7, #12]
 800200c:	4608      	mov	r0, r1
 800200e:	4611      	mov	r1, r2
 8002010:	461a      	mov	r2, r3
 8002012:	4603      	mov	r3, r0
 8002014:	817b      	strh	r3, [r7, #10]
 8002016:	460b      	mov	r3, r1
 8002018:	813b      	strh	r3, [r7, #8]
 800201a:	4613      	mov	r3, r2
 800201c:	80fb      	strh	r3, [r7, #6]
 800201e:	68fb      	ldr	r3, [r7, #12]
 8002020:	f893 3041 	ldrb.w	r3, [r3, #65]	; 0x41
 8002024:	b2db      	uxtb	r3, r3
 8002026:	2b20      	cmp	r3, #32
 8002028:	f040 80f9 	bne.w	800221e <HAL_I2C_Mem_Write+0x21a>
 800202c:	6a3b      	ldr	r3, [r7, #32]
 800202e:	2b00      	cmp	r3, #0
 8002030:	d002      	beq.n	8002038 <HAL_I2C_Mem_Write+0x34>
 8002032:	8cbb      	ldrh	r3, [r7, #36]	; 0x24
 8002034:	2b00      	cmp	r3, #0
 8002036:	d105      	bne.n	8002044 <HAL_I2C_Mem_Write+0x40>
 8002038:	68fb      	ldr	r3, [r7, #12]
 800203a:	f44f 7200 	mov.w	r2, #512	; 0x200
 800203e:	645a      	str	r2, [r3, #68]	; 0x44
 8002040:	2301      	movs	r3, #1
 8002042:	e0ed      	b.n	8002220 <HAL_I2C_Mem_Write+0x21c>
 8002044:	68fb      	ldr	r3, [r7, #12]
 8002046:	f893 3040 	ldrb.w	r3, [r3, #64]	; 0x40
 800204a:	2b01      	cmp	r3, #1
 800204c:	d101      	bne.n	8002052 <HAL_I2C_Mem_Write+0x4e>
 800204e:	2302      	movs	r3, #2
 8002050:	e0e6      	b.n	8002220 <HAL_I2C_Mem_Write+0x21c>
 8002052:	68fb      	ldr	r3, [r7, #12]
 8002054:	2201      	movs	r2, #1
 8002056:	f883 2040 	strb.w	r2, [r3, #64]	; 0x40
 800205a:	f7ff fbcd 	bl	80017f8 <HAL_GetTick>
 800205e:	6178      	str	r0, [r7, #20]
 8002060:	697b      	ldr	r3, [r7, #20]
 8002062:	9300      	str	r3, [sp, #0]
 8002064:	2319      	movs	r3, #25
 8002066:	2201      	movs	r2, #1
 8002068:	f44f 4100 	mov.w	r1, #32768	; 0x8000
 800206c:	68f8      	ldr	r0, [r7, #12]
 800206e:	f000 fac3 	bl	80025f8 <I2C_WaitOnFlagUntilTimeout>
 8002072:	4603      	mov	r3, r0
 8002074:	2b00      	cmp	r3, #0
 8002076:	d001      	beq.n	800207c <HAL_I2C_Mem_Write+0x78>
 8002078:	2301      	movs	r3, #1
 800207a:	e0d1      	b.n	8002220 <HAL_I2C_Mem_Write+0x21c>
 800207c:	68fb      	ldr	r3, [r7, #12]
 800207e:	2221      	movs	r2, #33	; 0x21
 8002080:	f883 2041 	strb.w	r2, [r3, #65]	; 0x41
 8002084:	68fb      	ldr	r3, [r7, #12]
 8002086:	2240      	movs	r2, #64	; 0x40
 8002088:	f883 2042 	strb.w	r2, [r3, #66]	; 0x42
 800208c:	68fb      	ldr	r3, [r7, #12]
 800208e:	2200      	movs	r2, #0
 8002090:	645a      	str	r2, [r3, #68]	; 0x44
 8002092:	68fb      	ldr	r3, [r7, #12]
 8002094:	6a3a      	ldr	r2, [r7, #32]
 8002096:	625a      	str	r2, [r3, #36]	; 0x24
 8002098:	68fb      	ldr	r3, [r7, #12]
 800209a:	8cba      	ldrh	r2, [r7, #36]	; 0x24
 800209c:	855a      	strh	r2, [r3, #42]	; 0x2a
 800209e:	68fb      	ldr	r3, [r7, #12]
 80020a0:	2200      	movs	r2, #0
 80020a2:	635a      	str	r2, [r3, #52]	; 0x34
 80020a4:	88f8      	ldrh	r0, [r7, #6]
 80020a6:	893a      	ldrh	r2, [r7, #8]
 80020a8:	8979      	ldrh	r1, [r7, #10]
 80020aa:	697b      	ldr	r3, [r7, #20]
 80020ac:	9301      	str	r3, [sp, #4]
 80020ae:	6abb      	ldr	r3, [r7, #40]	; 0x28
 80020b0:	9300      	str	r3, [sp, #0]
 80020b2:	4603      	mov	r3, r0
 80020b4:	68f8      	ldr	r0, [r7, #12]
 80020b6:	f000 f9d3 	bl	8002460 <I2C_RequestMemoryWrite>
 80020ba:	4603      	mov	r3, r0
 80020bc:	2b00      	cmp	r3, #0
 80020be:	d005      	beq.n	80020cc <HAL_I2C_Mem_Write+0xc8>
 80020c0:	68fb      	ldr	r3, [r7, #12]
 80020c2:	2200      	movs	r2, #0
 80020c4:	f883 2040 	strb.w	r2, [r3, #64]	; 0x40
 80020c8:	2301      	movs	r3, #1
 80020ca:	e0a9      	b.n	8002220 <HAL_I2C_Mem_Write+0x21c>
 80020cc:	68fb      	ldr	r3, [r7, #12]
 80020ce:	8d5b      	ldrh	r3, [r3, #42]	; 0x2a
 80020d0:	b29b      	uxth	r3, r3
 80020d2:	2bff      	cmp	r3, #255	; 0xff
 80020d4:	d90e      	bls.n	80020f4 <HAL_I2C_Mem_Write+0xf0>
 80020d6:	68fb      	ldr	r3, [r7, #12]
 80020d8:	22ff      	movs	r2, #255	; 0xff
 80020da:	851a      	strh	r2, [r3, #40]	; 0x28
 80020dc:	68fb      	ldr	r3, [r7, #12]
 80020de:	8d1b      	ldrh	r3, [r3, #40]	; 0x28
 80020e0:	b2da      	uxtb	r2, r3
 80020e2:	8979      	ldrh	r1, [r7, #10]
 80020e4:	2300      	movs	r3, #0
 80020e6:	9300      	str	r3, [sp, #0]
 80020e8:	f04f 7380 	mov.w	r3, #16777216	; 0x1000000
 80020ec:	68f8      	ldr	r0, [r7, #12]
 80020ee:	f000 fc3d 	bl	800296c <I2C_TransferConfig>
 80020f2:	e00f      	b.n	8002114 <HAL_I2C_Mem_Write+0x110>
 80020f4:	68fb      	ldr	r3, [r7, #12]
 80020f6:	8d5b      	ldrh	r3, [r3, #42]	; 0x2a
 80020f8:	b29a      	uxth	r2, r3
 80020fa:	68fb      	ldr	r3, [r7, #12]
 80020fc:	851a      	strh	r2, [r3, #40]	; 0x28
 80020fe:	68fb      	ldr	r3, [r7, #12]
 8002100:	8d1b      	ldrh	r3, [r3, #40]	; 0x28
 8002102:	b2da      	uxtb	r2, r3
 8002104:	8979      	ldrh	r1, [r7, #10]
 8002106:	2300      	movs	r3, #0
 8002108:	9300      	str	r3, [sp, #0]
 800210a:	f04f 7300 	mov.w	r3, #33554432	; 0x2000000
 800210e:	68f8      	ldr	r0, [r7, #12]
 8002110:	f000 fc2c 	bl	800296c <I2C_TransferConfig>
 8002114:	697a      	ldr	r2, [r7, #20]
 8002116:	6ab9      	ldr	r1, [r7, #40]	; 0x28
 8002118:	68f8      	ldr	r0, [r7, #12]
 800211a:	f000 fabc 	bl	8002696 <I2C_WaitOnTXISFlagUntilTimeout>
 800211e:	4603      	mov	r3, r0
 8002120:	2b00      	cmp	r3, #0
 8002122:	d001      	beq.n	8002128 <HAL_I2C_Mem_Write+0x124>
 8002124:	2301      	movs	r3, #1
 8002126:	e07b      	b.n	8002220 <HAL_I2C_Mem_Write+0x21c>
 8002128:	68fb      	ldr	r3, [r7, #12]
 800212a:	6a5b      	ldr	r3, [r3, #36]	; 0x24
 800212c:	781a      	ldrb	r2, [r3, #0]
 800212e:	68fb      	ldr	r3, [r7, #12]
 8002130:	681b      	ldr	r3, [r3, #0]
 8002132:	629a      	str	r2, [r3, #40]	; 0x28
 8002134:	68fb      	ldr	r3, [r7, #12]
 8002136:	6a5b      	ldr	r3, [r3, #36]	; 0x24
 8002138:	1c5a      	adds	r2, r3, #1
 800213a:	68fb      	ldr	r3, [r7, #12]
 800213c:	625a      	str	r2, [r3, #36]	; 0x24
 800213e:	68fb      	ldr	r3, [r7, #12]
 8002140:	8d5b      	ldrh	r3, [r3, #42]	; 0x2a
 8002142:	b29b      	uxth	r3, r3
 8002144:	3b01      	subs	r3, #1
 8002146:	b29a      	uxth	r2, r3
 8002148:	68fb      	ldr	r3, [r7, #12]
 800214a:	855a      	strh	r2, [r3, #42]	; 0x2a
 800214c:	68fb      	ldr	r3, [r7, #12]
 800214e:	8d1b      	ldrh	r3, [r3, #40]	; 0x28
 8002150:	3b01      	subs	r3, #1
 8002152:	b29a      	uxth	r2, r3
 8002154:	68fb      	ldr	r3, [r7, #12]
 8002156:	851a      	strh	r2, [r3, #40]	; 0x28
 8002158:	68fb      	ldr	r3, [r7, #12]
 800215a:	8d5b      	ldrh	r3, [r3, #42]	; 0x2a
 800215c:	b29b      	uxth	r3, r3
 800215e:	2b00      	cmp	r3, #0
 8002160:	d034      	beq.n	80021cc <HAL_I2C_Mem_Write+0x1c8>
 8002162:	68fb      	ldr	r3, [r7, #12]
 8002164:	8d1b      	ldrh	r3, [r3, #40]	; 0x28
 8002166:	2b00      	cmp	r3, #0
 8002168:	d130      	bne.n	80021cc <HAL_I2C_Mem_Write+0x1c8>
 800216a:	697b      	ldr	r3, [r7, #20]
 800216c:	9300      	str	r3, [sp, #0]
 800216e:	6abb      	ldr	r3, [r7, #40]	; 0x28
 8002170:	2200      	movs	r2, #0
 8002172:	2180      	movs	r1, #128	; 0x80
 8002174:	68f8      	ldr	r0, [r7, #12]
 8002176:	f000 fa3f 	bl	80025f8 <I2C_WaitOnFlagUntilTimeout>
 800217a:	4603      	mov	r3, r0
 800217c:	2b00      	cmp	r3, #0
 800217e:	d001      	beq.n	8002184 <HAL_I2C_Mem_Write+0x180>
 8002180:	2301      	movs	r3, #1
 8002182:	e04d      	b.n	8002220 <HAL_I2C_Mem_Write+0x21c>
 8002184:	68fb      	ldr	r3, [r7, #12]
 8002186:	8d5b      	ldrh	r3, [r3, #42]	; 0x2a
 8002188:	b29b      	uxth	r3, r3
 800218a:	2bff      	cmp	r3, #255	; 0xff
 800218c:	d90e      	bls.n	80021ac <HAL_I2C_Mem_Write+0x1a8>
 800218e:	68fb      	ldr	r3, [r7, #12]
 8002190:	22ff      	movs	r2, #255	; 0xff
 8002192:	851a      	strh	r2, [r3, #40]	; 0x28
 8002194:	68fb      	ldr	r3, [r7, #12]
 8002196:	8d1b      	ldrh	r3, [r3, #40]	; 0x28
 8002198:	b2da      	uxtb	r2, r3
 800219a:	8979      	ldrh	r1, [r7, #10]
 800219c:	2300      	movs	r3, #0
 800219e:	9300      	str	r3, [sp, #0]
 80021a0:	f04f 7380 	mov.w	r3, #16777216	; 0x1000000
 80021a4:	68f8      	ldr	r0, [r7, #12]
 80021a6:	f000 fbe1 	bl	800296c <I2C_TransferConfig>
 80021aa:	e00f      	b.n	80021cc <HAL_I2C_Mem_Write+0x1c8>
 80021ac:	68fb      	ldr	r3, [r7, #12]
 80021ae:	8d5b      	ldrh	r3, [r3, #42]	; 0x2a
 80021b0:	b29a      	uxth	r2, r3
 80021b2:	68fb      	ldr	r3, [r7, #12]
 80021b4:	851a      	strh	r2, [r3, #40]	; 0x28
 80021b6:	68fb      	ldr	r3, [r7, #12]
 80021b8:	8d1b      	ldrh	r3, [r3, #40]	; 0x28
 80021ba:	b2da      	uxtb	r2, r3
 80021bc:	8979      	ldrh	r1, [r7, #10]
 80021be:	2300      	movs	r3, #0
 80021c0:	9300      	str	r3, [sp, #0]
 80021c2:	f04f 7300 	mov.w	r3, #33554432	; 0x2000000
 80021c6:	68f8      	ldr	r0, [r7, #12]
 80021c8:	f000 fbd0 	bl	800296c <I2C_TransferConfig>
 80021cc:	68fb      	ldr	r3, [r7, #12]
 80021ce:	8d5b      	ldrh	r3, [r3, #42]	; 0x2a
 80021d0:	b29b      	uxth	r3, r3
 80021d2:	2b00      	cmp	r3, #0
 80021d4:	d19e      	bne.n	8002114 <HAL_I2C_Mem_Write+0x110>
 80021d6:	697a      	ldr	r2, [r7, #20]
 80021d8:	6ab9      	ldr	r1, [r7, #40]	; 0x28
 80021da:	68f8      	ldr	r0, [r7, #12]
 80021dc:	f000 faa2 	bl	8002724 <I2C_WaitOnSTOPFlagUntilTimeout>
 80021e0:	4603      	mov	r3, r0
 80021e2:	2b00      	cmp	r3, #0
 80021e4:	d001      	beq.n	80021ea <HAL_I2C_Mem_Write+0x1e6>
 80021e6:	2301      	movs	r3, #1
 80021e8:	e01a      	b.n	8002220 <HAL_I2C_Mem_Write+0x21c>
 80021ea:	68fb      	ldr	r3, [r7, #12]
 80021ec:	681b      	ldr	r3, [r3, #0]
 80021ee:	2220      	movs	r2, #32
 80021f0:	61da      	str	r2, [r3, #28]
 80021f2:	68fb      	ldr	r3, [r7, #12]
 80021f4:	681b      	ldr	r3, [r3, #0]
 80021f6:	6859      	ldr	r1, [r3, #4]
 80021f8:	68fb      	ldr	r3, [r7, #12]
 80021fa:	681a      	ldr	r2, [r3, #0]
 80021fc:	4b0a      	ldr	r3, [pc, #40]	; (8002228 <HAL_I2C_Mem_Write+0x224>)
 80021fe:	400b      	ands	r3, r1
 8002200:	6053      	str	r3, [r2, #4]
 8002202:	68fb      	ldr	r3, [r7, #12]
 8002204:	2220      	movs	r2, #32
 8002206:	f883 2041 	strb.w	r2, [r3, #65]	; 0x41
 800220a:	68fb      	ldr	r3, [r7, #12]
 800220c:	2200      	movs	r2, #0
 800220e:	f883 2042 	strb.w	r2, [r3, #66]	; 0x42
 8002212:	68fb      	ldr	r3, [r7, #12]
 8002214:	2200      	movs	r2, #0
 8002216:	f883 2040 	strb.w	r2, [r3, #64]	; 0x40
 800221a:	2300      	movs	r3, #0
 800221c:	e000      	b.n	8002220 <HAL_I2C_Mem_Write+0x21c>
 800221e:	2302      	movs	r3, #2
 8002220:	4618      	mov	r0, r3
 8002222:	3718      	adds	r7, #24
 8002224:	46bd      	mov	sp, r7
 8002226:	bd80      	pop	{r7, pc}
 8002228:	fe00e800 	.word	0xfe00e800

0800222c <HAL_I2C_Mem_Read>:
 800222c:	b580      	push	{r7, lr}
 800222e:	b088      	sub	sp, #32
 8002230:	af02      	add	r7, sp, #8
 8002232:	60f8      	str	r0, [r7, #12]
 8002234:	4608      	mov	r0, r1
 8002236:	4611      	mov	r1, r2
 8002238:	461a      	mov	r2, r3
 800223a:	4603      	mov	r3, r0
 800223c:	817b      	strh	r3, [r7, #10]
 800223e:	460b      	mov	r3, r1
 8002240:	813b      	strh	r3, [r7, #8]
 8002242:	4613      	mov	r3, r2
 8002244:	80fb      	strh	r3, [r7, #6]
 8002246:	68fb      	ldr	r3, [r7, #12]
 8002248:	f893 3041 	ldrb.w	r3, [r3, #65]	; 0x41
 800224c:	b2db      	uxtb	r3, r3
 800224e:	2b20      	cmp	r3, #32
 8002250:	f040 80fd 	bne.w	800244e <HAL_I2C_Mem_Read+0x222>
 8002254:	6a3b      	ldr	r3, [r7, #32]
 8002256:	2b00      	cmp	r3, #0
 8002258:	d002      	beq.n	8002260 <HAL_I2C_Mem_Read+0x34>
 800225a:	8cbb      	ldrh	r3, [r7, #36]	; 0x24
 800225c:	2b00      	cmp	r3, #0
 800225e:	d105      	bne.n	800226c <HAL_I2C_Mem_Read+0x40>
 8002260:	68fb      	ldr	r3, [r7, #12]
 8002262:	f44f 7200 	mov.w	r2, #512	; 0x200
 8002266:	645a      	str	r2, [r3, #68]	; 0x44
 8002268:	2301      	movs	r3, #1
 800226a:	e0f1      	b.n	8002450 <HAL_I2C_Mem_Read+0x224>
 800226c:	68fb      	ldr	r3, [r7, #12]
 800226e:	f893 3040 	ldrb.w	r3, [r3, #64]	; 0x40
 8002272:	2b01      	cmp	r3, #1
 8002274:	d101      	bne.n	800227a <HAL_I2C_Mem_Read+0x4e>
 8002276:	2302      	movs	r3, #2
 8002278:	e0ea      	b.n	8002450 <HAL_I2C_Mem_Read+0x224>
 800227a:	68fb      	ldr	r3, [r7, #12]
 800227c:	2201      	movs	r2, #1
 800227e:	f883 2040 	strb.w	r2, [r3, #64]	; 0x40
 8002282:	f7ff fab9 	bl	80017f8 <HAL_GetTick>
 8002286:	6178      	str	r0, [r7, #20]
 8002288:	697b      	ldr	r3, [r7, #20]
 800228a:	9300      	str	r3, [sp, #0]
 800228c:	2319      	movs	r3, #25
 800228e:	2201      	movs	r2, #1
 8002290:	f44f 4100 	mov.w	r1, #32768	; 0x8000
 8002294:	68f8      	ldr	r0, [r7, #12]
 8002296:	f000 f9af 	bl	80025f8 <I2C_WaitOnFlagUntilTimeout>
 800229a:	4603      	mov	r3, r0
 800229c:	2b00      	cmp	r3, #0
 800229e:	d001      	beq.n	80022a4 <HAL_I2C_Mem_Read+0x78>
 80022a0:	2301      	movs	r3, #1
 80022a2:	e0d5      	b.n	8002450 <HAL_I2C_Mem_Read+0x224>
 80022a4:	68fb      	ldr	r3, [r7, #12]
 80022a6:	2222      	movs	r2, #34	; 0x22
 80022a8:	f883 2041 	strb.w	r2, [r3, #65]	; 0x41
 80022ac:	68fb      	ldr	r3, [r7, #12]
 80022ae:	2240      	movs	r2, #64	; 0x40
 80022b0:	f883 2042 	strb.w	r2, [r3, #66]	; 0x42
 80022b4:	68fb      	ldr	r3, [r7, #12]
 80022b6:	2200      	movs	r2, #0
 80022b8:	645a      	str	r2, [r3, #68]	; 0x44
 80022ba:	68fb      	ldr	r3, [r7, #12]
 80022bc:	6a3a      	ldr	r2, [r7, #32]
 80022be:	625a      	str	r2, [r3, #36]	; 0x24
 80022c0:	68fb      	ldr	r3, [r7, #12]
 80022c2:	8cba      	ldrh	r2, [r7, #36]	; 0x24
 80022c4:	855a      	strh	r2, [r3, #42]	; 0x2a
 80022c6:	68fb      	ldr	r3, [r7, #12]
 80022c8:	2200      	movs	r2, #0
 80022ca:	635a      	str	r2, [r3, #52]	; 0x34
 80022cc:	88f8      	ldrh	r0, [r7, #6]
 80022ce:	893a      	ldrh	r2, [r7, #8]
 80022d0:	8979      	ldrh	r1, [r7, #10]
 80022d2:	697b      	ldr	r3, [r7, #20]
 80022d4:	9301      	str	r3, [sp, #4]
 80022d6:	6abb      	ldr	r3, [r7, #40]	; 0x28
 80022d8:	9300      	str	r3, [sp, #0]
 80022da:	4603      	mov	r3, r0
 80022dc:	68f8      	ldr	r0, [r7, #12]
 80022de:	f000 f913 	bl	8002508 <I2C_RequestMemoryRead>
 80022e2:	4603      	mov	r3, r0
 80022e4:	2b00      	cmp	r3, #0
 80022e6:	d005      	beq.n	80022f4 <HAL_I2C_Mem_Read+0xc8>
 80022e8:	68fb      	ldr	r3, [r7, #12]
 80022ea:	2200      	movs	r2, #0
 80022ec:	f883 2040 	strb.w	r2, [r3, #64]	; 0x40
 80022f0:	2301      	movs	r3, #1
 80022f2:	e0ad      	b.n	8002450 <HAL_I2C_Mem_Read+0x224>
 80022f4:	68fb      	ldr	r3, [r7, #12]
 80022f6:	8d5b      	ldrh	r3, [r3, #42]	; 0x2a
 80022f8:	b29b      	uxth	r3, r3
 80022fa:	2bff      	cmp	r3, #255	; 0xff
 80022fc:	d90e      	bls.n	800231c <HAL_I2C_Mem_Read+0xf0>
 80022fe:	68fb      	ldr	r3, [r7, #12]
 8002300:	22ff      	movs	r2, #255	; 0xff
 8002302:	851a      	strh	r2, [r3, #40]	; 0x28
 8002304:	68fb      	ldr	r3, [r7, #12]
 8002306:	8d1b      	ldrh	r3, [r3, #40]	; 0x28
 8002308:	b2da      	uxtb	r2, r3
 800230a:	8979      	ldrh	r1, [r7, #10]
 800230c:	4b52      	ldr	r3, [pc, #328]	; (8002458 <HAL_I2C_Mem_Read+0x22c>)
 800230e:	9300      	str	r3, [sp, #0]
 8002310:	f04f 7380 	mov.w	r3, #16777216	; 0x1000000
 8002314:	68f8      	ldr	r0, [r7, #12]
 8002316:	f000 fb29 	bl	800296c <I2C_TransferConfig>
 800231a:	e00f      	b.n	800233c <HAL_I2C_Mem_Read+0x110>
 800231c:	68fb      	ldr	r3, [r7, #12]
 800231e:	8d5b      	ldrh	r3, [r3, #42]	; 0x2a
 8002320:	b29a      	uxth	r2, r3
 8002322:	68fb      	ldr	r3, [r7, #12]
 8002324:	851a      	strh	r2, [r3, #40]	; 0x28
 8002326:	68fb      	ldr	r3, [r7, #12]
 8002328:	8d1b      	ldrh	r3, [r3, #40]	; 0x28
 800232a:	b2da      	uxtb	r2, r3
 800232c:	8979      	ldrh	r1, [r7, #10]
 800232e:	4b4a      	ldr	r3, [pc, #296]	; (8002458 <HAL_I2C_Mem_Read+0x22c>)
 8002330:	9300      	str	r3, [sp, #0]
 8002332:	f04f 7300 	mov.w	r3, #33554432	; 0x2000000
 8002336:	68f8      	ldr	r0, [r7, #12]
 8002338:	f000 fb18 	bl	800296c <I2C_TransferConfig>
 800233c:	697b      	ldr	r3, [r7, #20]
 800233e:	9300      	str	r3, [sp, #0]
 8002340:	6abb      	ldr	r3, [r7, #40]	; 0x28
 8002342:	2200      	movs	r2, #0
 8002344:	2104      	movs	r1, #4
 8002346:	68f8      	ldr	r0, [r7, #12]
 8002348:	f000 f956 	bl	80025f8 <I2C_WaitOnFlagUntilTimeout>
 800234c:	4603      	mov	r3, r0
 800234e:	2b00      	cmp	r3, #0
 8002350:	d001      	beq.n	8002356 <HAL_I2C_Mem_Read+0x12a>
 8002352:	2301      	movs	r3, #1
 8002354:	e07c      	b.n	8002450 <HAL_I2C_Mem_Read+0x224>
 8002356:	68fb      	ldr	r3, [r7, #12]
 8002358:	681b      	ldr	r3, [r3, #0]
 800235a:	6a5a      	ldr	r2, [r3, #36]	; 0x24
 800235c:	68fb      	ldr	r3, [r7, #12]
 800235e:	6a5b      	ldr	r3, [r3, #36]	; 0x24
 8002360:	b2d2      	uxtb	r2, r2
 8002362:	701a      	strb	r2, [r3, #0]
 8002364:	68fb      	ldr	r3, [r7, #12]
 8002366:	6a5b      	ldr	r3, [r3, #36]	; 0x24
 8002368:	1c5a      	adds	r2, r3, #1
 800236a:	68fb      	ldr	r3, [r7, #12]
 800236c:	625a      	str	r2, [r3, #36]	; 0x24
 800236e:	68fb      	ldr	r3, [r7, #12]
 8002370:	8d1b      	ldrh	r3, [r3, #40]	; 0x28
 8002372:	3b01      	subs	r3, #1
 8002374:	b29a      	uxth	r2, r3
 8002376:	68fb      	ldr	r3, [r7, #12]
 8002378:	851a      	strh	r2, [r3, #40]	; 0x28
 800237a:	68fb      	ldr	r3, [r7, #12]
 800237c:	8d5b      	ldrh	r3, [r3, #42]	; 0x2a
 800237e:	b29b      	uxth	r3, r3
 8002380:	3b01      	subs	r3, #1
 8002382:	b29a      	uxth	r2, r3
 8002384:	68fb      	ldr	r3, [r7, #12]
 8002386:	855a      	strh	r2, [r3, #42]	; 0x2a
 8002388:	68fb      	ldr	r3, [r7, #12]
 800238a:	8d5b      	ldrh	r3, [r3, #42]	; 0x2a
 800238c:	b29b      	uxth	r3, r3
 800238e:	2b00      	cmp	r3, #0
 8002390:	d034      	beq.n	80023fc <HAL_I2C_Mem_Read+0x1d0>
 8002392:	68fb      	ldr	r3, [r7, #12]
 8002394:	8d1b      	ldrh	r3, [r3, #40]	; 0x28
 8002396:	2b00      	cmp	r3, #0
 8002398:	d130      	bne.n	80023fc <HAL_I2C_Mem_Read+0x1d0>
 800239a:	697b      	ldr	r3, [r7, #20]
 800239c:	9300      	str	r3, [sp, #0]
 800239e:	6abb      	ldr	r3, [r7, #40]	; 0x28
 80023a0:	2200      	movs	r2, #0
 80023a2:	2180      	movs	r1, #128	; 0x80
 80023a4:	68f8      	ldr	r0, [r7, #12]
 80023a6:	f000 f927 	bl	80025f8 <I2C_WaitOnFlagUntilTimeout>
 80023aa:	4603      	mov	r3, r0
 80023ac:	2b00      	cmp	r3, #0
 80023ae:	d001      	beq.n	80023b4 <HAL_I2C_Mem_Read+0x188>
 80023b0:	2301      	movs	r3, #1
 80023b2:	e04d      	b.n	8002450 <HAL_I2C_Mem_Read+0x224>
 80023b4:	68fb      	ldr	r3, [r7, #12]
 80023b6:	8d5b      	ldrh	r3, [r3, #42]	; 0x2a
 80023b8:	b29b      	uxth	r3, r3
 80023ba:	2bff      	cmp	r3, #255	; 0xff
 80023bc:	d90e      	bls.n	80023dc <HAL_I2C_Mem_Read+0x1b0>
 80023be:	68fb      	ldr	r3, [r7, #12]
 80023c0:	22ff      	movs	r2, #255	; 0xff
 80023c2:	851a      	strh	r2, [r3, #40]	; 0x28
 80023c4:	68fb      	ldr	r3, [r7, #12]
 80023c6:	8d1b      	ldrh	r3, [r3, #40]	; 0x28
 80023c8:	b2da      	uxtb	r2, r3
 80023ca:	8979      	ldrh	r1, [r7, #10]
 80023cc:	2300      	movs	r3, #0
 80023ce:	9300      	str	r3, [sp, #0]
 80023d0:	f04f 7380 	mov.w	r3, #16777216	; 0x1000000
 80023d4:	68f8      	ldr	r0, [r7, #12]
 80023d6:	f000 fac9 	bl	800296c <I2C_TransferConfig>
 80023da:	e00f      	b.n	80023fc <HAL_I2C_Mem_Read+0x1d0>
 80023dc:	68fb      	ldr	r3, [r7, #12]
 80023de:	8d5b      	ldrh	r3, [r3, #42]	; 0x2a
 80023e0:	b29a      	uxth	r2, r3
 80023e2:	68fb      	ldr	r3, [r7, #12]
 80023e4:	851a      	strh	r2, [r3, #40]	; 0x28
 80023e6:	68fb      	ldr	r3, [r7, #12]
 80023e8:	8d1b      	ldrh	r3, [r3, #40]	; 0x28
 80023ea:	b2da      	uxtb	r2, r3
 80023ec:	8979      	ldrh	r1, [r7, #10]
 80023ee:	2300      	movs	r3, #0
 80023f0:	9300      	str	r3, [sp, #0]
 80023f2:	f04f 7300 	mov.w	r3, #33554432	; 0x2000000
 80023f6:	68f8      	ldr	r0, [r7, #12]
 80023f8:	f000 fab8 	bl	800296c <I2C_TransferConfig>
 80023fc:	68fb      	ldr	r3, [r7, #12]
 80023fe:	8d5b      	ldrh	r3, [r3, #42]	; 0x2a
 8002400:	b29b      	uxth	r3, r3
 8002402:	2b00      	cmp	r3, #0
 8002404:	d19a      	bne.n	800233c <HAL_I2C_Mem_Read+0x110>
 8002406:	697a      	ldr	r2, [r7, #20]
 8002408:	6ab9      	ldr	r1, [r7, #40]	; 0x28
 800240a:	68f8      	ldr	r0, [r7, #12]
 800240c:	f000 f98a 	bl	8002724 <I2C_WaitOnSTOPFlagUntilTimeout>
 8002410:	4603      	mov	r3, r0
 8002412:	2b00      	cmp	r3, #0
 8002414:	d001      	beq.n	800241a <HAL_I2C_Mem_Read+0x1ee>
 8002416:	2301      	movs	r3, #1
 8002418:	e01a      	b.n	8002450 <HAL_I2C_Mem_Read+0x224>
 800241a:	68fb      	ldr	r3, [r7, #12]
 800241c:	681b      	ldr	r3, [r3, #0]
 800241e:	2220      	movs	r2, #32
 8002420:	61da      	str	r2, [r3, #28]
 8002422:	68fb      	ldr	r3, [r7, #12]
 8002424:	681b      	ldr	r3, [r3, #0]
 8002426:	6859      	ldr	r1, [r3, #4]
 8002428:	68fb      	ldr	r3, [r7, #12]
 800242a:	681a      	ldr	r2, [r3, #0]
 800242c:	4b0b      	ldr	r3, [pc, #44]	; (800245c <HAL_I2C_Mem_Read+0x230>)
 800242e:	400b      	ands	r3, r1
 8002430:	6053      	str	r3, [r2, #4]
 8002432:	68fb      	ldr	r3, [r7, #12]
 8002434:	2220      	movs	r2, #32
 8002436:	f883 2041 	strb.w	r2, [r3, #65]	; 0x41
 800243a:	68fb      	ldr	r3, [r7, #12]
 800243c:	2200      	movs	r2, #0
 800243e:	f883 2042 	strb.w	r2, [r3, #66]	; 0x42
 8002442:	68fb      	ldr	r3, [r7, #12]
 8002444:	2200      	movs	r2, #0
 8002446:	f883 2040 	strb.w	r2, [r3, #64]	; 0x40
 800244a:	2300      	movs	r3, #0
 800244c:	e000      	b.n	8002450 <HAL_I2C_Mem_Read+0x224>
 800244e:	2302      	movs	r3, #2
 8002450:	4618      	mov	r0, r3
 8002452:	3718      	adds	r7, #24
 8002454:	46bd      	mov	sp, r7
 8002456:	bd80      	pop	{r7, pc}
 8002458:	80002400 	.word	0x80002400
 800245c:	fe00e800 	.word	0xfe00e800

08002460 <I2C_RequestMemoryWrite>:
 8002460:	b580      	push	{r7, lr}
 8002462:	b086      	sub	sp, #24
 8002464:	af02      	add	r7, sp, #8
 8002466:	60f8      	str	r0, [r7, #12]
 8002468:	4608      	mov	r0, r1
 800246a:	4611      	mov	r1, r2
 800246c:	461a      	mov	r2, r3
 800246e:	4603      	mov	r3, r0
 8002470:	817b      	strh	r3, [r7, #10]
 8002472:	460b      	mov	r3, r1
 8002474:	813b      	strh	r3, [r7, #8]
 8002476:	4613      	mov	r3, r2
 8002478:	80fb      	strh	r3, [r7, #6]
 800247a:	88fb      	ldrh	r3, [r7, #6]
 800247c:	b2da      	uxtb	r2, r3
 800247e:	8979      	ldrh	r1, [r7, #10]
 8002480:	4b20      	ldr	r3, [pc, #128]	; (8002504 <I2C_RequestMemoryWrite+0xa4>)
 8002482:	9300      	str	r3, [sp, #0]
 8002484:	f04f 7380 	mov.w	r3, #16777216	; 0x1000000
 8002488:	68f8      	ldr	r0, [r7, #12]
 800248a:	f000 fa6f 	bl	800296c <I2C_TransferConfig>
 800248e:	69fa      	ldr	r2, [r7, #28]
 8002490:	69b9      	ldr	r1, [r7, #24]
 8002492:	68f8      	ldr	r0, [r7, #12]
 8002494:	f000 f8ff 	bl	8002696 <I2C_WaitOnTXISFlagUntilTimeout>
 8002498:	4603      	mov	r3, r0
 800249a:	2b00      	cmp	r3, #0
 800249c:	d001      	beq.n	80024a2 <I2C_RequestMemoryWrite+0x42>
 800249e:	2301      	movs	r3, #1
 80024a0:	e02c      	b.n	80024fc <I2C_RequestMemoryWrite+0x9c>
 80024a2:	88fb      	ldrh	r3, [r7, #6]
 80024a4:	2b01      	cmp	r3, #1
 80024a6:	d105      	bne.n	80024b4 <I2C_RequestMemoryWrite+0x54>
 80024a8:	893b      	ldrh	r3, [r7, #8]
 80024aa:	b2da      	uxtb	r2, r3
 80024ac:	68fb      	ldr	r3, [r7, #12]
 80024ae:	681b      	ldr	r3, [r3, #0]
 80024b0:	629a      	str	r2, [r3, #40]	; 0x28
 80024b2:	e015      	b.n	80024e0 <I2C_RequestMemoryWrite+0x80>
 80024b4:	893b      	ldrh	r3, [r7, #8]
 80024b6:	0a1b      	lsrs	r3, r3, #8
 80024b8:	b29b      	uxth	r3, r3
 80024ba:	b2da      	uxtb	r2, r3
 80024bc:	68fb      	ldr	r3, [r7, #12]
 80024be:	681b      	ldr	r3, [r3, #0]
 80024c0:	629a      	str	r2, [r3, #40]	; 0x28
 80024c2:	69fa      	ldr	r2, [r7, #28]
 80024c4:	69b9      	ldr	r1, [r7, #24]
 80024c6:	68f8      	ldr	r0, [r7, #12]
 80024c8:	f000 f8e5 	bl	8002696 <I2C_WaitOnTXISFlagUntilTimeout>
 80024cc:	4603      	mov	r3, r0
 80024ce:	2b00      	cmp	r3, #0
 80024d0:	d001      	beq.n	80024d6 <I2C_RequestMemoryWrite+0x76>
 80024d2:	2301      	movs	r3, #1
 80024d4:	e012      	b.n	80024fc <I2C_RequestMemoryWrite+0x9c>
 80024d6:	893b      	ldrh	r3, [r7, #8]
 80024d8:	b2da      	uxtb	r2, r3
 80024da:	68fb      	ldr	r3, [r7, #12]
 80024dc:	681b      	ldr	r3, [r3, #0]
 80024de:	629a      	str	r2, [r3, #40]	; 0x28
 80024e0:	69fb      	ldr	r3, [r7, #28]
 80024e2:	9300      	str	r3, [sp, #0]
 80024e4:	69bb      	ldr	r3, [r7, #24]
 80024e6:	2200      	movs	r2, #0
 80024e8:	2180      	movs	r1, #128	; 0x80
 80024ea:	68f8      	ldr	r0, [r7, #12]
 80024ec:	f000 f884 	bl	80025f8 <I2C_WaitOnFlagUntilTimeout>
 80024f0:	4603      	mov	r3, r0
 80024f2:	2b00      	cmp	r3, #0
 80024f4:	d001      	beq.n	80024fa <I2C_RequestMemoryWrite+0x9a>
 80024f6:	2301      	movs	r3, #1
 80024f8:	e000      	b.n	80024fc <I2C_RequestMemoryWrite+0x9c>
 80024fa:	2300      	movs	r3, #0
 80024fc:	4618      	mov	r0, r3
 80024fe:	3710      	adds	r7, #16
 8002500:	46bd      	mov	sp, r7
 8002502:	bd80      	pop	{r7, pc}
 8002504:	80002000 	.word	0x80002000

08002508 <I2C_RequestMemoryRead>:
 8002508:	b580      	push	{r7, lr}
 800250a:	b086      	sub	sp, #24
 800250c:	af02      	add	r7, sp, #8
 800250e:	60f8      	str	r0, [r7, #12]
 8002510:	4608      	mov	r0, r1
 8002512:	4611      	mov	r1, r2
 8002514:	461a      	mov	r2, r3
 8002516:	4603      	mov	r3, r0
 8002518:	817b      	strh	r3, [r7, #10]
 800251a:	460b      	mov	r3, r1
 800251c:	813b      	strh	r3, [r7, #8]
 800251e:	4613      	mov	r3, r2
 8002520:	80fb      	strh	r3, [r7, #6]
 8002522:	88fb      	ldrh	r3, [r7, #6]
 8002524:	b2da      	uxtb	r2, r3
 8002526:	8979      	ldrh	r1, [r7, #10]
 8002528:	4b20      	ldr	r3, [pc, #128]	; (80025ac <I2C_RequestMemoryRead+0xa4>)
 800252a:	9300      	str	r3, [sp, #0]
 800252c:	2300      	movs	r3, #0
 800252e:	68f8      	ldr	r0, [r7, #12]
 8002530:	f000 fa1c 	bl	800296c <I2C_TransferConfig>
 8002534:	69fa      	ldr	r2, [r7, #28]
 8002536:	69b9      	ldr	r1, [r7, #24]
 8002538:	68f8      	ldr	r0, [r7, #12]
 800253a:	f000 f8ac 	bl	8002696 <I2C_WaitOnTXISFlagUntilTimeout>
 800253e:	4603      	mov	r3, r0
 8002540:	2b00      	cmp	r3, #0
 8002542:	d001      	beq.n	8002548 <I2C_RequestMemoryRead+0x40>
 8002544:	2301      	movs	r3, #1
 8002546:	e02c      	b.n	80025a2 <I2C_RequestMemoryRead+0x9a>
 8002548:	88fb      	ldrh	r3, [r7, #6]
 800254a:	2b01      	cmp	r3, #1
 800254c:	d105      	bne.n	800255a <I2C_RequestMemoryRead+0x52>
 800254e:	893b      	ldrh	r3, [r7, #8]
 8002550:	b2da      	uxtb	r2, r3
 8002552:	68fb      	ldr	r3, [r7, #12]
 8002554:	681b      	ldr	r3, [r3, #0]
 8002556:	629a      	str	r2, [r3, #40]	; 0x28
 8002558:	e015      	b.n	8002586 <I2C_RequestMemoryRead+0x7e>
 800255a:	893b      	ldrh	r3, [r7, #8]
 800255c:	0a1b      	lsrs	r3, r3, #8
 800255e:	b29b      	uxth	r3, r3
 8002560:	b2da      	uxtb	r2, r3
 8002562:	68fb      	ldr	r3, [r7, #12]
 8002564:	681b      	ldr	r3, [r3, #0]
 8002566:	629a      	str	r2, [r3, #40]	; 0x28
 8002568:	69fa      	ldr	r2, [r7, #28]
 800256a:	69b9      	ldr	r1, [r7, #24]
 800256c:	68f8      	ldr	r0, [r7, #12]
 800256e:	f000 f892 	bl	8002696 <I2C_WaitOnTXISFlagUntilTimeout>
 8002572:	4603      	mov	r3, r0
 8002574:	2b00      	cmp	r3, #0
 8002576:	d001      	beq.n	800257c <I2C_RequestMemoryRead+0x74>
 8002578:	2301      	movs	r3, #1
 800257a:	e012      	b.n	80025a2 <I2C_RequestMemoryRead+0x9a>
 800257c:	893b      	ldrh	r3, [r7, #8]
 800257e:	b2da      	uxtb	r2, r3
 8002580:	68fb      	ldr	r3, [r7, #12]
 8002582:	681b      	ldr	r3, [r3, #0]
 8002584:	629a      	str	r2, [r3, #40]	; 0x28
 8002586:	69fb      	ldr	r3, [r7, #28]
 8002588:	9300      	str	r3, [sp, #0]
 800258a:	69bb      	ldr	r3, [r7, #24]
 800258c:	2200      	movs	r2, #0
 800258e:	2140      	movs	r1, #64	; 0x40
 8002590:	68f8      	ldr	r0, [r7, #12]
 8002592:	f000 f831 	bl	80025f8 <I2C_WaitOnFlagUntilTimeout>
 8002596:	4603      	mov	r3, r0
 8002598:	2b00      	cmp	r3, #0
 800259a:	d001      	beq.n	80025a0 <I2C_RequestMemoryRead+0x98>
 800259c:	2301      	movs	r3, #1
 800259e:	e000      	b.n	80025a2 <I2C_RequestMemoryRead+0x9a>
 80025a0:	2300      	movs	r3, #0
 80025a2:	4618      	mov	r0, r3
 80025a4:	3710      	adds	r7, #16
 80025a6:	46bd      	mov	sp, r7
 80025a8:	bd80      	pop	{r7, pc}
 80025aa:	bf00      	nop
 80025ac:	80002000 	.word	0x80002000

080025b0 <I2C_Flush_TXDR>:
 80025b0:	b480      	push	{r7}
 80025b2:	b083      	sub	sp, #12
 80025b4:	af00      	add	r7, sp, #0
 80025b6:	6078      	str	r0, [r7, #4]
 80025b8:	687b      	ldr	r3, [r7, #4]
 80025ba:	681b      	ldr	r3, [r3, #0]
 80025bc:	699b      	ldr	r3, [r3, #24]
 80025be:	f003 0302 	and.w	r3, r3, #2
 80025c2:	2b02      	cmp	r3, #2
 80025c4:	d103      	bne.n	80025ce <I2C_Flush_TXDR+0x1e>
 80025c6:	687b      	ldr	r3, [r7, #4]
 80025c8:	681b      	ldr	r3, [r3, #0]
 80025ca:	2200      	movs	r2, #0
 80025cc:	629a      	str	r2, [r3, #40]	; 0x28
 80025ce:	687b      	ldr	r3, [r7, #4]
 80025d0:	681b      	ldr	r3, [r3, #0]
 80025d2:	699b      	ldr	r3, [r3, #24]
 80025d4:	f003 0301 	and.w	r3, r3, #1
 80025d8:	2b01      	cmp	r3, #1
 80025da:	d007      	beq.n	80025ec <I2C_Flush_TXDR+0x3c>
 80025dc:	687b      	ldr	r3, [r7, #4]
 80025de:	681b      	ldr	r3, [r3, #0]
 80025e0:	699a      	ldr	r2, [r3, #24]
 80025e2:	687b      	ldr	r3, [r7, #4]
 80025e4:	681b      	ldr	r3, [r3, #0]
 80025e6:	f042 0201 	orr.w	r2, r2, #1
 80025ea:	619a      	str	r2, [r3, #24]
 80025ec:	bf00      	nop
 80025ee:	370c      	adds	r7, #12
 80025f0:	46bd      	mov	sp, r7
 80025f2:	f85d 7b04 	ldr.w	r7, [sp], #4
 80025f6:	4770      	bx	lr

080025f8 <I2C_WaitOnFlagUntilTimeout>:
 80025f8:	b580      	push	{r7, lr}
 80025fa:	b084      	sub	sp, #16
 80025fc:	af00      	add	r7, sp, #0
 80025fe:	60f8      	str	r0, [r7, #12]
 8002600:	60b9      	str	r1, [r7, #8]
 8002602:	603b      	str	r3, [r7, #0]
 8002604:	4613      	mov	r3, r2
 8002606:	71fb      	strb	r3, [r7, #7]
 8002608:	e031      	b.n	800266e <I2C_WaitOnFlagUntilTimeout+0x76>
 800260a:	683b      	ldr	r3, [r7, #0]
 800260c:	f1b3 3fff 	cmp.w	r3, #4294967295
 8002610:	d02d      	beq.n	800266e <I2C_WaitOnFlagUntilTimeout+0x76>
 8002612:	f7ff f8f1 	bl	80017f8 <HAL_GetTick>
 8002616:	4602      	mov	r2, r0
 8002618:	69bb      	ldr	r3, [r7, #24]
 800261a:	1ad3      	subs	r3, r2, r3
 800261c:	683a      	ldr	r2, [r7, #0]
 800261e:	429a      	cmp	r2, r3
 8002620:	d302      	bcc.n	8002628 <I2C_WaitOnFlagUntilTimeout+0x30>
 8002622:	683b      	ldr	r3, [r7, #0]
 8002624:	2b00      	cmp	r3, #0
 8002626:	d122      	bne.n	800266e <I2C_WaitOnFlagUntilTimeout+0x76>
 8002628:	68fb      	ldr	r3, [r7, #12]
 800262a:	681b      	ldr	r3, [r3, #0]
 800262c:	699a      	ldr	r2, [r3, #24]
 800262e:	68bb      	ldr	r3, [r7, #8]
 8002630:	4013      	ands	r3, r2
 8002632:	68ba      	ldr	r2, [r7, #8]
 8002634:	429a      	cmp	r2, r3
 8002636:	bf0c      	ite	eq
 8002638:	2301      	moveq	r3, #1
 800263a:	2300      	movne	r3, #0
 800263c:	b2db      	uxtb	r3, r3
 800263e:	461a      	mov	r2, r3
 8002640:	79fb      	ldrb	r3, [r7, #7]
 8002642:	429a      	cmp	r2, r3
 8002644:	d113      	bne.n	800266e <I2C_WaitOnFlagUntilTimeout+0x76>
 8002646:	68fb      	ldr	r3, [r7, #12]
 8002648:	6c5b      	ldr	r3, [r3, #68]	; 0x44
 800264a:	f043 0220 	orr.w	r2, r3, #32
 800264e:	68fb      	ldr	r3, [r7, #12]
 8002650:	645a      	str	r2, [r3, #68]	; 0x44
 8002652:	68fb      	ldr	r3, [r7, #12]
 8002654:	2220      	movs	r2, #32
 8002656:	f883 2041 	strb.w	r2, [r3, #65]	; 0x41
 800265a:	68fb      	ldr	r3, [r7, #12]
 800265c:	2200      	movs	r2, #0
 800265e:	f883 2042 	strb.w	r2, [r3, #66]	; 0x42
 8002662:	68fb      	ldr	r3, [r7, #12]
 8002664:	2200      	movs	r2, #0
 8002666:	f883 2040 	strb.w	r2, [r3, #64]	; 0x40
 800266a:	2301      	movs	r3, #1
 800266c:	e00f      	b.n	800268e <I2C_WaitOnFlagUntilTimeout+0x96>
 800266e:	68fb      	ldr	r3, [r7, #12]
 8002670:	681b      	ldr	r3, [r3, #0]
 8002672:	699a      	ldr	r2, [r3, #24]
 8002674:	68bb      	ldr	r3, [r7, #8]
 8002676:	4013      	ands	r3, r2
 8002678:	68ba      	ldr	r2, [r7, #8]
 800267a:	429a      	cmp	r2, r3
 800267c:	bf0c      	ite	eq
 800267e:	2301      	moveq	r3, #1
 8002680:	2300      	movne	r3, #0
 8002682:	b2db      	uxtb	r3, r3
 8002684:	461a      	mov	r2, r3
 8002686:	79fb      	ldrb	r3, [r7, #7]
 8002688:	429a      	cmp	r2, r3
 800268a:	d0be      	beq.n	800260a <I2C_WaitOnFlagUntilTimeout+0x12>
 800268c:	2300      	movs	r3, #0
 800268e:	4618      	mov	r0, r3
 8002690:	3710      	adds	r7, #16
 8002692:	46bd      	mov	sp, r7
 8002694:	bd80      	pop	{r7, pc}

08002696 <I2C_WaitOnTXISFlagUntilTimeout>:
 8002696:	b580      	push	{r7, lr}
 8002698:	b084      	sub	sp, #16
 800269a:	af00      	add	r7, sp, #0
 800269c:	60f8      	str	r0, [r7, #12]
 800269e:	60b9      	str	r1, [r7, #8]
 80026a0:	607a      	str	r2, [r7, #4]
 80026a2:	e033      	b.n	800270c <I2C_WaitOnTXISFlagUntilTimeout+0x76>
 80026a4:	687a      	ldr	r2, [r7, #4]
 80026a6:	68b9      	ldr	r1, [r7, #8]
 80026a8:	68f8      	ldr	r0, [r7, #12]
 80026aa:	f000 f87f 	bl	80027ac <I2C_IsErrorOccurred>
 80026ae:	4603      	mov	r3, r0
 80026b0:	2b00      	cmp	r3, #0
 80026b2:	d001      	beq.n	80026b8 <I2C_WaitOnTXISFlagUntilTimeout+0x22>
 80026b4:	2301      	movs	r3, #1
 80026b6:	e031      	b.n	800271c <I2C_WaitOnTXISFlagUntilTimeout+0x86>
 80026b8:	68bb      	ldr	r3, [r7, #8]
 80026ba:	f1b3 3fff 	cmp.w	r3, #4294967295
 80026be:	d025      	beq.n	800270c <I2C_WaitOnTXISFlagUntilTimeout+0x76>
 80026c0:	f7ff f89a 	bl	80017f8 <HAL_GetTick>
 80026c4:	4602      	mov	r2, r0
 80026c6:	687b      	ldr	r3, [r7, #4]
 80026c8:	1ad3      	subs	r3, r2, r3
 80026ca:	68ba      	ldr	r2, [r7, #8]
 80026cc:	429a      	cmp	r2, r3
 80026ce:	d302      	bcc.n	80026d6 <I2C_WaitOnTXISFlagUntilTimeout+0x40>
 80026d0:	68bb      	ldr	r3, [r7, #8]
 80026d2:	2b00      	cmp	r3, #0
 80026d4:	d11a      	bne.n	800270c <I2C_WaitOnTXISFlagUntilTimeout+0x76>
 80026d6:	68fb      	ldr	r3, [r7, #12]
 80026d8:	681b      	ldr	r3, [r3, #0]
 80026da:	699b      	ldr	r3, [r3, #24]
 80026dc:	f003 0302 	and.w	r3, r3, #2
 80026e0:	2b02      	cmp	r3, #2
 80026e2:	d013      	beq.n	800270c <I2C_WaitOnTXISFlagUntilTimeout+0x76>
 80026e4:	68fb      	ldr	r3, [r7, #12]
 80026e6:	6c5b      	ldr	r3, [r3, #68]	; 0x44
 80026e8:	f043 0220 	orr.w	r2, r3, #32
 80026ec:	68fb      	ldr	r3, [r7, #12]
 80026ee:	645a      	str	r2, [r3, #68]	; 0x44
 80026f0:	68fb      	ldr	r3, [r7, #12]
 80026f2:	2220      	movs	r2, #32
 80026f4:	f883 2041 	strb.w	r2, [r3, #65]	; 0x41
 80026f8:	68fb      	ldr	r3, [r7, #12]
 80026fa:	2200      	movs	r2, #0
 80026fc:	f883 2042 	strb.w	r2, [r3, #66]	; 0x42
 8002700:	68fb      	ldr	r3, [r7, #12]
 8002702:	2200      	movs	r2, #0
 8002704:	f883 2040 	strb.w	r2, [r3, #64]	; 0x40
 8002708:	2301      	movs	r3, #1
 800270a:	e007      	b.n	800271c <I2C_WaitOnTXISFlagUntilTimeout+0x86>
 800270c:	68fb      	ldr	r3, [r7, #12]
 800270e:	681b      	ldr	r3, [r3, #0]
 8002710:	699b      	ldr	r3, [r3, #24]
 8002712:	f003 0302 	and.w	r3, r3, #2
 8002716:	2b02      	cmp	r3, #2
 8002718:	d1c4      	bne.n	80026a4 <I2C_WaitOnTXISFlagUntilTimeout+0xe>
 800271a:	2300      	movs	r3, #0
 800271c:	4618      	mov	r0, r3
 800271e:	3710      	adds	r7, #16
 8002720:	46bd      	mov	sp, r7
 8002722:	bd80      	pop	{r7, pc}

08002724 <I2C_WaitOnSTOPFlagUntilTimeout>:
 8002724:	b580      	push	{r7, lr}
 8002726:	b084      	sub	sp, #16
 8002728:	af00      	add	r7, sp, #0
 800272a:	60f8      	str	r0, [r7, #12]
 800272c:	60b9      	str	r1, [r7, #8]
 800272e:	607a      	str	r2, [r7, #4]
 8002730:	e02f      	b.n	8002792 <I2C_WaitOnSTOPFlagUntilTimeout+0x6e>
 8002732:	687a      	ldr	r2, [r7, #4]
 8002734:	68b9      	ldr	r1, [r7, #8]
 8002736:	68f8      	ldr	r0, [r7, #12]
 8002738:	f000 f838 	bl	80027ac <I2C_IsErrorOccurred>
 800273c:	4603      	mov	r3, r0
 800273e:	2b00      	cmp	r3, #0
 8002740:	d001      	beq.n	8002746 <I2C_WaitOnSTOPFlagUntilTimeout+0x22>
 8002742:	2301      	movs	r3, #1
 8002744:	e02d      	b.n	80027a2 <I2C_WaitOnSTOPFlagUntilTimeout+0x7e>
 8002746:	f7ff f857 	bl	80017f8 <HAL_GetTick>
 800274a:	4602      	mov	r2, r0
 800274c:	687b      	ldr	r3, [r7, #4]
 800274e:	1ad3      	subs	r3, r2, r3
 8002750:	68ba      	ldr	r2, [r7, #8]
 8002752:	429a      	cmp	r2, r3
 8002754:	d302      	bcc.n	800275c <I2C_WaitOnSTOPFlagUntilTimeout+0x38>
 8002756:	68bb      	ldr	r3, [r7, #8]
 8002758:	2b00      	cmp	r3, #0
 800275a:	d11a      	bne.n	8002792 <I2C_WaitOnSTOPFlagUntilTimeout+0x6e>
 800275c:	68fb      	ldr	r3, [r7, #12]
 800275e:	681b      	ldr	r3, [r3, #0]
 8002760:	699b      	ldr	r3, [r3, #24]
 8002762:	f003 0320 	and.w	r3, r3, #32
 8002766:	2b20      	cmp	r3, #32
 8002768:	d013      	beq.n	8002792 <I2C_WaitOnSTOPFlagUntilTimeout+0x6e>
 800276a:	68fb      	ldr	r3, [r7, #12]
 800276c:	6c5b      	ldr	r3, [r3, #68]	; 0x44
 800276e:	f043 0220 	orr.w	r2, r3, #32
 8002772:	68fb      	ldr	r3, [r7, #12]
 8002774:	645a      	str	r2, [r3, #68]	; 0x44
 8002776:	68fb      	ldr	r3, [r7, #12]
 8002778:	2220      	movs	r2, #32
 800277a:	f883 2041 	strb.w	r2, [r3, #65]	; 0x41
 800277e:	68fb      	ldr	r3, [r7, #12]
 8002780:	2200      	movs	r2, #0
 8002782:	f883 2042 	strb.w	r2, [r3, #66]	; 0x42
 8002786:	68fb      	ldr	r3, [r7, #12]
 8002788:	2200      	movs	r2, #0
 800278a:	f883 2040 	strb.w	r2, [r3, #64]	; 0x40
 800278e:	2301      	movs	r3, #1
 8002790:	e007      	b.n	80027a2 <I2C_WaitOnSTOPFlagUntilTimeout+0x7e>
 8002792:	68fb      	ldr	r3, [r7, #12]
 8002794:	681b      	ldr	r3, [r3, #0]
 8002796:	699b      	ldr	r3, [r3, #24]
 8002798:	f003 0320 	and.w	r3, r3, #32
 800279c:	2b20      	cmp	r3, #32
 800279e:	d1c8      	bne.n	8002732 <I2C_WaitOnSTOPFlagUntilTimeout+0xe>
 80027a0:	2300      	movs	r3, #0
 80027a2:	4618      	mov	r0, r3
 80027a4:	3710      	adds	r7, #16
 80027a6:	46bd      	mov	sp, r7
 80027a8:	bd80      	pop	{r7, pc}
	...

080027ac <I2C_IsErrorOccurred>:
 80027ac:	b580      	push	{r7, lr}
 80027ae:	b08a      	sub	sp, #40	; 0x28
 80027b0:	af00      	add	r7, sp, #0
 80027b2:	60f8      	str	r0, [r7, #12]
 80027b4:	60b9      	str	r1, [r7, #8]
 80027b6:	607a      	str	r2, [r7, #4]
 80027b8:	2300      	movs	r3, #0
 80027ba:	f887 3027 	strb.w	r3, [r7, #39]	; 0x27
 80027be:	68fb      	ldr	r3, [r7, #12]
 80027c0:	681b      	ldr	r3, [r3, #0]
 80027c2:	699b      	ldr	r3, [r3, #24]
 80027c4:	61bb      	str	r3, [r7, #24]
 80027c6:	2300      	movs	r3, #0
 80027c8:	623b      	str	r3, [r7, #32]
 80027ca:	687b      	ldr	r3, [r7, #4]
 80027cc:	61fb      	str	r3, [r7, #28]
 80027ce:	69bb      	ldr	r3, [r7, #24]
 80027d0:	f003 0310 	and.w	r3, r3, #16
 80027d4:	2b00      	cmp	r3, #0
 80027d6:	d068      	beq.n	80028aa <I2C_IsErrorOccurred+0xfe>
 80027d8:	68fb      	ldr	r3, [r7, #12]
 80027da:	681b      	ldr	r3, [r3, #0]
 80027dc:	2210      	movs	r2, #16
 80027de:	61da      	str	r2, [r3, #28]
 80027e0:	e049      	b.n	8002876 <I2C_IsErrorOccurred+0xca>
 80027e2:	68bb      	ldr	r3, [r7, #8]
 80027e4:	f1b3 3fff 	cmp.w	r3, #4294967295
 80027e8:	d045      	beq.n	8002876 <I2C_IsErrorOccurred+0xca>
 80027ea:	f7ff f805 	bl	80017f8 <HAL_GetTick>
 80027ee:	4602      	mov	r2, r0
 80027f0:	69fb      	ldr	r3, [r7, #28]
 80027f2:	1ad3      	subs	r3, r2, r3
 80027f4:	68ba      	ldr	r2, [r7, #8]
 80027f6:	429a      	cmp	r2, r3
 80027f8:	d302      	bcc.n	8002800 <I2C_IsErrorOccurred+0x54>
 80027fa:	68bb      	ldr	r3, [r7, #8]
 80027fc:	2b00      	cmp	r3, #0
 80027fe:	d13a      	bne.n	8002876 <I2C_IsErrorOccurred+0xca>
 8002800:	68fb      	ldr	r3, [r7, #12]
 8002802:	681b      	ldr	r3, [r3, #0]
 8002804:	685b      	ldr	r3, [r3, #4]
 8002806:	f403 4380 	and.w	r3, r3, #16384	; 0x4000
 800280a:	617b      	str	r3, [r7, #20]
 800280c:	68fb      	ldr	r3, [r7, #12]
 800280e:	f893 3042 	ldrb.w	r3, [r3, #66]	; 0x42
 8002812:	74fb      	strb	r3, [r7, #19]
 8002814:	68fb      	ldr	r3, [r7, #12]
 8002816:	681b      	ldr	r3, [r3, #0]
 8002818:	699b      	ldr	r3, [r3, #24]
 800281a:	f403 4300 	and.w	r3, r3, #32768	; 0x8000
 800281e:	f5b3 4f00 	cmp.w	r3, #32768	; 0x8000
 8002822:	d121      	bne.n	8002868 <I2C_IsErrorOccurred+0xbc>
 8002824:	697b      	ldr	r3, [r7, #20]
 8002826:	f5b3 4f80 	cmp.w	r3, #16384	; 0x4000
 800282a:	d01d      	beq.n	8002868 <I2C_IsErrorOccurred+0xbc>
 800282c:	7cfb      	ldrb	r3, [r7, #19]
 800282e:	2b20      	cmp	r3, #32
 8002830:	d01a      	beq.n	8002868 <I2C_IsErrorOccurred+0xbc>
 8002832:	68fb      	ldr	r3, [r7, #12]
 8002834:	681b      	ldr	r3, [r3, #0]
 8002836:	685a      	ldr	r2, [r3, #4]
 8002838:	68fb      	ldr	r3, [r7, #12]
 800283a:	681b      	ldr	r3, [r3, #0]
 800283c:	f442 4280 	orr.w	r2, r2, #16384	; 0x4000
 8002840:	605a      	str	r2, [r3, #4]
 8002842:	f7fe ffd9 	bl	80017f8 <HAL_GetTick>
 8002846:	61f8      	str	r0, [r7, #28]
 8002848:	e00e      	b.n	8002868 <I2C_IsErrorOccurred+0xbc>
 800284a:	f7fe ffd5 	bl	80017f8 <HAL_GetTick>
 800284e:	4602      	mov	r2, r0
 8002850:	69fb      	ldr	r3, [r7, #28]
 8002852:	1ad3      	subs	r3, r2, r3
 8002854:	2b19      	cmp	r3, #25
 8002856:	d907      	bls.n	8002868 <I2C_IsErrorOccurred+0xbc>
 8002858:	6a3b      	ldr	r3, [r7, #32]
 800285a:	f043 0320 	orr.w	r3, r3, #32
 800285e:	623b      	str	r3, [r7, #32]
 8002860:	2301      	movs	r3, #1
 8002862:	f887 3027 	strb.w	r3, [r7, #39]	; 0x27
 8002866:	e006      	b.n	8002876 <I2C_IsErrorOccurred+0xca>
 8002868:	68fb      	ldr	r3, [r7, #12]
 800286a:	681b      	ldr	r3, [r3, #0]
 800286c:	699b      	ldr	r3, [r3, #24]
 800286e:	f003 0320 	and.w	r3, r3, #32
 8002872:	2b20      	cmp	r3, #32
 8002874:	d1e9      	bne.n	800284a <I2C_IsErrorOccurred+0x9e>
 8002876:	68fb      	ldr	r3, [r7, #12]
 8002878:	681b      	ldr	r3, [r3, #0]
 800287a:	699b      	ldr	r3, [r3, #24]
 800287c:	f003 0320 	and.w	r3, r3, #32
 8002880:	2b20      	cmp	r3, #32
 8002882:	d003      	beq.n	800288c <I2C_IsErrorOccurred+0xe0>
 8002884:	f897 3027 	ldrb.w	r3, [r7, #39]	; 0x27
 8002888:	2b00      	cmp	r3, #0
 800288a:	d0aa      	beq.n	80027e2 <I2C_IsErrorOccurred+0x36>
 800288c:	f897 3027 	ldrb.w	r3, [r7, #39]	; 0x27
 8002890:	2b00      	cmp	r3, #0
 8002892:	d103      	bne.n	800289c <I2C_IsErrorOccurred+0xf0>
 8002894:	68fb      	ldr	r3, [r7, #12]
 8002896:	681b      	ldr	r3, [r3, #0]
 8002898:	2220      	movs	r2, #32
 800289a:	61da      	str	r2, [r3, #28]
 800289c:	6a3b      	ldr	r3, [r7, #32]
 800289e:	f043 0304 	orr.w	r3, r3, #4
 80028a2:	623b      	str	r3, [r7, #32]
 80028a4:	2301      	movs	r3, #1
 80028a6:	f887 3027 	strb.w	r3, [r7, #39]	; 0x27
 80028aa:	68fb      	ldr	r3, [r7, #12]
 80028ac:	681b      	ldr	r3, [r3, #0]
 80028ae:	699b      	ldr	r3, [r3, #24]
 80028b0:	61bb      	str	r3, [r7, #24]
 80028b2:	69bb      	ldr	r3, [r7, #24]
 80028b4:	f403 7380 	and.w	r3, r3, #256	; 0x100
 80028b8:	2b00      	cmp	r3, #0
 80028ba:	d00b      	beq.n	80028d4 <I2C_IsErrorOccurred+0x128>
 80028bc:	6a3b      	ldr	r3, [r7, #32]
 80028be:	f043 0301 	orr.w	r3, r3, #1
 80028c2:	623b      	str	r3, [r7, #32]
 80028c4:	68fb      	ldr	r3, [r7, #12]
 80028c6:	681b      	ldr	r3, [r3, #0]
 80028c8:	f44f 7280 	mov.w	r2, #256	; 0x100
 80028cc:	61da      	str	r2, [r3, #28]
 80028ce:	2301      	movs	r3, #1
 80028d0:	f887 3027 	strb.w	r3, [r7, #39]	; 0x27
 80028d4:	69bb      	ldr	r3, [r7, #24]
 80028d6:	f403 6380 	and.w	r3, r3, #1024	; 0x400
 80028da:	2b00      	cmp	r3, #0
 80028dc:	d00b      	beq.n	80028f6 <I2C_IsErrorOccurred+0x14a>
 80028de:	6a3b      	ldr	r3, [r7, #32]
 80028e0:	f043 0308 	orr.w	r3, r3, #8
 80028e4:	623b      	str	r3, [r7, #32]
 80028e6:	68fb      	ldr	r3, [r7, #12]
 80028e8:	681b      	ldr	r3, [r3, #0]
 80028ea:	f44f 6280 	mov.w	r2, #1024	; 0x400
 80028ee:	61da      	str	r2, [r3, #28]
 80028f0:	2301      	movs	r3, #1
 80028f2:	f887 3027 	strb.w	r3, [r7, #39]	; 0x27
 80028f6:	69bb      	ldr	r3, [r7, #24]
 80028f8:	f403 7300 	and.w	r3, r3, #512	; 0x200
 80028fc:	2b00      	cmp	r3, #0
 80028fe:	d00b      	beq.n	8002918 <I2C_IsErrorOccurred+0x16c>
 8002900:	6a3b      	ldr	r3, [r7, #32]
 8002902:	f043 0302 	orr.w	r3, r3, #2
 8002906:	623b      	str	r3, [r7, #32]
 8002908:	68fb      	ldr	r3, [r7, #12]
 800290a:	681b      	ldr	r3, [r3, #0]
 800290c:	f44f 7200 	mov.w	r2, #512	; 0x200
 8002910:	61da      	str	r2, [r3, #28]
 8002912:	2301      	movs	r3, #1
 8002914:	f887 3027 	strb.w	r3, [r7, #39]	; 0x27
 8002918:	f897 3027 	ldrb.w	r3, [r7, #39]	; 0x27
 800291c:	2b00      	cmp	r3, #0
 800291e:	d01c      	beq.n	800295a <I2C_IsErrorOccurred+0x1ae>
 8002920:	68f8      	ldr	r0, [r7, #12]
 8002922:	f7ff fe45 	bl	80025b0 <I2C_Flush_TXDR>
 8002926:	68fb      	ldr	r3, [r7, #12]
 8002928:	681b      	ldr	r3, [r3, #0]
 800292a:	6859      	ldr	r1, [r3, #4]
 800292c:	68fb      	ldr	r3, [r7, #12]
 800292e:	681a      	ldr	r2, [r3, #0]
 8002930:	4b0d      	ldr	r3, [pc, #52]	; (8002968 <I2C_IsErrorOccurred+0x1bc>)
 8002932:	400b      	ands	r3, r1
 8002934:	6053      	str	r3, [r2, #4]
 8002936:	68fb      	ldr	r3, [r7, #12]
 8002938:	6c5a      	ldr	r2, [r3, #68]	; 0x44
 800293a:	6a3b      	ldr	r3, [r7, #32]
 800293c:	431a      	orrs	r2, r3
 800293e:	68fb      	ldr	r3, [r7, #12]
 8002940:	645a      	str	r2, [r3, #68]	; 0x44
 8002942:	68fb      	ldr	r3, [r7, #12]
 8002944:	2220      	movs	r2, #32
 8002946:	f883 2041 	strb.w	r2, [r3, #65]	; 0x41
 800294a:	68fb      	ldr	r3, [r7, #12]
 800294c:	2200      	movs	r2, #0
 800294e:	f883 2042 	strb.w	r2, [r3, #66]	; 0x42
 8002952:	68fb      	ldr	r3, [r7, #12]
 8002954:	2200      	movs	r2, #0
 8002956:	f883 2040 	strb.w	r2, [r3, #64]	; 0x40
 800295a:	f897 3027 	ldrb.w	r3, [r7, #39]	; 0x27
 800295e:	4618      	mov	r0, r3
 8002960:	3728      	adds	r7, #40	; 0x28
 8002962:	46bd      	mov	sp, r7
 8002964:	bd80      	pop	{r7, pc}
 8002966:	bf00      	nop
 8002968:	fe00e800 	.word	0xfe00e800

0800296c <I2C_TransferConfig>:
 800296c:	b480      	push	{r7}
 800296e:	b087      	sub	sp, #28
 8002970:	af00      	add	r7, sp, #0
 8002972:	60f8      	str	r0, [r7, #12]
 8002974:	607b      	str	r3, [r7, #4]
 8002976:	460b      	mov	r3, r1
 8002978:	817b      	strh	r3, [r7, #10]
 800297a:	4613      	mov	r3, r2
 800297c:	727b      	strb	r3, [r7, #9]
 800297e:	897b      	ldrh	r3, [r7, #10]
 8002980:	f3c3 0209 	ubfx	r2, r3, #0, #10
 8002984:	7a7b      	ldrb	r3, [r7, #9]
 8002986:	041b      	lsls	r3, r3, #16
 8002988:	f403 037f 	and.w	r3, r3, #16711680	; 0xff0000
 800298c:	431a      	orrs	r2, r3
 800298e:	687b      	ldr	r3, [r7, #4]
 8002990:	431a      	orrs	r2, r3
 8002992:	6a3b      	ldr	r3, [r7, #32]
 8002994:	4313      	orrs	r3, r2
 8002996:	f023 4300 	bic.w	r3, r3, #2147483648	; 0x80000000
 800299a:	617b      	str	r3, [r7, #20]
 800299c:	68fb      	ldr	r3, [r7, #12]
 800299e:	681b      	ldr	r3, [r3, #0]
 80029a0:	685a      	ldr	r2, [r3, #4]
 80029a2:	6a3b      	ldr	r3, [r7, #32]
 80029a4:	0d5b      	lsrs	r3, r3, #21
 80029a6:	f403 6180 	and.w	r1, r3, #1024	; 0x400
 80029aa:	4b08      	ldr	r3, [pc, #32]	; (80029cc <I2C_TransferConfig+0x60>)
 80029ac:	430b      	orrs	r3, r1
 80029ae:	43db      	mvns	r3, r3
 80029b0:	ea02 0103 	and.w	r1, r2, r3
 80029b4:	68fb      	ldr	r3, [r7, #12]
 80029b6:	681b      	ldr	r3, [r3, #0]
 80029b8:	697a      	ldr	r2, [r7, #20]
 80029ba:	430a      	orrs	r2, r1
 80029bc:	605a      	str	r2, [r3, #4]
 80029be:	bf00      	nop
 80029c0:	371c      	adds	r7, #28
 80029c2:	46bd      	mov	sp, r7
 80029c4:	f85d 7b04 	ldr.w	r7, [sp], #4
 80029c8:	4770      	bx	lr
 80029ca:	bf00      	nop
 80029cc:	03ff63ff 	.word	0x03ff63ff

080029d0 <HAL_I2CEx_ConfigAnalogFilter>:
 80029d0:	b480      	push	{r7}
 80029d2:	b083      	sub	sp, #12
 80029d4:	af00      	add	r7, sp, #0
 80029d6:	6078      	str	r0, [r7, #4]
 80029d8:	6039      	str	r1, [r7, #0]
 80029da:	687b      	ldr	r3, [r7, #4]
 80029dc:	f893 3041 	ldrb.w	r3, [r3, #65]	; 0x41
 80029e0:	b2db      	uxtb	r3, r3
 80029e2:	2b20      	cmp	r3, #32
 80029e4:	d138      	bne.n	8002a58 <HAL_I2CEx_ConfigAnalogFilter+0x88>
 80029e6:	687b      	ldr	r3, [r7, #4]
 80029e8:	f893 3040 	ldrb.w	r3, [r3, #64]	; 0x40
 80029ec:	2b01      	cmp	r3, #1
 80029ee:	d101      	bne.n	80029f4 <HAL_I2CEx_ConfigAnalogFilter+0x24>
 80029f0:	2302      	movs	r3, #2
 80029f2:	e032      	b.n	8002a5a <HAL_I2CEx_ConfigAnalogFilter+0x8a>
 80029f4:	687b      	ldr	r3, [r7, #4]
 80029f6:	2201      	movs	r2, #1
 80029f8:	f883 2040 	strb.w	r2, [r3, #64]	; 0x40
 80029fc:	687b      	ldr	r3, [r7, #4]
 80029fe:	2224      	movs	r2, #36	; 0x24
 8002a00:	f883 2041 	strb.w	r2, [r3, #65]	; 0x41
 8002a04:	687b      	ldr	r3, [r7, #4]
 8002a06:	681b      	ldr	r3, [r3, #0]
 8002a08:	681a      	ldr	r2, [r3, #0]
 8002a0a:	687b      	ldr	r3, [r7, #4]
 8002a0c:	681b      	ldr	r3, [r3, #0]
 8002a0e:	f022 0201 	bic.w	r2, r2, #1
 8002a12:	601a      	str	r2, [r3, #0]
 8002a14:	687b      	ldr	r3, [r7, #4]
 8002a16:	681b      	ldr	r3, [r3, #0]
 8002a18:	681a      	ldr	r2, [r3, #0]
 8002a1a:	687b      	ldr	r3, [r7, #4]
 8002a1c:	681b      	ldr	r3, [r3, #0]
 8002a1e:	f422 5280 	bic.w	r2, r2, #4096	; 0x1000
 8002a22:	601a      	str	r2, [r3, #0]
 8002a24:	687b      	ldr	r3, [r7, #4]
 8002a26:	681b      	ldr	r3, [r3, #0]
 8002a28:	6819      	ldr	r1, [r3, #0]
 8002a2a:	687b      	ldr	r3, [r7, #4]
 8002a2c:	681b      	ldr	r3, [r3, #0]
 8002a2e:	683a      	ldr	r2, [r7, #0]
 8002a30:	430a      	orrs	r2, r1
 8002a32:	601a      	str	r2, [r3, #0]
 8002a34:	687b      	ldr	r3, [r7, #4]
 8002a36:	681b      	ldr	r3, [r3, #0]
 8002a38:	681a      	ldr	r2, [r3, #0]
 8002a3a:	687b      	ldr	r3, [r7, #4]
 8002a3c:	681b      	ldr	r3, [r3, #0]
 8002a3e:	f042 0201 	orr.w	r2, r2, #1
 8002a42:	601a      	str	r2, [r3, #0]
 8002a44:	687b      	ldr	r3, [r7, #4]
 8002a46:	2220      	movs	r2, #32
 8002a48:	f883 2041 	strb.w	r2, [r3, #65]	; 0x41
 8002a4c:	687b      	ldr	r3, [r7, #4]
 8002a4e:	2200      	movs	r2, #0
 8002a50:	f883 2040 	strb.w	r2, [r3, #64]	; 0x40
 8002a54:	2300      	movs	r3, #0
 8002a56:	e000      	b.n	8002a5a <HAL_I2CEx_ConfigAnalogFilter+0x8a>
 8002a58:	2302      	movs	r3, #2
 8002a5a:	4618      	mov	r0, r3
 8002a5c:	370c      	adds	r7, #12
 8002a5e:	46bd      	mov	sp, r7
 8002a60:	f85d 7b04 	ldr.w	r7, [sp], #4
 8002a64:	4770      	bx	lr

08002a66 <HAL_I2CEx_ConfigDigitalFilter>:
 8002a66:	b480      	push	{r7}
 8002a68:	b085      	sub	sp, #20
 8002a6a:	af00      	add	r7, sp, #0
 8002a6c:	6078      	str	r0, [r7, #4]
 8002a6e:	6039      	str	r1, [r7, #0]
 8002a70:	687b      	ldr	r3, [r7, #4]
 8002a72:	f893 3041 	ldrb.w	r3, [r3, #65]	; 0x41
 8002a76:	b2db      	uxtb	r3, r3
 8002a78:	2b20      	cmp	r3, #32
 8002a7a:	d139      	bne.n	8002af0 <HAL_I2CEx_ConfigDigitalFilter+0x8a>
 8002a7c:	687b      	ldr	r3, [r7, #4]
 8002a7e:	f893 3040 	ldrb.w	r3, [r3, #64]	; 0x40
 8002a82:	2b01      	cmp	r3, #1
 8002a84:	d101      	bne.n	8002a8a <HAL_I2CEx_ConfigDigitalFilter+0x24>
 8002a86:	2302      	movs	r3, #2
 8002a88:	e033      	b.n	8002af2 <HAL_I2CEx_ConfigDigitalFilter+0x8c>
 8002a8a:	687b      	ldr	r3, [r7, #4]
 8002a8c:	2201      	movs	r2, #1
 8002a8e:	f883 2040 	strb.w	r2, [r3, #64]	; 0x40
 8002a92:	687b      	ldr	r3, [r7, #4]
 8002a94:	2224      	movs	r2, #36	; 0x24
 8002a96:	f883 2041 	strb.w	r2, [r3, #65]	; 0x41
 8002a9a:	687b      	ldr	r3, [r7, #4]
 8002a9c:	681b      	ldr	r3, [r3, #0]
 8002a9e:	681a      	ldr	r2, [r3, #0]
 8002aa0:	687b      	ldr	r3, [r7, #4]
 8002aa2:	681b      	ldr	r3, [r3, #0]
 8002aa4:	f022 0201 	bic.w	r2, r2, #1
 8002aa8:	601a      	str	r2, [r3, #0]
 8002aaa:	687b      	ldr	r3, [r7, #4]
 8002aac:	681b      	ldr	r3, [r3, #0]
 8002aae:	681b      	ldr	r3, [r3, #0]
 8002ab0:	60fb      	str	r3, [r7, #12]
 8002ab2:	68fb      	ldr	r3, [r7, #12]
 8002ab4:	f423 6370 	bic.w	r3, r3, #3840	; 0xf00
 8002ab8:	60fb      	str	r3, [r7, #12]
 8002aba:	683b      	ldr	r3, [r7, #0]
 8002abc:	021b      	lsls	r3, r3, #8
 8002abe:	68fa      	ldr	r2, [r7, #12]
 8002ac0:	4313      	orrs	r3, r2
 8002ac2:	60fb      	str	r3, [r7, #12]
 8002ac4:	687b      	ldr	r3, [r7, #4]
 8002ac6:	681b      	ldr	r3, [r3, #0]
 8002ac8:	68fa      	ldr	r2, [r7, #12]
 8002aca:	601a      	str	r2, [r3, #0]
 8002acc:	687b      	ldr	r3, [r7, #4]
 8002ace:	681b      	ldr	r3, [r3, #0]
 8002ad0:	681a      	ldr	r2, [r3, #0]
 8002ad2:	687b      	ldr	r3, [r7, #4]
 8002ad4:	681b      	ldr	r3, [r3, #0]
 8002ad6:	f042 0201 	orr.w	r2, r2, #1
 8002ada:	601a      	str	r2, [r3, #0]
 8002adc:	687b      	ldr	r3, [r7, #4]
 8002ade:	2220      	movs	r2, #32
 8002ae0:	f883 2041 	strb.w	r2, [r3, #65]	; 0x41
 8002ae4:	687b      	ldr	r3, [r7, #4]
 8002ae6:	2200      	movs	r2, #0
 8002ae8:	f883 2040 	strb.w	r2, [r3, #64]	; 0x40
 8002aec:	2300      	movs	r3, #0
 8002aee:	e000      	b.n	8002af2 <HAL_I2CEx_ConfigDigitalFilter+0x8c>
 8002af0:	2302      	movs	r3, #2
 8002af2:	4618      	mov	r0, r3
 8002af4:	3714      	adds	r7, #20
 8002af6:	46bd      	mov	sp, r7
 8002af8:	f85d 7b04 	ldr.w	r7, [sp], #4
 8002afc:	4770      	bx	lr
	...

08002b00 <HAL_PWREx_GetVoltageRange>:
 8002b00:	b480      	push	{r7}
 8002b02:	af00      	add	r7, sp, #0
 8002b04:	4b04      	ldr	r3, [pc, #16]	; (8002b18 <HAL_PWREx_GetVoltageRange+0x18>)
 8002b06:	681b      	ldr	r3, [r3, #0]
 8002b08:	f403 63c0 	and.w	r3, r3, #1536	; 0x600
 8002b0c:	4618      	mov	r0, r3
 8002b0e:	46bd      	mov	sp, r7
 8002b10:	f85d 7b04 	ldr.w	r7, [sp], #4
 8002b14:	4770      	bx	lr
 8002b16:	bf00      	nop
 8002b18:	40007000 	.word	0x40007000

08002b1c <HAL_PWREx_ControlVoltageScaling>:
 8002b1c:	b480      	push	{r7}
 8002b1e:	b085      	sub	sp, #20
 8002b20:	af00      	add	r7, sp, #0
 8002b22:	6078      	str	r0, [r7, #4]
 8002b24:	687b      	ldr	r3, [r7, #4]
 8002b26:	f5b3 7f00 	cmp.w	r3, #512	; 0x200
 8002b2a:	d130      	bne.n	8002b8e <HAL_PWREx_ControlVoltageScaling+0x72>
 8002b2c:	4b23      	ldr	r3, [pc, #140]	; (8002bbc <HAL_PWREx_ControlVoltageScaling+0xa0>)
 8002b2e:	681b      	ldr	r3, [r3, #0]
 8002b30:	f403 63c0 	and.w	r3, r3, #1536	; 0x600
 8002b34:	f5b3 7f00 	cmp.w	r3, #512	; 0x200
 8002b38:	d038      	beq.n	8002bac <HAL_PWREx_ControlVoltageScaling+0x90>
 8002b3a:	4b20      	ldr	r3, [pc, #128]	; (8002bbc <HAL_PWREx_ControlVoltageScaling+0xa0>)
 8002b3c:	681b      	ldr	r3, [r3, #0]
 8002b3e:	f423 63c0 	bic.w	r3, r3, #1536	; 0x600
 8002b42:	4a1e      	ldr	r2, [pc, #120]	; (8002bbc <HAL_PWREx_ControlVoltageScaling+0xa0>)
 8002b44:	f443 7300 	orr.w	r3, r3, #512	; 0x200
 8002b48:	6013      	str	r3, [r2, #0]
 8002b4a:	4b1d      	ldr	r3, [pc, #116]	; (8002bc0 <HAL_PWREx_ControlVoltageScaling+0xa4>)
 8002b4c:	681b      	ldr	r3, [r3, #0]
 8002b4e:	2232      	movs	r2, #50	; 0x32
 8002b50:	fb02 f303 	mul.w	r3, r2, r3
 8002b54:	4a1b      	ldr	r2, [pc, #108]	; (8002bc4 <HAL_PWREx_ControlVoltageScaling+0xa8>)
 8002b56:	fba2 2303 	umull	r2, r3, r2, r3
 8002b5a:	0c9b      	lsrs	r3, r3, #18
 8002b5c:	3301      	adds	r3, #1
 8002b5e:	60fb      	str	r3, [r7, #12]
 8002b60:	e002      	b.n	8002b68 <HAL_PWREx_ControlVoltageScaling+0x4c>
 8002b62:	68fb      	ldr	r3, [r7, #12]
 8002b64:	3b01      	subs	r3, #1
 8002b66:	60fb      	str	r3, [r7, #12]
 8002b68:	4b14      	ldr	r3, [pc, #80]	; (8002bbc <HAL_PWREx_ControlVoltageScaling+0xa0>)
 8002b6a:	695b      	ldr	r3, [r3, #20]
 8002b6c:	f403 6380 	and.w	r3, r3, #1024	; 0x400
 8002b70:	f5b3 6f80 	cmp.w	r3, #1024	; 0x400
 8002b74:	d102      	bne.n	8002b7c <HAL_PWREx_ControlVoltageScaling+0x60>
 8002b76:	68fb      	ldr	r3, [r7, #12]
 8002b78:	2b00      	cmp	r3, #0
 8002b7a:	d1f2      	bne.n	8002b62 <HAL_PWREx_ControlVoltageScaling+0x46>
 8002b7c:	4b0f      	ldr	r3, [pc, #60]	; (8002bbc <HAL_PWREx_ControlVoltageScaling+0xa0>)
 8002b7e:	695b      	ldr	r3, [r3, #20]
 8002b80:	f403 6380 	and.w	r3, r3, #1024	; 0x400
 8002b84:	f5b3 6f80 	cmp.w	r3, #1024	; 0x400
 8002b88:	d110      	bne.n	8002bac <HAL_PWREx_ControlVoltageScaling+0x90>
 8002b8a:	2303      	movs	r3, #3
 8002b8c:	e00f      	b.n	8002bae <HAL_PWREx_ControlVoltageScaling+0x92>
 8002b8e:	4b0b      	ldr	r3, [pc, #44]	; (8002bbc <HAL_PWREx_ControlVoltageScaling+0xa0>)
 8002b90:	681b      	ldr	r3, [r3, #0]
 8002b92:	f403 63c0 	and.w	r3, r3, #1536	; 0x600
 8002b96:	f5b3 6f80 	cmp.w	r3, #1024	; 0x400
 8002b9a:	d007      	beq.n	8002bac <HAL_PWREx_ControlVoltageScaling+0x90>
 8002b9c:	4b07      	ldr	r3, [pc, #28]	; (8002bbc <HAL_PWREx_ControlVoltageScaling+0xa0>)
 8002b9e:	681b      	ldr	r3, [r3, #0]
 8002ba0:	f423 63c0 	bic.w	r3, r3, #1536	; 0x600
 8002ba4:	4a05      	ldr	r2, [pc, #20]	; (8002bbc <HAL_PWREx_ControlVoltageScaling+0xa0>)
 8002ba6:	f443 6380 	orr.w	r3, r3, #1024	; 0x400
 8002baa:	6013      	str	r3, [r2, #0]
 8002bac:	2300      	movs	r3, #0
 8002bae:	4618      	mov	r0, r3
 8002bb0:	3714      	adds	r7, #20
 8002bb2:	46bd      	mov	sp, r7
 8002bb4:	f85d 7b04 	ldr.w	r7, [sp], #4
 8002bb8:	4770      	bx	lr
 8002bba:	bf00      	nop
 8002bbc:	40007000 	.word	0x40007000
 8002bc0:	20000004 	.word	0x20000004
 8002bc4:	431bde83 	.word	0x431bde83

08002bc8 <HAL_RCC_OscConfig>:
 8002bc8:	b580      	push	{r7, lr}
 8002bca:	b088      	sub	sp, #32
 8002bcc:	af00      	add	r7, sp, #0
 8002bce:	6078      	str	r0, [r7, #4]
 8002bd0:	687b      	ldr	r3, [r7, #4]
 8002bd2:	2b00      	cmp	r3, #0
 8002bd4:	d102      	bne.n	8002bdc <HAL_RCC_OscConfig+0x14>
 8002bd6:	2301      	movs	r3, #1
 8002bd8:	f000 bc02 	b.w	80033e0 <HAL_RCC_OscConfig+0x818>
 8002bdc:	4b96      	ldr	r3, [pc, #600]	; (8002e38 <HAL_RCC_OscConfig+0x270>)
 8002bde:	689b      	ldr	r3, [r3, #8]
 8002be0:	f003 030c 	and.w	r3, r3, #12
 8002be4:	61bb      	str	r3, [r7, #24]
 8002be6:	4b94      	ldr	r3, [pc, #592]	; (8002e38 <HAL_RCC_OscConfig+0x270>)
 8002be8:	68db      	ldr	r3, [r3, #12]
 8002bea:	f003 0303 	and.w	r3, r3, #3
 8002bee:	617b      	str	r3, [r7, #20]
 8002bf0:	687b      	ldr	r3, [r7, #4]
 8002bf2:	681b      	ldr	r3, [r3, #0]
 8002bf4:	f003 0310 	and.w	r3, r3, #16
 8002bf8:	2b00      	cmp	r3, #0
 8002bfa:	f000 80e4 	beq.w	8002dc6 <HAL_RCC_OscConfig+0x1fe>
 8002bfe:	69bb      	ldr	r3, [r7, #24]
 8002c00:	2b00      	cmp	r3, #0
 8002c02:	d007      	beq.n	8002c14 <HAL_RCC_OscConfig+0x4c>
 8002c04:	69bb      	ldr	r3, [r7, #24]
 8002c06:	2b0c      	cmp	r3, #12
 8002c08:	f040 808b 	bne.w	8002d22 <HAL_RCC_OscConfig+0x15a>
 8002c0c:	697b      	ldr	r3, [r7, #20]
 8002c0e:	2b01      	cmp	r3, #1
 8002c10:	f040 8087 	bne.w	8002d22 <HAL_RCC_OscConfig+0x15a>
 8002c14:	4b88      	ldr	r3, [pc, #544]	; (8002e38 <HAL_RCC_OscConfig+0x270>)
 8002c16:	681b      	ldr	r3, [r3, #0]
 8002c18:	f003 0302 	and.w	r3, r3, #2
 8002c1c:	2b00      	cmp	r3, #0
 8002c1e:	d005      	beq.n	8002c2c <HAL_RCC_OscConfig+0x64>
 8002c20:	687b      	ldr	r3, [r7, #4]
 8002c22:	699b      	ldr	r3, [r3, #24]
 8002c24:	2b00      	cmp	r3, #0
 8002c26:	d101      	bne.n	8002c2c <HAL_RCC_OscConfig+0x64>
 8002c28:	2301      	movs	r3, #1
 8002c2a:	e3d9      	b.n	80033e0 <HAL_RCC_OscConfig+0x818>
 8002c2c:	687b      	ldr	r3, [r7, #4]
 8002c2e:	6a1a      	ldr	r2, [r3, #32]
 8002c30:	4b81      	ldr	r3, [pc, #516]	; (8002e38 <HAL_RCC_OscConfig+0x270>)
 8002c32:	681b      	ldr	r3, [r3, #0]
 8002c34:	f003 0308 	and.w	r3, r3, #8
 8002c38:	2b00      	cmp	r3, #0
 8002c3a:	d004      	beq.n	8002c46 <HAL_RCC_OscConfig+0x7e>
 8002c3c:	4b7e      	ldr	r3, [pc, #504]	; (8002e38 <HAL_RCC_OscConfig+0x270>)
 8002c3e:	681b      	ldr	r3, [r3, #0]
 8002c40:	f003 03f0 	and.w	r3, r3, #240	; 0xf0
 8002c44:	e005      	b.n	8002c52 <HAL_RCC_OscConfig+0x8a>
 8002c46:	4b7c      	ldr	r3, [pc, #496]	; (8002e38 <HAL_RCC_OscConfig+0x270>)
 8002c48:	f8d3 3094 	ldr.w	r3, [r3, #148]	; 0x94
 8002c4c:	091b      	lsrs	r3, r3, #4
 8002c4e:	f003 03f0 	and.w	r3, r3, #240	; 0xf0
 8002c52:	4293      	cmp	r3, r2
 8002c54:	d223      	bcs.n	8002c9e <HAL_RCC_OscConfig+0xd6>
 8002c56:	687b      	ldr	r3, [r7, #4]
 8002c58:	6a1b      	ldr	r3, [r3, #32]
 8002c5a:	4618      	mov	r0, r3
 8002c5c:	f000 fd8c 	bl	8003778 <RCC_SetFlashLatencyFromMSIRange>
 8002c60:	4603      	mov	r3, r0
 8002c62:	2b00      	cmp	r3, #0
 8002c64:	d001      	beq.n	8002c6a <HAL_RCC_OscConfig+0xa2>
 8002c66:	2301      	movs	r3, #1
 8002c68:	e3ba      	b.n	80033e0 <HAL_RCC_OscConfig+0x818>
 8002c6a:	4b73      	ldr	r3, [pc, #460]	; (8002e38 <HAL_RCC_OscConfig+0x270>)
 8002c6c:	681b      	ldr	r3, [r3, #0]
 8002c6e:	4a72      	ldr	r2, [pc, #456]	; (8002e38 <HAL_RCC_OscConfig+0x270>)
 8002c70:	f043 0308 	orr.w	r3, r3, #8
 8002c74:	6013      	str	r3, [r2, #0]
 8002c76:	4b70      	ldr	r3, [pc, #448]	; (8002e38 <HAL_RCC_OscConfig+0x270>)
 8002c78:	681b      	ldr	r3, [r3, #0]
 8002c7a:	f023 02f0 	bic.w	r2, r3, #240	; 0xf0
 8002c7e:	687b      	ldr	r3, [r7, #4]
 8002c80:	6a1b      	ldr	r3, [r3, #32]
 8002c82:	496d      	ldr	r1, [pc, #436]	; (8002e38 <HAL_RCC_OscConfig+0x270>)
 8002c84:	4313      	orrs	r3, r2
 8002c86:	600b      	str	r3, [r1, #0]
 8002c88:	4b6b      	ldr	r3, [pc, #428]	; (8002e38 <HAL_RCC_OscConfig+0x270>)
 8002c8a:	685b      	ldr	r3, [r3, #4]
 8002c8c:	f423 427f 	bic.w	r2, r3, #65280	; 0xff00
 8002c90:	687b      	ldr	r3, [r7, #4]
 8002c92:	69db      	ldr	r3, [r3, #28]
 8002c94:	021b      	lsls	r3, r3, #8
 8002c96:	4968      	ldr	r1, [pc, #416]	; (8002e38 <HAL_RCC_OscConfig+0x270>)
 8002c98:	4313      	orrs	r3, r2
 8002c9a:	604b      	str	r3, [r1, #4]
 8002c9c:	e025      	b.n	8002cea <HAL_RCC_OscConfig+0x122>
 8002c9e:	4b66      	ldr	r3, [pc, #408]	; (8002e38 <HAL_RCC_OscConfig+0x270>)
 8002ca0:	681b      	ldr	r3, [r3, #0]
 8002ca2:	4a65      	ldr	r2, [pc, #404]	; (8002e38 <HAL_RCC_OscConfig+0x270>)
 8002ca4:	f043 0308 	orr.w	r3, r3, #8
 8002ca8:	6013      	str	r3, [r2, #0]
 8002caa:	4b63      	ldr	r3, [pc, #396]	; (8002e38 <HAL_RCC_OscConfig+0x270>)
 8002cac:	681b      	ldr	r3, [r3, #0]
 8002cae:	f023 02f0 	bic.w	r2, r3, #240	; 0xf0
 8002cb2:	687b      	ldr	r3, [r7, #4]
 8002cb4:	6a1b      	ldr	r3, [r3, #32]
 8002cb6:	4960      	ldr	r1, [pc, #384]	; (8002e38 <HAL_RCC_OscConfig+0x270>)
 8002cb8:	4313      	orrs	r3, r2
 8002cba:	600b      	str	r3, [r1, #0]
 8002cbc:	4b5e      	ldr	r3, [pc, #376]	; (8002e38 <HAL_RCC_OscConfig+0x270>)
 8002cbe:	685b      	ldr	r3, [r3, #4]
 8002cc0:	f423 427f 	bic.w	r2, r3, #65280	; 0xff00
 8002cc4:	687b      	ldr	r3, [r7, #4]
 8002cc6:	69db      	ldr	r3, [r3, #28]
 8002cc8:	021b      	lsls	r3, r3, #8
 8002cca:	495b      	ldr	r1, [pc, #364]	; (8002e38 <HAL_RCC_OscConfig+0x270>)
 8002ccc:	4313      	orrs	r3, r2
 8002cce:	604b      	str	r3, [r1, #4]
 8002cd0:	69bb      	ldr	r3, [r7, #24]
 8002cd2:	2b00      	cmp	r3, #0
 8002cd4:	d109      	bne.n	8002cea <HAL_RCC_OscConfig+0x122>
 8002cd6:	687b      	ldr	r3, [r7, #4]
 8002cd8:	6a1b      	ldr	r3, [r3, #32]
 8002cda:	4618      	mov	r0, r3
 8002cdc:	f000 fd4c 	bl	8003778 <RCC_SetFlashLatencyFromMSIRange>
 8002ce0:	4603      	mov	r3, r0
 8002ce2:	2b00      	cmp	r3, #0
 8002ce4:	d001      	beq.n	8002cea <HAL_RCC_OscConfig+0x122>
 8002ce6:	2301      	movs	r3, #1
 8002ce8:	e37a      	b.n	80033e0 <HAL_RCC_OscConfig+0x818>
 8002cea:	f000 fc81 	bl	80035f0 <HAL_RCC_GetSysClockFreq>
 8002cee:	4602      	mov	r2, r0
 8002cf0:	4b51      	ldr	r3, [pc, #324]	; (8002e38 <HAL_RCC_OscConfig+0x270>)
 8002cf2:	689b      	ldr	r3, [r3, #8]
 8002cf4:	091b      	lsrs	r3, r3, #4
 8002cf6:	f003 030f 	and.w	r3, r3, #15
 8002cfa:	4950      	ldr	r1, [pc, #320]	; (8002e3c <HAL_RCC_OscConfig+0x274>)
 8002cfc:	5ccb      	ldrb	r3, [r1, r3]
 8002cfe:	f003 031f 	and.w	r3, r3, #31
 8002d02:	fa22 f303 	lsr.w	r3, r2, r3
 8002d06:	4a4e      	ldr	r2, [pc, #312]	; (8002e40 <HAL_RCC_OscConfig+0x278>)
 8002d08:	6013      	str	r3, [r2, #0]
 8002d0a:	4b4e      	ldr	r3, [pc, #312]	; (8002e44 <HAL_RCC_OscConfig+0x27c>)
 8002d0c:	681b      	ldr	r3, [r3, #0]
 8002d0e:	4618      	mov	r0, r3
 8002d10:	f7fe fd22 	bl	8001758 <HAL_InitTick>
 8002d14:	4603      	mov	r3, r0
 8002d16:	73fb      	strb	r3, [r7, #15]
 8002d18:	7bfb      	ldrb	r3, [r7, #15]
 8002d1a:	2b00      	cmp	r3, #0
 8002d1c:	d052      	beq.n	8002dc4 <HAL_RCC_OscConfig+0x1fc>
 8002d1e:	7bfb      	ldrb	r3, [r7, #15]
 8002d20:	e35e      	b.n	80033e0 <HAL_RCC_OscConfig+0x818>
 8002d22:	687b      	ldr	r3, [r7, #4]
 8002d24:	699b      	ldr	r3, [r3, #24]
 8002d26:	2b00      	cmp	r3, #0
 8002d28:	d032      	beq.n	8002d90 <HAL_RCC_OscConfig+0x1c8>
 8002d2a:	4b43      	ldr	r3, [pc, #268]	; (8002e38 <HAL_RCC_OscConfig+0x270>)
 8002d2c:	681b      	ldr	r3, [r3, #0]
 8002d2e:	4a42      	ldr	r2, [pc, #264]	; (8002e38 <HAL_RCC_OscConfig+0x270>)
 8002d30:	f043 0301 	orr.w	r3, r3, #1
 8002d34:	6013      	str	r3, [r2, #0]
 8002d36:	f7fe fd5f 	bl	80017f8 <HAL_GetTick>
 8002d3a:	6138      	str	r0, [r7, #16]
 8002d3c:	e008      	b.n	8002d50 <HAL_RCC_OscConfig+0x188>
 8002d3e:	f7fe fd5b 	bl	80017f8 <HAL_GetTick>
 8002d42:	4602      	mov	r2, r0
 8002d44:	693b      	ldr	r3, [r7, #16]
 8002d46:	1ad3      	subs	r3, r2, r3
 8002d48:	2b02      	cmp	r3, #2
 8002d4a:	d901      	bls.n	8002d50 <HAL_RCC_OscConfig+0x188>
 8002d4c:	2303      	movs	r3, #3
 8002d4e:	e347      	b.n	80033e0 <HAL_RCC_OscConfig+0x818>
 8002d50:	4b39      	ldr	r3, [pc, #228]	; (8002e38 <HAL_RCC_OscConfig+0x270>)
 8002d52:	681b      	ldr	r3, [r3, #0]
 8002d54:	f003 0302 	and.w	r3, r3, #2
 8002d58:	2b00      	cmp	r3, #0
 8002d5a:	d0f0      	beq.n	8002d3e <HAL_RCC_OscConfig+0x176>
 8002d5c:	4b36      	ldr	r3, [pc, #216]	; (8002e38 <HAL_RCC_OscConfig+0x270>)
 8002d5e:	681b      	ldr	r3, [r3, #0]
 8002d60:	4a35      	ldr	r2, [pc, #212]	; (8002e38 <HAL_RCC_OscConfig+0x270>)
 8002d62:	f043 0308 	orr.w	r3, r3, #8
 8002d66:	6013      	str	r3, [r2, #0]
 8002d68:	4b33      	ldr	r3, [pc, #204]	; (8002e38 <HAL_RCC_OscConfig+0x270>)
 8002d6a:	681b      	ldr	r3, [r3, #0]
 8002d6c:	f023 02f0 	bic.w	r2, r3, #240	; 0xf0
 8002d70:	687b      	ldr	r3, [r7, #4]
 8002d72:	6a1b      	ldr	r3, [r3, #32]
 8002d74:	4930      	ldr	r1, [pc, #192]	; (8002e38 <HAL_RCC_OscConfig+0x270>)
 8002d76:	4313      	orrs	r3, r2
 8002d78:	600b      	str	r3, [r1, #0]
 8002d7a:	4b2f      	ldr	r3, [pc, #188]	; (8002e38 <HAL_RCC_OscConfig+0x270>)
 8002d7c:	685b      	ldr	r3, [r3, #4]
 8002d7e:	f423 427f 	bic.w	r2, r3, #65280	; 0xff00
 8002d82:	687b      	ldr	r3, [r7, #4]
 8002d84:	69db      	ldr	r3, [r3, #28]
 8002d86:	021b      	lsls	r3, r3, #8
 8002d88:	492b      	ldr	r1, [pc, #172]	; (8002e38 <HAL_RCC_OscConfig+0x270>)
 8002d8a:	4313      	orrs	r3, r2
 8002d8c:	604b      	str	r3, [r1, #4]
 8002d8e:	e01a      	b.n	8002dc6 <HAL_RCC_OscConfig+0x1fe>
 8002d90:	4b29      	ldr	r3, [pc, #164]	; (8002e38 <HAL_RCC_OscConfig+0x270>)
 8002d92:	681b      	ldr	r3, [r3, #0]
 8002d94:	4a28      	ldr	r2, [pc, #160]	; (8002e38 <HAL_RCC_OscConfig+0x270>)
 8002d96:	f023 0301 	bic.w	r3, r3, #1
 8002d9a:	6013      	str	r3, [r2, #0]
 8002d9c:	f7fe fd2c 	bl	80017f8 <HAL_GetTick>
 8002da0:	6138      	str	r0, [r7, #16]
 8002da2:	e008      	b.n	8002db6 <HAL_RCC_OscConfig+0x1ee>
 8002da4:	f7fe fd28 	bl	80017f8 <HAL_GetTick>
 8002da8:	4602      	mov	r2, r0
 8002daa:	693b      	ldr	r3, [r7, #16]
 8002dac:	1ad3      	subs	r3, r2, r3
 8002dae:	2b02      	cmp	r3, #2
 8002db0:	d901      	bls.n	8002db6 <HAL_RCC_OscConfig+0x1ee>
 8002db2:	2303      	movs	r3, #3
 8002db4:	e314      	b.n	80033e0 <HAL_RCC_OscConfig+0x818>
 8002db6:	4b20      	ldr	r3, [pc, #128]	; (8002e38 <HAL_RCC_OscConfig+0x270>)
 8002db8:	681b      	ldr	r3, [r3, #0]
 8002dba:	f003 0302 	and.w	r3, r3, #2
 8002dbe:	2b00      	cmp	r3, #0
 8002dc0:	d1f0      	bne.n	8002da4 <HAL_RCC_OscConfig+0x1dc>
 8002dc2:	e000      	b.n	8002dc6 <HAL_RCC_OscConfig+0x1fe>
 8002dc4:	bf00      	nop
 8002dc6:	687b      	ldr	r3, [r7, #4]
 8002dc8:	681b      	ldr	r3, [r3, #0]
 8002dca:	f003 0301 	and.w	r3, r3, #1
 8002dce:	2b00      	cmp	r3, #0
 8002dd0:	d073      	beq.n	8002eba <HAL_RCC_OscConfig+0x2f2>
 8002dd2:	69bb      	ldr	r3, [r7, #24]
 8002dd4:	2b08      	cmp	r3, #8
 8002dd6:	d005      	beq.n	8002de4 <HAL_RCC_OscConfig+0x21c>
 8002dd8:	69bb      	ldr	r3, [r7, #24]
 8002dda:	2b0c      	cmp	r3, #12
 8002ddc:	d10e      	bne.n	8002dfc <HAL_RCC_OscConfig+0x234>
 8002dde:	697b      	ldr	r3, [r7, #20]
 8002de0:	2b03      	cmp	r3, #3
 8002de2:	d10b      	bne.n	8002dfc <HAL_RCC_OscConfig+0x234>
 8002de4:	4b14      	ldr	r3, [pc, #80]	; (8002e38 <HAL_RCC_OscConfig+0x270>)
 8002de6:	681b      	ldr	r3, [r3, #0]
 8002de8:	f403 3300 	and.w	r3, r3, #131072	; 0x20000
 8002dec:	2b00      	cmp	r3, #0
 8002dee:	d063      	beq.n	8002eb8 <HAL_RCC_OscConfig+0x2f0>
 8002df0:	687b      	ldr	r3, [r7, #4]
 8002df2:	685b      	ldr	r3, [r3, #4]
 8002df4:	2b00      	cmp	r3, #0
 8002df6:	d15f      	bne.n	8002eb8 <HAL_RCC_OscConfig+0x2f0>
 8002df8:	2301      	movs	r3, #1
 8002dfa:	e2f1      	b.n	80033e0 <HAL_RCC_OscConfig+0x818>
 8002dfc:	687b      	ldr	r3, [r7, #4]
 8002dfe:	685b      	ldr	r3, [r3, #4]
 8002e00:	f5b3 3f80 	cmp.w	r3, #65536	; 0x10000
 8002e04:	d106      	bne.n	8002e14 <HAL_RCC_OscConfig+0x24c>
 8002e06:	4b0c      	ldr	r3, [pc, #48]	; (8002e38 <HAL_RCC_OscConfig+0x270>)
 8002e08:	681b      	ldr	r3, [r3, #0]
 8002e0a:	4a0b      	ldr	r2, [pc, #44]	; (8002e38 <HAL_RCC_OscConfig+0x270>)
 8002e0c:	f443 3380 	orr.w	r3, r3, #65536	; 0x10000
 8002e10:	6013      	str	r3, [r2, #0]
 8002e12:	e025      	b.n	8002e60 <HAL_RCC_OscConfig+0x298>
 8002e14:	687b      	ldr	r3, [r7, #4]
 8002e16:	685b      	ldr	r3, [r3, #4]
 8002e18:	f5b3 2fa0 	cmp.w	r3, #327680	; 0x50000
 8002e1c:	d114      	bne.n	8002e48 <HAL_RCC_OscConfig+0x280>
 8002e1e:	4b06      	ldr	r3, [pc, #24]	; (8002e38 <HAL_RCC_OscConfig+0x270>)
 8002e20:	681b      	ldr	r3, [r3, #0]
 8002e22:	4a05      	ldr	r2, [pc, #20]	; (8002e38 <HAL_RCC_OscConfig+0x270>)
 8002e24:	f443 2380 	orr.w	r3, r3, #262144	; 0x40000
 8002e28:	6013      	str	r3, [r2, #0]
 8002e2a:	4b03      	ldr	r3, [pc, #12]	; (8002e38 <HAL_RCC_OscConfig+0x270>)
 8002e2c:	681b      	ldr	r3, [r3, #0]
 8002e2e:	4a02      	ldr	r2, [pc, #8]	; (8002e38 <HAL_RCC_OscConfig+0x270>)
 8002e30:	f443 3380 	orr.w	r3, r3, #65536	; 0x10000
 8002e34:	6013      	str	r3, [r2, #0]
 8002e36:	e013      	b.n	8002e60 <HAL_RCC_OscConfig+0x298>
 8002e38:	40021000 	.word	0x40021000
 8002e3c:	08006938 	.word	0x08006938
 8002e40:	20000004 	.word	0x20000004
 8002e44:	20000008 	.word	0x20000008
 8002e48:	4ba0      	ldr	r3, [pc, #640]	; (80030cc <HAL_RCC_OscConfig+0x504>)
 8002e4a:	681b      	ldr	r3, [r3, #0]
 8002e4c:	4a9f      	ldr	r2, [pc, #636]	; (80030cc <HAL_RCC_OscConfig+0x504>)
 8002e4e:	f423 3380 	bic.w	r3, r3, #65536	; 0x10000
 8002e52:	6013      	str	r3, [r2, #0]
 8002e54:	4b9d      	ldr	r3, [pc, #628]	; (80030cc <HAL_RCC_OscConfig+0x504>)
 8002e56:	681b      	ldr	r3, [r3, #0]
 8002e58:	4a9c      	ldr	r2, [pc, #624]	; (80030cc <HAL_RCC_OscConfig+0x504>)
 8002e5a:	f423 2380 	bic.w	r3, r3, #262144	; 0x40000
 8002e5e:	6013      	str	r3, [r2, #0]
 8002e60:	687b      	ldr	r3, [r7, #4]
 8002e62:	685b      	ldr	r3, [r3, #4]
 8002e64:	2b00      	cmp	r3, #0
 8002e66:	d013      	beq.n	8002e90 <HAL_RCC_OscConfig+0x2c8>
 8002e68:	f7fe fcc6 	bl	80017f8 <HAL_GetTick>
 8002e6c:	6138      	str	r0, [r7, #16]
 8002e6e:	e008      	b.n	8002e82 <HAL_RCC_OscConfig+0x2ba>
 8002e70:	f7fe fcc2 	bl	80017f8 <HAL_GetTick>
 8002e74:	4602      	mov	r2, r0
 8002e76:	693b      	ldr	r3, [r7, #16]
 8002e78:	1ad3      	subs	r3, r2, r3
 8002e7a:	2b64      	cmp	r3, #100	; 0x64
 8002e7c:	d901      	bls.n	8002e82 <HAL_RCC_OscConfig+0x2ba>
 8002e7e:	2303      	movs	r3, #3
 8002e80:	e2ae      	b.n	80033e0 <HAL_RCC_OscConfig+0x818>
 8002e82:	4b92      	ldr	r3, [pc, #584]	; (80030cc <HAL_RCC_OscConfig+0x504>)
 8002e84:	681b      	ldr	r3, [r3, #0]
 8002e86:	f403 3300 	and.w	r3, r3, #131072	; 0x20000
 8002e8a:	2b00      	cmp	r3, #0
 8002e8c:	d0f0      	beq.n	8002e70 <HAL_RCC_OscConfig+0x2a8>
 8002e8e:	e014      	b.n	8002eba <HAL_RCC_OscConfig+0x2f2>
 8002e90:	f7fe fcb2 	bl	80017f8 <HAL_GetTick>
 8002e94:	6138      	str	r0, [r7, #16]
 8002e96:	e008      	b.n	8002eaa <HAL_RCC_OscConfig+0x2e2>
 8002e98:	f7fe fcae 	bl	80017f8 <HAL_GetTick>
 8002e9c:	4602      	mov	r2, r0
 8002e9e:	693b      	ldr	r3, [r7, #16]
 8002ea0:	1ad3      	subs	r3, r2, r3
 8002ea2:	2b64      	cmp	r3, #100	; 0x64
 8002ea4:	d901      	bls.n	8002eaa <HAL_RCC_OscConfig+0x2e2>
 8002ea6:	2303      	movs	r3, #3
 8002ea8:	e29a      	b.n	80033e0 <HAL_RCC_OscConfig+0x818>
 8002eaa:	4b88      	ldr	r3, [pc, #544]	; (80030cc <HAL_RCC_OscConfig+0x504>)
 8002eac:	681b      	ldr	r3, [r3, #0]
 8002eae:	f403 3300 	and.w	r3, r3, #131072	; 0x20000
 8002eb2:	2b00      	cmp	r3, #0
 8002eb4:	d1f0      	bne.n	8002e98 <HAL_RCC_OscConfig+0x2d0>
 8002eb6:	e000      	b.n	8002eba <HAL_RCC_OscConfig+0x2f2>
 8002eb8:	bf00      	nop
 8002eba:	687b      	ldr	r3, [r7, #4]
 8002ebc:	681b      	ldr	r3, [r3, #0]
 8002ebe:	f003 0302 	and.w	r3, r3, #2
 8002ec2:	2b00      	cmp	r3, #0
 8002ec4:	d060      	beq.n	8002f88 <HAL_RCC_OscConfig+0x3c0>
 8002ec6:	69bb      	ldr	r3, [r7, #24]
 8002ec8:	2b04      	cmp	r3, #4
 8002eca:	d005      	beq.n	8002ed8 <HAL_RCC_OscConfig+0x310>
 8002ecc:	69bb      	ldr	r3, [r7, #24]
 8002ece:	2b0c      	cmp	r3, #12
 8002ed0:	d119      	bne.n	8002f06 <HAL_RCC_OscConfig+0x33e>
 8002ed2:	697b      	ldr	r3, [r7, #20]
 8002ed4:	2b02      	cmp	r3, #2
 8002ed6:	d116      	bne.n	8002f06 <HAL_RCC_OscConfig+0x33e>
 8002ed8:	4b7c      	ldr	r3, [pc, #496]	; (80030cc <HAL_RCC_OscConfig+0x504>)
 8002eda:	681b      	ldr	r3, [r3, #0]
 8002edc:	f403 6380 	and.w	r3, r3, #1024	; 0x400
 8002ee0:	2b00      	cmp	r3, #0
 8002ee2:	d005      	beq.n	8002ef0 <HAL_RCC_OscConfig+0x328>
 8002ee4:	687b      	ldr	r3, [r7, #4]
 8002ee6:	68db      	ldr	r3, [r3, #12]
 8002ee8:	2b00      	cmp	r3, #0
 8002eea:	d101      	bne.n	8002ef0 <HAL_RCC_OscConfig+0x328>
 8002eec:	2301      	movs	r3, #1
 8002eee:	e277      	b.n	80033e0 <HAL_RCC_OscConfig+0x818>
 8002ef0:	4b76      	ldr	r3, [pc, #472]	; (80030cc <HAL_RCC_OscConfig+0x504>)
 8002ef2:	685b      	ldr	r3, [r3, #4]
 8002ef4:	f023 42fe 	bic.w	r2, r3, #2130706432	; 0x7f000000
 8002ef8:	687b      	ldr	r3, [r7, #4]
 8002efa:	691b      	ldr	r3, [r3, #16]
 8002efc:	061b      	lsls	r3, r3, #24
 8002efe:	4973      	ldr	r1, [pc, #460]	; (80030cc <HAL_RCC_OscConfig+0x504>)
 8002f00:	4313      	orrs	r3, r2
 8002f02:	604b      	str	r3, [r1, #4]
 8002f04:	e040      	b.n	8002f88 <HAL_RCC_OscConfig+0x3c0>
 8002f06:	687b      	ldr	r3, [r7, #4]
 8002f08:	68db      	ldr	r3, [r3, #12]
 8002f0a:	2b00      	cmp	r3, #0
 8002f0c:	d023      	beq.n	8002f56 <HAL_RCC_OscConfig+0x38e>
 8002f0e:	4b6f      	ldr	r3, [pc, #444]	; (80030cc <HAL_RCC_OscConfig+0x504>)
 8002f10:	681b      	ldr	r3, [r3, #0]
 8002f12:	4a6e      	ldr	r2, [pc, #440]	; (80030cc <HAL_RCC_OscConfig+0x504>)
 8002f14:	f443 7380 	orr.w	r3, r3, #256	; 0x100
 8002f18:	6013      	str	r3, [r2, #0]
 8002f1a:	f7fe fc6d 	bl	80017f8 <HAL_GetTick>
 8002f1e:	6138      	str	r0, [r7, #16]
 8002f20:	e008      	b.n	8002f34 <HAL_RCC_OscConfig+0x36c>
 8002f22:	f7fe fc69 	bl	80017f8 <HAL_GetTick>
 8002f26:	4602      	mov	r2, r0
 8002f28:	693b      	ldr	r3, [r7, #16]
 8002f2a:	1ad3      	subs	r3, r2, r3
 8002f2c:	2b02      	cmp	r3, #2
 8002f2e:	d901      	bls.n	8002f34 <HAL_RCC_OscConfig+0x36c>
 8002f30:	2303      	movs	r3, #3
 8002f32:	e255      	b.n	80033e0 <HAL_RCC_OscConfig+0x818>
 8002f34:	4b65      	ldr	r3, [pc, #404]	; (80030cc <HAL_RCC_OscConfig+0x504>)
 8002f36:	681b      	ldr	r3, [r3, #0]
 8002f38:	f403 6380 	and.w	r3, r3, #1024	; 0x400
 8002f3c:	2b00      	cmp	r3, #0
 8002f3e:	d0f0      	beq.n	8002f22 <HAL_RCC_OscConfig+0x35a>
 8002f40:	4b62      	ldr	r3, [pc, #392]	; (80030cc <HAL_RCC_OscConfig+0x504>)
 8002f42:	685b      	ldr	r3, [r3, #4]
 8002f44:	f023 42fe 	bic.w	r2, r3, #2130706432	; 0x7f000000
 8002f48:	687b      	ldr	r3, [r7, #4]
 8002f4a:	691b      	ldr	r3, [r3, #16]
 8002f4c:	061b      	lsls	r3, r3, #24
 8002f4e:	495f      	ldr	r1, [pc, #380]	; (80030cc <HAL_RCC_OscConfig+0x504>)
 8002f50:	4313      	orrs	r3, r2
 8002f52:	604b      	str	r3, [r1, #4]
 8002f54:	e018      	b.n	8002f88 <HAL_RCC_OscConfig+0x3c0>
 8002f56:	4b5d      	ldr	r3, [pc, #372]	; (80030cc <HAL_RCC_OscConfig+0x504>)
 8002f58:	681b      	ldr	r3, [r3, #0]
 8002f5a:	4a5c      	ldr	r2, [pc, #368]	; (80030cc <HAL_RCC_OscConfig+0x504>)
 8002f5c:	f423 7380 	bic.w	r3, r3, #256	; 0x100
 8002f60:	6013      	str	r3, [r2, #0]
 8002f62:	f7fe fc49 	bl	80017f8 <HAL_GetTick>
 8002f66:	6138      	str	r0, [r7, #16]
 8002f68:	e008      	b.n	8002f7c <HAL_RCC_OscConfig+0x3b4>
 8002f6a:	f7fe fc45 	bl	80017f8 <HAL_GetTick>
 8002f6e:	4602      	mov	r2, r0
 8002f70:	693b      	ldr	r3, [r7, #16]
 8002f72:	1ad3      	subs	r3, r2, r3
 8002f74:	2b02      	cmp	r3, #2
 8002f76:	d901      	bls.n	8002f7c <HAL_RCC_OscConfig+0x3b4>
 8002f78:	2303      	movs	r3, #3
 8002f7a:	e231      	b.n	80033e0 <HAL_RCC_OscConfig+0x818>
 8002f7c:	4b53      	ldr	r3, [pc, #332]	; (80030cc <HAL_RCC_OscConfig+0x504>)
 8002f7e:	681b      	ldr	r3, [r3, #0]
 8002f80:	f403 6380 	and.w	r3, r3, #1024	; 0x400
 8002f84:	2b00      	cmp	r3, #0
 8002f86:	d1f0      	bne.n	8002f6a <HAL_RCC_OscConfig+0x3a2>
 8002f88:	687b      	ldr	r3, [r7, #4]
 8002f8a:	681b      	ldr	r3, [r3, #0]
 8002f8c:	f003 0308 	and.w	r3, r3, #8
 8002f90:	2b00      	cmp	r3, #0
 8002f92:	d03c      	beq.n	800300e <HAL_RCC_OscConfig+0x446>
 8002f94:	687b      	ldr	r3, [r7, #4]
 8002f96:	695b      	ldr	r3, [r3, #20]
 8002f98:	2b00      	cmp	r3, #0
 8002f9a:	d01c      	beq.n	8002fd6 <HAL_RCC_OscConfig+0x40e>
 8002f9c:	4b4b      	ldr	r3, [pc, #300]	; (80030cc <HAL_RCC_OscConfig+0x504>)
 8002f9e:	f8d3 3094 	ldr.w	r3, [r3, #148]	; 0x94
 8002fa2:	4a4a      	ldr	r2, [pc, #296]	; (80030cc <HAL_RCC_OscConfig+0x504>)
 8002fa4:	f043 0301 	orr.w	r3, r3, #1
 8002fa8:	f8c2 3094 	str.w	r3, [r2, #148]	; 0x94
 8002fac:	f7fe fc24 	bl	80017f8 <HAL_GetTick>
 8002fb0:	6138      	str	r0, [r7, #16]
 8002fb2:	e008      	b.n	8002fc6 <HAL_RCC_OscConfig+0x3fe>
 8002fb4:	f7fe fc20 	bl	80017f8 <HAL_GetTick>
 8002fb8:	4602      	mov	r2, r0
 8002fba:	693b      	ldr	r3, [r7, #16]
 8002fbc:	1ad3      	subs	r3, r2, r3
 8002fbe:	2b02      	cmp	r3, #2
 8002fc0:	d901      	bls.n	8002fc6 <HAL_RCC_OscConfig+0x3fe>
 8002fc2:	2303      	movs	r3, #3
 8002fc4:	e20c      	b.n	80033e0 <HAL_RCC_OscConfig+0x818>
 8002fc6:	4b41      	ldr	r3, [pc, #260]	; (80030cc <HAL_RCC_OscConfig+0x504>)
 8002fc8:	f8d3 3094 	ldr.w	r3, [r3, #148]	; 0x94
 8002fcc:	f003 0302 	and.w	r3, r3, #2
 8002fd0:	2b00      	cmp	r3, #0
 8002fd2:	d0ef      	beq.n	8002fb4 <HAL_RCC_OscConfig+0x3ec>
 8002fd4:	e01b      	b.n	800300e <HAL_RCC_OscConfig+0x446>
 8002fd6:	4b3d      	ldr	r3, [pc, #244]	; (80030cc <HAL_RCC_OscConfig+0x504>)
 8002fd8:	f8d3 3094 	ldr.w	r3, [r3, #148]	; 0x94
 8002fdc:	4a3b      	ldr	r2, [pc, #236]	; (80030cc <HAL_RCC_OscConfig+0x504>)
 8002fde:	f023 0301 	bic.w	r3, r3, #1
 8002fe2:	f8c2 3094 	str.w	r3, [r2, #148]	; 0x94
 8002fe6:	f7fe fc07 	bl	80017f8 <HAL_GetTick>
 8002fea:	6138      	str	r0, [r7, #16]
 8002fec:	e008      	b.n	8003000 <HAL_RCC_OscConfig+0x438>
 8002fee:	f7fe fc03 	bl	80017f8 <HAL_GetTick>
 8002ff2:	4602      	mov	r2, r0
 8002ff4:	693b      	ldr	r3, [r7, #16]
 8002ff6:	1ad3      	subs	r3, r2, r3
 8002ff8:	2b02      	cmp	r3, #2
 8002ffa:	d901      	bls.n	8003000 <HAL_RCC_OscConfig+0x438>
 8002ffc:	2303      	movs	r3, #3
 8002ffe:	e1ef      	b.n	80033e0 <HAL_RCC_OscConfig+0x818>
 8003000:	4b32      	ldr	r3, [pc, #200]	; (80030cc <HAL_RCC_OscConfig+0x504>)
 8003002:	f8d3 3094 	ldr.w	r3, [r3, #148]	; 0x94
 8003006:	f003 0302 	and.w	r3, r3, #2
 800300a:	2b00      	cmp	r3, #0
 800300c:	d1ef      	bne.n	8002fee <HAL_RCC_OscConfig+0x426>
 800300e:	687b      	ldr	r3, [r7, #4]
 8003010:	681b      	ldr	r3, [r3, #0]
 8003012:	f003 0304 	and.w	r3, r3, #4
 8003016:	2b00      	cmp	r3, #0
 8003018:	f000 80a6 	beq.w	8003168 <HAL_RCC_OscConfig+0x5a0>
 800301c:	2300      	movs	r3, #0
 800301e:	77fb      	strb	r3, [r7, #31]
 8003020:	4b2a      	ldr	r3, [pc, #168]	; (80030cc <HAL_RCC_OscConfig+0x504>)
 8003022:	6d9b      	ldr	r3, [r3, #88]	; 0x58
 8003024:	f003 5380 	and.w	r3, r3, #268435456	; 0x10000000
 8003028:	2b00      	cmp	r3, #0
 800302a:	d10d      	bne.n	8003048 <HAL_RCC_OscConfig+0x480>
 800302c:	4b27      	ldr	r3, [pc, #156]	; (80030cc <HAL_RCC_OscConfig+0x504>)
 800302e:	6d9b      	ldr	r3, [r3, #88]	; 0x58
 8003030:	4a26      	ldr	r2, [pc, #152]	; (80030cc <HAL_RCC_OscConfig+0x504>)
 8003032:	f043 5380 	orr.w	r3, r3, #268435456	; 0x10000000
 8003036:	6593      	str	r3, [r2, #88]	; 0x58
 8003038:	4b24      	ldr	r3, [pc, #144]	; (80030cc <HAL_RCC_OscConfig+0x504>)
 800303a:	6d9b      	ldr	r3, [r3, #88]	; 0x58
 800303c:	f003 5380 	and.w	r3, r3, #268435456	; 0x10000000
 8003040:	60bb      	str	r3, [r7, #8]
 8003042:	68bb      	ldr	r3, [r7, #8]
 8003044:	2301      	movs	r3, #1
 8003046:	77fb      	strb	r3, [r7, #31]
 8003048:	4b21      	ldr	r3, [pc, #132]	; (80030d0 <HAL_RCC_OscConfig+0x508>)
 800304a:	681b      	ldr	r3, [r3, #0]
 800304c:	f403 7380 	and.w	r3, r3, #256	; 0x100
 8003050:	2b00      	cmp	r3, #0
 8003052:	d118      	bne.n	8003086 <HAL_RCC_OscConfig+0x4be>
 8003054:	4b1e      	ldr	r3, [pc, #120]	; (80030d0 <HAL_RCC_OscConfig+0x508>)
 8003056:	681b      	ldr	r3, [r3, #0]
 8003058:	4a1d      	ldr	r2, [pc, #116]	; (80030d0 <HAL_RCC_OscConfig+0x508>)
 800305a:	f443 7380 	orr.w	r3, r3, #256	; 0x100
 800305e:	6013      	str	r3, [r2, #0]
 8003060:	f7fe fbca 	bl	80017f8 <HAL_GetTick>
 8003064:	6138      	str	r0, [r7, #16]
 8003066:	e008      	b.n	800307a <HAL_RCC_OscConfig+0x4b2>
 8003068:	f7fe fbc6 	bl	80017f8 <HAL_GetTick>
 800306c:	4602      	mov	r2, r0
 800306e:	693b      	ldr	r3, [r7, #16]
 8003070:	1ad3      	subs	r3, r2, r3
 8003072:	2b02      	cmp	r3, #2
 8003074:	d901      	bls.n	800307a <HAL_RCC_OscConfig+0x4b2>
 8003076:	2303      	movs	r3, #3
 8003078:	e1b2      	b.n	80033e0 <HAL_RCC_OscConfig+0x818>
 800307a:	4b15      	ldr	r3, [pc, #84]	; (80030d0 <HAL_RCC_OscConfig+0x508>)
 800307c:	681b      	ldr	r3, [r3, #0]
 800307e:	f403 7380 	and.w	r3, r3, #256	; 0x100
 8003082:	2b00      	cmp	r3, #0
 8003084:	d0f0      	beq.n	8003068 <HAL_RCC_OscConfig+0x4a0>
 8003086:	687b      	ldr	r3, [r7, #4]
 8003088:	689b      	ldr	r3, [r3, #8]
 800308a:	2b01      	cmp	r3, #1
 800308c:	d108      	bne.n	80030a0 <HAL_RCC_OscConfig+0x4d8>
 800308e:	4b0f      	ldr	r3, [pc, #60]	; (80030cc <HAL_RCC_OscConfig+0x504>)
 8003090:	f8d3 3090 	ldr.w	r3, [r3, #144]	; 0x90
 8003094:	4a0d      	ldr	r2, [pc, #52]	; (80030cc <HAL_RCC_OscConfig+0x504>)
 8003096:	f043 0301 	orr.w	r3, r3, #1
 800309a:	f8c2 3090 	str.w	r3, [r2, #144]	; 0x90
 800309e:	e029      	b.n	80030f4 <HAL_RCC_OscConfig+0x52c>
 80030a0:	687b      	ldr	r3, [r7, #4]
 80030a2:	689b      	ldr	r3, [r3, #8]
 80030a4:	2b05      	cmp	r3, #5
 80030a6:	d115      	bne.n	80030d4 <HAL_RCC_OscConfig+0x50c>
 80030a8:	4b08      	ldr	r3, [pc, #32]	; (80030cc <HAL_RCC_OscConfig+0x504>)
 80030aa:	f8d3 3090 	ldr.w	r3, [r3, #144]	; 0x90
 80030ae:	4a07      	ldr	r2, [pc, #28]	; (80030cc <HAL_RCC_OscConfig+0x504>)
 80030b0:	f043 0304 	orr.w	r3, r3, #4
 80030b4:	f8c2 3090 	str.w	r3, [r2, #144]	; 0x90
 80030b8:	4b04      	ldr	r3, [pc, #16]	; (80030cc <HAL_RCC_OscConfig+0x504>)
 80030ba:	f8d3 3090 	ldr.w	r3, [r3, #144]	; 0x90
 80030be:	4a03      	ldr	r2, [pc, #12]	; (80030cc <HAL_RCC_OscConfig+0x504>)
 80030c0:	f043 0301 	orr.w	r3, r3, #1
 80030c4:	f8c2 3090 	str.w	r3, [r2, #144]	; 0x90
 80030c8:	e014      	b.n	80030f4 <HAL_RCC_OscConfig+0x52c>
 80030ca:	bf00      	nop
 80030cc:	40021000 	.word	0x40021000
 80030d0:	40007000 	.word	0x40007000
 80030d4:	4b9a      	ldr	r3, [pc, #616]	; (8003340 <HAL_RCC_OscConfig+0x778>)
 80030d6:	f8d3 3090 	ldr.w	r3, [r3, #144]	; 0x90
 80030da:	4a99      	ldr	r2, [pc, #612]	; (8003340 <HAL_RCC_OscConfig+0x778>)
 80030dc:	f023 0301 	bic.w	r3, r3, #1
 80030e0:	f8c2 3090 	str.w	r3, [r2, #144]	; 0x90
 80030e4:	4b96      	ldr	r3, [pc, #600]	; (8003340 <HAL_RCC_OscConfig+0x778>)
 80030e6:	f8d3 3090 	ldr.w	r3, [r3, #144]	; 0x90
 80030ea:	4a95      	ldr	r2, [pc, #596]	; (8003340 <HAL_RCC_OscConfig+0x778>)
 80030ec:	f023 0304 	bic.w	r3, r3, #4
 80030f0:	f8c2 3090 	str.w	r3, [r2, #144]	; 0x90
 80030f4:	687b      	ldr	r3, [r7, #4]
 80030f6:	689b      	ldr	r3, [r3, #8]
 80030f8:	2b00      	cmp	r3, #0
 80030fa:	d016      	beq.n	800312a <HAL_RCC_OscConfig+0x562>
 80030fc:	f7fe fb7c 	bl	80017f8 <HAL_GetTick>
 8003100:	6138      	str	r0, [r7, #16]
 8003102:	e00a      	b.n	800311a <HAL_RCC_OscConfig+0x552>
 8003104:	f7fe fb78 	bl	80017f8 <HAL_GetTick>
 8003108:	4602      	mov	r2, r0
 800310a:	693b      	ldr	r3, [r7, #16]
 800310c:	1ad3      	subs	r3, r2, r3
 800310e:	f241 3288 	movw	r2, #5000	; 0x1388
 8003112:	4293      	cmp	r3, r2
 8003114:	d901      	bls.n	800311a <HAL_RCC_OscConfig+0x552>
 8003116:	2303      	movs	r3, #3
 8003118:	e162      	b.n	80033e0 <HAL_RCC_OscConfig+0x818>
 800311a:	4b89      	ldr	r3, [pc, #548]	; (8003340 <HAL_RCC_OscConfig+0x778>)
 800311c:	f8d3 3090 	ldr.w	r3, [r3, #144]	; 0x90
 8003120:	f003 0302 	and.w	r3, r3, #2
 8003124:	2b00      	cmp	r3, #0
 8003126:	d0ed      	beq.n	8003104 <HAL_RCC_OscConfig+0x53c>
 8003128:	e015      	b.n	8003156 <HAL_RCC_OscConfig+0x58e>
 800312a:	f7fe fb65 	bl	80017f8 <HAL_GetTick>
 800312e:	6138      	str	r0, [r7, #16]
 8003130:	e00a      	b.n	8003148 <HAL_RCC_OscConfig+0x580>
 8003132:	f7fe fb61 	bl	80017f8 <HAL_GetTick>
 8003136:	4602      	mov	r2, r0
 8003138:	693b      	ldr	r3, [r7, #16]
 800313a:	1ad3      	subs	r3, r2, r3
 800313c:	f241 3288 	movw	r2, #5000	; 0x1388
 8003140:	4293      	cmp	r3, r2
 8003142:	d901      	bls.n	8003148 <HAL_RCC_OscConfig+0x580>
 8003144:	2303      	movs	r3, #3
 8003146:	e14b      	b.n	80033e0 <HAL_RCC_OscConfig+0x818>
 8003148:	4b7d      	ldr	r3, [pc, #500]	; (8003340 <HAL_RCC_OscConfig+0x778>)
 800314a:	f8d3 3090 	ldr.w	r3, [r3, #144]	; 0x90
 800314e:	f003 0302 	and.w	r3, r3, #2
 8003152:	2b00      	cmp	r3, #0
 8003154:	d1ed      	bne.n	8003132 <HAL_RCC_OscConfig+0x56a>
 8003156:	7ffb      	ldrb	r3, [r7, #31]
 8003158:	2b01      	cmp	r3, #1
 800315a:	d105      	bne.n	8003168 <HAL_RCC_OscConfig+0x5a0>
 800315c:	4b78      	ldr	r3, [pc, #480]	; (8003340 <HAL_RCC_OscConfig+0x778>)
 800315e:	6d9b      	ldr	r3, [r3, #88]	; 0x58
 8003160:	4a77      	ldr	r2, [pc, #476]	; (8003340 <HAL_RCC_OscConfig+0x778>)
 8003162:	f023 5380 	bic.w	r3, r3, #268435456	; 0x10000000
 8003166:	6593      	str	r3, [r2, #88]	; 0x58
 8003168:	687b      	ldr	r3, [r7, #4]
 800316a:	681b      	ldr	r3, [r3, #0]
 800316c:	f003 0320 	and.w	r3, r3, #32
 8003170:	2b00      	cmp	r3, #0
 8003172:	d03c      	beq.n	80031ee <HAL_RCC_OscConfig+0x626>
 8003174:	687b      	ldr	r3, [r7, #4]
 8003176:	6a5b      	ldr	r3, [r3, #36]	; 0x24
 8003178:	2b00      	cmp	r3, #0
 800317a:	d01c      	beq.n	80031b6 <HAL_RCC_OscConfig+0x5ee>
 800317c:	4b70      	ldr	r3, [pc, #448]	; (8003340 <HAL_RCC_OscConfig+0x778>)
 800317e:	f8d3 3098 	ldr.w	r3, [r3, #152]	; 0x98
 8003182:	4a6f      	ldr	r2, [pc, #444]	; (8003340 <HAL_RCC_OscConfig+0x778>)
 8003184:	f043 0301 	orr.w	r3, r3, #1
 8003188:	f8c2 3098 	str.w	r3, [r2, #152]	; 0x98
 800318c:	f7fe fb34 	bl	80017f8 <HAL_GetTick>
 8003190:	6138      	str	r0, [r7, #16]
 8003192:	e008      	b.n	80031a6 <HAL_RCC_OscConfig+0x5de>
 8003194:	f7fe fb30 	bl	80017f8 <HAL_GetTick>
 8003198:	4602      	mov	r2, r0
 800319a:	693b      	ldr	r3, [r7, #16]
 800319c:	1ad3      	subs	r3, r2, r3
 800319e:	2b02      	cmp	r3, #2
 80031a0:	d901      	bls.n	80031a6 <HAL_RCC_OscConfig+0x5de>
 80031a2:	2303      	movs	r3, #3
 80031a4:	e11c      	b.n	80033e0 <HAL_RCC_OscConfig+0x818>
 80031a6:	4b66      	ldr	r3, [pc, #408]	; (8003340 <HAL_RCC_OscConfig+0x778>)
 80031a8:	f8d3 3098 	ldr.w	r3, [r3, #152]	; 0x98
 80031ac:	f003 0302 	and.w	r3, r3, #2
 80031b0:	2b00      	cmp	r3, #0
 80031b2:	d0ef      	beq.n	8003194 <HAL_RCC_OscConfig+0x5cc>
 80031b4:	e01b      	b.n	80031ee <HAL_RCC_OscConfig+0x626>
 80031b6:	4b62      	ldr	r3, [pc, #392]	; (8003340 <HAL_RCC_OscConfig+0x778>)
 80031b8:	f8d3 3098 	ldr.w	r3, [r3, #152]	; 0x98
 80031bc:	4a60      	ldr	r2, [pc, #384]	; (8003340 <HAL_RCC_OscConfig+0x778>)
 80031be:	f023 0301 	bic.w	r3, r3, #1
 80031c2:	f8c2 3098 	str.w	r3, [r2, #152]	; 0x98
 80031c6:	f7fe fb17 	bl	80017f8 <HAL_GetTick>
 80031ca:	6138      	str	r0, [r7, #16]
 80031cc:	e008      	b.n	80031e0 <HAL_RCC_OscConfig+0x618>
 80031ce:	f7fe fb13 	bl	80017f8 <HAL_GetTick>
 80031d2:	4602      	mov	r2, r0
 80031d4:	693b      	ldr	r3, [r7, #16]
 80031d6:	1ad3      	subs	r3, r2, r3
 80031d8:	2b02      	cmp	r3, #2
 80031da:	d901      	bls.n	80031e0 <HAL_RCC_OscConfig+0x618>
 80031dc:	2303      	movs	r3, #3
 80031de:	e0ff      	b.n	80033e0 <HAL_RCC_OscConfig+0x818>
 80031e0:	4b57      	ldr	r3, [pc, #348]	; (8003340 <HAL_RCC_OscConfig+0x778>)
 80031e2:	f8d3 3098 	ldr.w	r3, [r3, #152]	; 0x98
 80031e6:	f003 0302 	and.w	r3, r3, #2
 80031ea:	2b00      	cmp	r3, #0
 80031ec:	d1ef      	bne.n	80031ce <HAL_RCC_OscConfig+0x606>
 80031ee:	687b      	ldr	r3, [r7, #4]
 80031f0:	6a9b      	ldr	r3, [r3, #40]	; 0x28
 80031f2:	2b00      	cmp	r3, #0
 80031f4:	f000 80f3 	beq.w	80033de <HAL_RCC_OscConfig+0x816>
 80031f8:	687b      	ldr	r3, [r7, #4]
 80031fa:	6a9b      	ldr	r3, [r3, #40]	; 0x28
 80031fc:	2b02      	cmp	r3, #2
 80031fe:	f040 80c9 	bne.w	8003394 <HAL_RCC_OscConfig+0x7cc>
 8003202:	4b4f      	ldr	r3, [pc, #316]	; (8003340 <HAL_RCC_OscConfig+0x778>)
 8003204:	68db      	ldr	r3, [r3, #12]
 8003206:	617b      	str	r3, [r7, #20]
 8003208:	697b      	ldr	r3, [r7, #20]
 800320a:	f003 0203 	and.w	r2, r3, #3
 800320e:	687b      	ldr	r3, [r7, #4]
 8003210:	6adb      	ldr	r3, [r3, #44]	; 0x2c
 8003212:	429a      	cmp	r2, r3
 8003214:	d12c      	bne.n	8003270 <HAL_RCC_OscConfig+0x6a8>
 8003216:	697b      	ldr	r3, [r7, #20]
 8003218:	f003 0270 	and.w	r2, r3, #112	; 0x70
 800321c:	687b      	ldr	r3, [r7, #4]
 800321e:	6b1b      	ldr	r3, [r3, #48]	; 0x30
 8003220:	3b01      	subs	r3, #1
 8003222:	011b      	lsls	r3, r3, #4
 8003224:	429a      	cmp	r2, r3
 8003226:	d123      	bne.n	8003270 <HAL_RCC_OscConfig+0x6a8>
 8003228:	697b      	ldr	r3, [r7, #20]
 800322a:	f403 42fe 	and.w	r2, r3, #32512	; 0x7f00
 800322e:	687b      	ldr	r3, [r7, #4]
 8003230:	6b5b      	ldr	r3, [r3, #52]	; 0x34
 8003232:	021b      	lsls	r3, r3, #8
 8003234:	429a      	cmp	r2, r3
 8003236:	d11b      	bne.n	8003270 <HAL_RCC_OscConfig+0x6a8>
 8003238:	697b      	ldr	r3, [r7, #20]
 800323a:	f003 4278 	and.w	r2, r3, #4160749568	; 0xf8000000
 800323e:	687b      	ldr	r3, [r7, #4]
 8003240:	6b9b      	ldr	r3, [r3, #56]	; 0x38
 8003242:	06db      	lsls	r3, r3, #27
 8003244:	429a      	cmp	r2, r3
 8003246:	d113      	bne.n	8003270 <HAL_RCC_OscConfig+0x6a8>
 8003248:	697b      	ldr	r3, [r7, #20]
 800324a:	f403 02c0 	and.w	r2, r3, #6291456	; 0x600000
 800324e:	687b      	ldr	r3, [r7, #4]
 8003250:	6bdb      	ldr	r3, [r3, #60]	; 0x3c
 8003252:	085b      	lsrs	r3, r3, #1
 8003254:	3b01      	subs	r3, #1
 8003256:	055b      	lsls	r3, r3, #21
 8003258:	429a      	cmp	r2, r3
 800325a:	d109      	bne.n	8003270 <HAL_RCC_OscConfig+0x6a8>
 800325c:	697b      	ldr	r3, [r7, #20]
 800325e:	f003 62c0 	and.w	r2, r3, #100663296	; 0x6000000
 8003262:	687b      	ldr	r3, [r7, #4]
 8003264:	6c1b      	ldr	r3, [r3, #64]	; 0x40
 8003266:	085b      	lsrs	r3, r3, #1
 8003268:	3b01      	subs	r3, #1
 800326a:	065b      	lsls	r3, r3, #25
 800326c:	429a      	cmp	r2, r3
 800326e:	d06b      	beq.n	8003348 <HAL_RCC_OscConfig+0x780>
 8003270:	69bb      	ldr	r3, [r7, #24]
 8003272:	2b0c      	cmp	r3, #12
 8003274:	d062      	beq.n	800333c <HAL_RCC_OscConfig+0x774>
 8003276:	4b32      	ldr	r3, [pc, #200]	; (8003340 <HAL_RCC_OscConfig+0x778>)
 8003278:	681b      	ldr	r3, [r3, #0]
 800327a:	f003 6380 	and.w	r3, r3, #67108864	; 0x4000000
 800327e:	2b00      	cmp	r3, #0
 8003280:	d001      	beq.n	8003286 <HAL_RCC_OscConfig+0x6be>
 8003282:	2301      	movs	r3, #1
 8003284:	e0ac      	b.n	80033e0 <HAL_RCC_OscConfig+0x818>
 8003286:	4b2e      	ldr	r3, [pc, #184]	; (8003340 <HAL_RCC_OscConfig+0x778>)
 8003288:	681b      	ldr	r3, [r3, #0]
 800328a:	4a2d      	ldr	r2, [pc, #180]	; (8003340 <HAL_RCC_OscConfig+0x778>)
 800328c:	f023 7380 	bic.w	r3, r3, #16777216	; 0x1000000
 8003290:	6013      	str	r3, [r2, #0]
 8003292:	f7fe fab1 	bl	80017f8 <HAL_GetTick>
 8003296:	6138      	str	r0, [r7, #16]
 8003298:	e008      	b.n	80032ac <HAL_RCC_OscConfig+0x6e4>
 800329a:	f7fe faad 	bl	80017f8 <HAL_GetTick>
 800329e:	4602      	mov	r2, r0
 80032a0:	693b      	ldr	r3, [r7, #16]
 80032a2:	1ad3      	subs	r3, r2, r3
 80032a4:	2b02      	cmp	r3, #2
 80032a6:	d901      	bls.n	80032ac <HAL_RCC_OscConfig+0x6e4>
 80032a8:	2303      	movs	r3, #3
 80032aa:	e099      	b.n	80033e0 <HAL_RCC_OscConfig+0x818>
 80032ac:	4b24      	ldr	r3, [pc, #144]	; (8003340 <HAL_RCC_OscConfig+0x778>)
 80032ae:	681b      	ldr	r3, [r3, #0]
 80032b0:	f003 7300 	and.w	r3, r3, #33554432	; 0x2000000
 80032b4:	2b00      	cmp	r3, #0
 80032b6:	d1f0      	bne.n	800329a <HAL_RCC_OscConfig+0x6d2>
 80032b8:	4b21      	ldr	r3, [pc, #132]	; (8003340 <HAL_RCC_OscConfig+0x778>)
 80032ba:	68da      	ldr	r2, [r3, #12]
 80032bc:	4b21      	ldr	r3, [pc, #132]	; (8003344 <HAL_RCC_OscConfig+0x77c>)
 80032be:	4013      	ands	r3, r2
 80032c0:	687a      	ldr	r2, [r7, #4]
 80032c2:	6ad1      	ldr	r1, [r2, #44]	; 0x2c
 80032c4:	687a      	ldr	r2, [r7, #4]
 80032c6:	6b12      	ldr	r2, [r2, #48]	; 0x30
 80032c8:	3a01      	subs	r2, #1
 80032ca:	0112      	lsls	r2, r2, #4
 80032cc:	4311      	orrs	r1, r2
 80032ce:	687a      	ldr	r2, [r7, #4]
 80032d0:	6b52      	ldr	r2, [r2, #52]	; 0x34
 80032d2:	0212      	lsls	r2, r2, #8
 80032d4:	4311      	orrs	r1, r2
 80032d6:	687a      	ldr	r2, [r7, #4]
 80032d8:	6bd2      	ldr	r2, [r2, #60]	; 0x3c
 80032da:	0852      	lsrs	r2, r2, #1
 80032dc:	3a01      	subs	r2, #1
 80032de:	0552      	lsls	r2, r2, #21
 80032e0:	4311      	orrs	r1, r2
 80032e2:	687a      	ldr	r2, [r7, #4]
 80032e4:	6c12      	ldr	r2, [r2, #64]	; 0x40
 80032e6:	0852      	lsrs	r2, r2, #1
 80032e8:	3a01      	subs	r2, #1
 80032ea:	0652      	lsls	r2, r2, #25
 80032ec:	4311      	orrs	r1, r2
 80032ee:	687a      	ldr	r2, [r7, #4]
 80032f0:	6b92      	ldr	r2, [r2, #56]	; 0x38
 80032f2:	06d2      	lsls	r2, r2, #27
 80032f4:	430a      	orrs	r2, r1
 80032f6:	4912      	ldr	r1, [pc, #72]	; (8003340 <HAL_RCC_OscConfig+0x778>)
 80032f8:	4313      	orrs	r3, r2
 80032fa:	60cb      	str	r3, [r1, #12]
 80032fc:	4b10      	ldr	r3, [pc, #64]	; (8003340 <HAL_RCC_OscConfig+0x778>)
 80032fe:	681b      	ldr	r3, [r3, #0]
 8003300:	4a0f      	ldr	r2, [pc, #60]	; (8003340 <HAL_RCC_OscConfig+0x778>)
 8003302:	f043 7380 	orr.w	r3, r3, #16777216	; 0x1000000
 8003306:	6013      	str	r3, [r2, #0]
 8003308:	4b0d      	ldr	r3, [pc, #52]	; (8003340 <HAL_RCC_OscConfig+0x778>)
 800330a:	68db      	ldr	r3, [r3, #12]
 800330c:	4a0c      	ldr	r2, [pc, #48]	; (8003340 <HAL_RCC_OscConfig+0x778>)
 800330e:	f043 7380 	orr.w	r3, r3, #16777216	; 0x1000000
 8003312:	60d3      	str	r3, [r2, #12]
 8003314:	f7fe fa70 	bl	80017f8 <HAL_GetTick>
 8003318:	6138      	str	r0, [r7, #16]
 800331a:	e008      	b.n	800332e <HAL_RCC_OscConfig+0x766>
 800331c:	f7fe fa6c 	bl	80017f8 <HAL_GetTick>
 8003320:	4602      	mov	r2, r0
 8003322:	693b      	ldr	r3, [r7, #16]
 8003324:	1ad3      	subs	r3, r2, r3
 8003326:	2b02      	cmp	r3, #2
 8003328:	d901      	bls.n	800332e <HAL_RCC_OscConfig+0x766>
 800332a:	2303      	movs	r3, #3
 800332c:	e058      	b.n	80033e0 <HAL_RCC_OscConfig+0x818>
 800332e:	4b04      	ldr	r3, [pc, #16]	; (8003340 <HAL_RCC_OscConfig+0x778>)
 8003330:	681b      	ldr	r3, [r3, #0]
 8003332:	f003 7300 	and.w	r3, r3, #33554432	; 0x2000000
 8003336:	2b00      	cmp	r3, #0
 8003338:	d0f0      	beq.n	800331c <HAL_RCC_OscConfig+0x754>
 800333a:	e050      	b.n	80033de <HAL_RCC_OscConfig+0x816>
 800333c:	2301      	movs	r3, #1
 800333e:	e04f      	b.n	80033e0 <HAL_RCC_OscConfig+0x818>
 8003340:	40021000 	.word	0x40021000
 8003344:	019d808c 	.word	0x019d808c
 8003348:	4b27      	ldr	r3, [pc, #156]	; (80033e8 <HAL_RCC_OscConfig+0x820>)
 800334a:	681b      	ldr	r3, [r3, #0]
 800334c:	f003 7300 	and.w	r3, r3, #33554432	; 0x2000000
 8003350:	2b00      	cmp	r3, #0
 8003352:	d144      	bne.n	80033de <HAL_RCC_OscConfig+0x816>
 8003354:	4b24      	ldr	r3, [pc, #144]	; (80033e8 <HAL_RCC_OscConfig+0x820>)
 8003356:	681b      	ldr	r3, [r3, #0]
 8003358:	4a23      	ldr	r2, [pc, #140]	; (80033e8 <HAL_RCC_OscConfig+0x820>)
 800335a:	f043 7380 	orr.w	r3, r3, #16777216	; 0x1000000
 800335e:	6013      	str	r3, [r2, #0]
 8003360:	4b21      	ldr	r3, [pc, #132]	; (80033e8 <HAL_RCC_OscConfig+0x820>)
 8003362:	68db      	ldr	r3, [r3, #12]
 8003364:	4a20      	ldr	r2, [pc, #128]	; (80033e8 <HAL_RCC_OscConfig+0x820>)
 8003366:	f043 7380 	orr.w	r3, r3, #16777216	; 0x1000000
 800336a:	60d3      	str	r3, [r2, #12]
 800336c:	f7fe fa44 	bl	80017f8 <HAL_GetTick>
 8003370:	6138      	str	r0, [r7, #16]
 8003372:	e008      	b.n	8003386 <HAL_RCC_OscConfig+0x7be>
 8003374:	f7fe fa40 	bl	80017f8 <HAL_GetTick>
 8003378:	4602      	mov	r2, r0
 800337a:	693b      	ldr	r3, [r7, #16]
 800337c:	1ad3      	subs	r3, r2, r3
 800337e:	2b02      	cmp	r3, #2
 8003380:	d901      	bls.n	8003386 <HAL_RCC_OscConfig+0x7be>
 8003382:	2303      	movs	r3, #3
 8003384:	e02c      	b.n	80033e0 <HAL_RCC_OscConfig+0x818>
 8003386:	4b18      	ldr	r3, [pc, #96]	; (80033e8 <HAL_RCC_OscConfig+0x820>)
 8003388:	681b      	ldr	r3, [r3, #0]
 800338a:	f003 7300 	and.w	r3, r3, #33554432	; 0x2000000
 800338e:	2b00      	cmp	r3, #0
 8003390:	d0f0      	beq.n	8003374 <HAL_RCC_OscConfig+0x7ac>
 8003392:	e024      	b.n	80033de <HAL_RCC_OscConfig+0x816>
 8003394:	69bb      	ldr	r3, [r7, #24]
 8003396:	2b0c      	cmp	r3, #12
 8003398:	d01f      	beq.n	80033da <HAL_RCC_OscConfig+0x812>
 800339a:	4b13      	ldr	r3, [pc, #76]	; (80033e8 <HAL_RCC_OscConfig+0x820>)
 800339c:	681b      	ldr	r3, [r3, #0]
 800339e:	4a12      	ldr	r2, [pc, #72]	; (80033e8 <HAL_RCC_OscConfig+0x820>)
 80033a0:	f023 7380 	bic.w	r3, r3, #16777216	; 0x1000000
 80033a4:	6013      	str	r3, [r2, #0]
 80033a6:	f7fe fa27 	bl	80017f8 <HAL_GetTick>
 80033aa:	6138      	str	r0, [r7, #16]
 80033ac:	e008      	b.n	80033c0 <HAL_RCC_OscConfig+0x7f8>
 80033ae:	f7fe fa23 	bl	80017f8 <HAL_GetTick>
 80033b2:	4602      	mov	r2, r0
 80033b4:	693b      	ldr	r3, [r7, #16]
 80033b6:	1ad3      	subs	r3, r2, r3
 80033b8:	2b02      	cmp	r3, #2
 80033ba:	d901      	bls.n	80033c0 <HAL_RCC_OscConfig+0x7f8>
 80033bc:	2303      	movs	r3, #3
 80033be:	e00f      	b.n	80033e0 <HAL_RCC_OscConfig+0x818>
 80033c0:	4b09      	ldr	r3, [pc, #36]	; (80033e8 <HAL_RCC_OscConfig+0x820>)
 80033c2:	681b      	ldr	r3, [r3, #0]
 80033c4:	f003 7300 	and.w	r3, r3, #33554432	; 0x2000000
 80033c8:	2b00      	cmp	r3, #0
 80033ca:	d1f0      	bne.n	80033ae <HAL_RCC_OscConfig+0x7e6>
 80033cc:	4b06      	ldr	r3, [pc, #24]	; (80033e8 <HAL_RCC_OscConfig+0x820>)
 80033ce:	68da      	ldr	r2, [r3, #12]
 80033d0:	4905      	ldr	r1, [pc, #20]	; (80033e8 <HAL_RCC_OscConfig+0x820>)
 80033d2:	4b06      	ldr	r3, [pc, #24]	; (80033ec <HAL_RCC_OscConfig+0x824>)
 80033d4:	4013      	ands	r3, r2
 80033d6:	60cb      	str	r3, [r1, #12]
 80033d8:	e001      	b.n	80033de <HAL_RCC_OscConfig+0x816>
 80033da:	2301      	movs	r3, #1
 80033dc:	e000      	b.n	80033e0 <HAL_RCC_OscConfig+0x818>
 80033de:	2300      	movs	r3, #0
 80033e0:	4618      	mov	r0, r3
 80033e2:	3720      	adds	r7, #32
 80033e4:	46bd      	mov	sp, r7
 80033e6:	bd80      	pop	{r7, pc}
 80033e8:	40021000 	.word	0x40021000
 80033ec:	feeefffc 	.word	0xfeeefffc

080033f0 <HAL_RCC_ClockConfig>:
 80033f0:	b580      	push	{r7, lr}
 80033f2:	b084      	sub	sp, #16
 80033f4:	af00      	add	r7, sp, #0
 80033f6:	6078      	str	r0, [r7, #4]
 80033f8:	6039      	str	r1, [r7, #0]
 80033fa:	687b      	ldr	r3, [r7, #4]
 80033fc:	2b00      	cmp	r3, #0
 80033fe:	d101      	bne.n	8003404 <HAL_RCC_ClockConfig+0x14>
 8003400:	2301      	movs	r3, #1
 8003402:	e0e7      	b.n	80035d4 <HAL_RCC_ClockConfig+0x1e4>
 8003404:	4b75      	ldr	r3, [pc, #468]	; (80035dc <HAL_RCC_ClockConfig+0x1ec>)
 8003406:	681b      	ldr	r3, [r3, #0]
 8003408:	f003 0307 	and.w	r3, r3, #7
 800340c:	683a      	ldr	r2, [r7, #0]
 800340e:	429a      	cmp	r2, r3
 8003410:	d910      	bls.n	8003434 <HAL_RCC_ClockConfig+0x44>
 8003412:	4b72      	ldr	r3, [pc, #456]	; (80035dc <HAL_RCC_ClockConfig+0x1ec>)
 8003414:	681b      	ldr	r3, [r3, #0]
 8003416:	f023 0207 	bic.w	r2, r3, #7
 800341a:	4970      	ldr	r1, [pc, #448]	; (80035dc <HAL_RCC_ClockConfig+0x1ec>)
 800341c:	683b      	ldr	r3, [r7, #0]
 800341e:	4313      	orrs	r3, r2
 8003420:	600b      	str	r3, [r1, #0]
 8003422:	4b6e      	ldr	r3, [pc, #440]	; (80035dc <HAL_RCC_ClockConfig+0x1ec>)
 8003424:	681b      	ldr	r3, [r3, #0]
 8003426:	f003 0307 	and.w	r3, r3, #7
 800342a:	683a      	ldr	r2, [r7, #0]
 800342c:	429a      	cmp	r2, r3
 800342e:	d001      	beq.n	8003434 <HAL_RCC_ClockConfig+0x44>
 8003430:	2301      	movs	r3, #1
 8003432:	e0cf      	b.n	80035d4 <HAL_RCC_ClockConfig+0x1e4>
 8003434:	687b      	ldr	r3, [r7, #4]
 8003436:	681b      	ldr	r3, [r3, #0]
 8003438:	f003 0302 	and.w	r3, r3, #2
 800343c:	2b00      	cmp	r3, #0
 800343e:	d010      	beq.n	8003462 <HAL_RCC_ClockConfig+0x72>
 8003440:	687b      	ldr	r3, [r7, #4]
 8003442:	689a      	ldr	r2, [r3, #8]
 8003444:	4b66      	ldr	r3, [pc, #408]	; (80035e0 <HAL_RCC_ClockConfig+0x1f0>)
 8003446:	689b      	ldr	r3, [r3, #8]
 8003448:	f003 03f0 	and.w	r3, r3, #240	; 0xf0
 800344c:	429a      	cmp	r2, r3
 800344e:	d908      	bls.n	8003462 <HAL_RCC_ClockConfig+0x72>
 8003450:	4b63      	ldr	r3, [pc, #396]	; (80035e0 <HAL_RCC_ClockConfig+0x1f0>)
 8003452:	689b      	ldr	r3, [r3, #8]
 8003454:	f023 02f0 	bic.w	r2, r3, #240	; 0xf0
 8003458:	687b      	ldr	r3, [r7, #4]
 800345a:	689b      	ldr	r3, [r3, #8]
 800345c:	4960      	ldr	r1, [pc, #384]	; (80035e0 <HAL_RCC_ClockConfig+0x1f0>)
 800345e:	4313      	orrs	r3, r2
 8003460:	608b      	str	r3, [r1, #8]
 8003462:	687b      	ldr	r3, [r7, #4]
 8003464:	681b      	ldr	r3, [r3, #0]
 8003466:	f003 0301 	and.w	r3, r3, #1
 800346a:	2b00      	cmp	r3, #0
 800346c:	d04c      	beq.n	8003508 <HAL_RCC_ClockConfig+0x118>
 800346e:	687b      	ldr	r3, [r7, #4]
 8003470:	685b      	ldr	r3, [r3, #4]
 8003472:	2b03      	cmp	r3, #3
 8003474:	d107      	bne.n	8003486 <HAL_RCC_ClockConfig+0x96>
 8003476:	4b5a      	ldr	r3, [pc, #360]	; (80035e0 <HAL_RCC_ClockConfig+0x1f0>)
 8003478:	681b      	ldr	r3, [r3, #0]
 800347a:	f003 7300 	and.w	r3, r3, #33554432	; 0x2000000
 800347e:	2b00      	cmp	r3, #0
 8003480:	d121      	bne.n	80034c6 <HAL_RCC_ClockConfig+0xd6>
 8003482:	2301      	movs	r3, #1
 8003484:	e0a6      	b.n	80035d4 <HAL_RCC_ClockConfig+0x1e4>
 8003486:	687b      	ldr	r3, [r7, #4]
 8003488:	685b      	ldr	r3, [r3, #4]
 800348a:	2b02      	cmp	r3, #2
 800348c:	d107      	bne.n	800349e <HAL_RCC_ClockConfig+0xae>
 800348e:	4b54      	ldr	r3, [pc, #336]	; (80035e0 <HAL_RCC_ClockConfig+0x1f0>)
 8003490:	681b      	ldr	r3, [r3, #0]
 8003492:	f403 3300 	and.w	r3, r3, #131072	; 0x20000
 8003496:	2b00      	cmp	r3, #0
 8003498:	d115      	bne.n	80034c6 <HAL_RCC_ClockConfig+0xd6>
 800349a:	2301      	movs	r3, #1
 800349c:	e09a      	b.n	80035d4 <HAL_RCC_ClockConfig+0x1e4>
 800349e:	687b      	ldr	r3, [r7, #4]
 80034a0:	685b      	ldr	r3, [r3, #4]
 80034a2:	2b00      	cmp	r3, #0
 80034a4:	d107      	bne.n	80034b6 <HAL_RCC_ClockConfig+0xc6>
 80034a6:	4b4e      	ldr	r3, [pc, #312]	; (80035e0 <HAL_RCC_ClockConfig+0x1f0>)
 80034a8:	681b      	ldr	r3, [r3, #0]
 80034aa:	f003 0302 	and.w	r3, r3, #2
 80034ae:	2b00      	cmp	r3, #0
 80034b0:	d109      	bne.n	80034c6 <HAL_RCC_ClockConfig+0xd6>
 80034b2:	2301      	movs	r3, #1
 80034b4:	e08e      	b.n	80035d4 <HAL_RCC_ClockConfig+0x1e4>
 80034b6:	4b4a      	ldr	r3, [pc, #296]	; (80035e0 <HAL_RCC_ClockConfig+0x1f0>)
 80034b8:	681b      	ldr	r3, [r3, #0]
 80034ba:	f403 6380 	and.w	r3, r3, #1024	; 0x400
 80034be:	2b00      	cmp	r3, #0
 80034c0:	d101      	bne.n	80034c6 <HAL_RCC_ClockConfig+0xd6>
 80034c2:	2301      	movs	r3, #1
 80034c4:	e086      	b.n	80035d4 <HAL_RCC_ClockConfig+0x1e4>
 80034c6:	4b46      	ldr	r3, [pc, #280]	; (80035e0 <HAL_RCC_ClockConfig+0x1f0>)
 80034c8:	689b      	ldr	r3, [r3, #8]
 80034ca:	f023 0203 	bic.w	r2, r3, #3
 80034ce:	687b      	ldr	r3, [r7, #4]
 80034d0:	685b      	ldr	r3, [r3, #4]
 80034d2:	4943      	ldr	r1, [pc, #268]	; (80035e0 <HAL_RCC_ClockConfig+0x1f0>)
 80034d4:	4313      	orrs	r3, r2
 80034d6:	608b      	str	r3, [r1, #8]
 80034d8:	f7fe f98e 	bl	80017f8 <HAL_GetTick>
 80034dc:	60f8      	str	r0, [r7, #12]
 80034de:	e00a      	b.n	80034f6 <HAL_RCC_ClockConfig+0x106>
 80034e0:	f7fe f98a 	bl	80017f8 <HAL_GetTick>
 80034e4:	4602      	mov	r2, r0
 80034e6:	68fb      	ldr	r3, [r7, #12]
 80034e8:	1ad3      	subs	r3, r2, r3
 80034ea:	f241 3288 	movw	r2, #5000	; 0x1388
 80034ee:	4293      	cmp	r3, r2
 80034f0:	d901      	bls.n	80034f6 <HAL_RCC_ClockConfig+0x106>
 80034f2:	2303      	movs	r3, #3
 80034f4:	e06e      	b.n	80035d4 <HAL_RCC_ClockConfig+0x1e4>
 80034f6:	4b3a      	ldr	r3, [pc, #232]	; (80035e0 <HAL_RCC_ClockConfig+0x1f0>)
 80034f8:	689b      	ldr	r3, [r3, #8]
 80034fa:	f003 020c 	and.w	r2, r3, #12
 80034fe:	687b      	ldr	r3, [r7, #4]
 8003500:	685b      	ldr	r3, [r3, #4]
 8003502:	009b      	lsls	r3, r3, #2
 8003504:	429a      	cmp	r2, r3
 8003506:	d1eb      	bne.n	80034e0 <HAL_RCC_ClockConfig+0xf0>
 8003508:	687b      	ldr	r3, [r7, #4]
 800350a:	681b      	ldr	r3, [r3, #0]
 800350c:	f003 0302 	and.w	r3, r3, #2
 8003510:	2b00      	cmp	r3, #0
 8003512:	d010      	beq.n	8003536 <HAL_RCC_ClockConfig+0x146>
 8003514:	687b      	ldr	r3, [r7, #4]
 8003516:	689a      	ldr	r2, [r3, #8]
 8003518:	4b31      	ldr	r3, [pc, #196]	; (80035e0 <HAL_RCC_ClockConfig+0x1f0>)
 800351a:	689b      	ldr	r3, [r3, #8]
 800351c:	f003 03f0 	and.w	r3, r3, #240	; 0xf0
 8003520:	429a      	cmp	r2, r3
 8003522:	d208      	bcs.n	8003536 <HAL_RCC_ClockConfig+0x146>
 8003524:	4b2e      	ldr	r3, [pc, #184]	; (80035e0 <HAL_RCC_ClockConfig+0x1f0>)
 8003526:	689b      	ldr	r3, [r3, #8]
 8003528:	f023 02f0 	bic.w	r2, r3, #240	; 0xf0
 800352c:	687b      	ldr	r3, [r7, #4]
 800352e:	689b      	ldr	r3, [r3, #8]
 8003530:	492b      	ldr	r1, [pc, #172]	; (80035e0 <HAL_RCC_ClockConfig+0x1f0>)
 8003532:	4313      	orrs	r3, r2
 8003534:	608b      	str	r3, [r1, #8]
 8003536:	4b29      	ldr	r3, [pc, #164]	; (80035dc <HAL_RCC_ClockConfig+0x1ec>)
 8003538:	681b      	ldr	r3, [r3, #0]
 800353a:	f003 0307 	and.w	r3, r3, #7
 800353e:	683a      	ldr	r2, [r7, #0]
 8003540:	429a      	cmp	r2, r3
 8003542:	d210      	bcs.n	8003566 <HAL_RCC_ClockConfig+0x176>
 8003544:	4b25      	ldr	r3, [pc, #148]	; (80035dc <HAL_RCC_ClockConfig+0x1ec>)
 8003546:	681b      	ldr	r3, [r3, #0]
 8003548:	f023 0207 	bic.w	r2, r3, #7
 800354c:	4923      	ldr	r1, [pc, #140]	; (80035dc <HAL_RCC_ClockConfig+0x1ec>)
 800354e:	683b      	ldr	r3, [r7, #0]
 8003550:	4313      	orrs	r3, r2
 8003552:	600b      	str	r3, [r1, #0]
 8003554:	4b21      	ldr	r3, [pc, #132]	; (80035dc <HAL_RCC_ClockConfig+0x1ec>)
 8003556:	681b      	ldr	r3, [r3, #0]
 8003558:	f003 0307 	and.w	r3, r3, #7
 800355c:	683a      	ldr	r2, [r7, #0]
 800355e:	429a      	cmp	r2, r3
 8003560:	d001      	beq.n	8003566 <HAL_RCC_ClockConfig+0x176>
 8003562:	2301      	movs	r3, #1
 8003564:	e036      	b.n	80035d4 <HAL_RCC_ClockConfig+0x1e4>
 8003566:	687b      	ldr	r3, [r7, #4]
 8003568:	681b      	ldr	r3, [r3, #0]
 800356a:	f003 0304 	and.w	r3, r3, #4
 800356e:	2b00      	cmp	r3, #0
 8003570:	d008      	beq.n	8003584 <HAL_RCC_ClockConfig+0x194>
 8003572:	4b1b      	ldr	r3, [pc, #108]	; (80035e0 <HAL_RCC_ClockConfig+0x1f0>)
 8003574:	689b      	ldr	r3, [r3, #8]
 8003576:	f423 62e0 	bic.w	r2, r3, #1792	; 0x700
 800357a:	687b      	ldr	r3, [r7, #4]
 800357c:	68db      	ldr	r3, [r3, #12]
 800357e:	4918      	ldr	r1, [pc, #96]	; (80035e0 <HAL_RCC_ClockConfig+0x1f0>)
 8003580:	4313      	orrs	r3, r2
 8003582:	608b      	str	r3, [r1, #8]
 8003584:	687b      	ldr	r3, [r7, #4]
 8003586:	681b      	ldr	r3, [r3, #0]
 8003588:	f003 0308 	and.w	r3, r3, #8
 800358c:	2b00      	cmp	r3, #0
 800358e:	d009      	beq.n	80035a4 <HAL_RCC_ClockConfig+0x1b4>
 8003590:	4b13      	ldr	r3, [pc, #76]	; (80035e0 <HAL_RCC_ClockConfig+0x1f0>)
 8003592:	689b      	ldr	r3, [r3, #8]
 8003594:	f423 5260 	bic.w	r2, r3, #14336	; 0x3800
 8003598:	687b      	ldr	r3, [r7, #4]
 800359a:	691b      	ldr	r3, [r3, #16]
 800359c:	00db      	lsls	r3, r3, #3
 800359e:	4910      	ldr	r1, [pc, #64]	; (80035e0 <HAL_RCC_ClockConfig+0x1f0>)
 80035a0:	4313      	orrs	r3, r2
 80035a2:	608b      	str	r3, [r1, #8]
 80035a4:	f000 f824 	bl	80035f0 <HAL_RCC_GetSysClockFreq>
 80035a8:	4602      	mov	r2, r0
 80035aa:	4b0d      	ldr	r3, [pc, #52]	; (80035e0 <HAL_RCC_ClockConfig+0x1f0>)
 80035ac:	689b      	ldr	r3, [r3, #8]
 80035ae:	091b      	lsrs	r3, r3, #4
 80035b0:	f003 030f 	and.w	r3, r3, #15
 80035b4:	490b      	ldr	r1, [pc, #44]	; (80035e4 <HAL_RCC_ClockConfig+0x1f4>)
 80035b6:	5ccb      	ldrb	r3, [r1, r3]
 80035b8:	f003 031f 	and.w	r3, r3, #31
 80035bc:	fa22 f303 	lsr.w	r3, r2, r3
 80035c0:	4a09      	ldr	r2, [pc, #36]	; (80035e8 <HAL_RCC_ClockConfig+0x1f8>)
 80035c2:	6013      	str	r3, [r2, #0]
 80035c4:	4b09      	ldr	r3, [pc, #36]	; (80035ec <HAL_RCC_ClockConfig+0x1fc>)
 80035c6:	681b      	ldr	r3, [r3, #0]
 80035c8:	4618      	mov	r0, r3
 80035ca:	f7fe f8c5 	bl	8001758 <HAL_InitTick>
 80035ce:	4603      	mov	r3, r0
 80035d0:	72fb      	strb	r3, [r7, #11]
 80035d2:	7afb      	ldrb	r3, [r7, #11]
 80035d4:	4618      	mov	r0, r3
 80035d6:	3710      	adds	r7, #16
 80035d8:	46bd      	mov	sp, r7
 80035da:	bd80      	pop	{r7, pc}
 80035dc:	40022000 	.word	0x40022000
 80035e0:	40021000 	.word	0x40021000
 80035e4:	08006938 	.word	0x08006938
 80035e8:	20000004 	.word	0x20000004
 80035ec:	20000008 	.word	0x20000008

080035f0 <HAL_RCC_GetSysClockFreq>:
 80035f0:	b480      	push	{r7}
 80035f2:	b089      	sub	sp, #36	; 0x24
 80035f4:	af00      	add	r7, sp, #0
 80035f6:	2300      	movs	r3, #0
 80035f8:	61fb      	str	r3, [r7, #28]
 80035fa:	2300      	movs	r3, #0
 80035fc:	61bb      	str	r3, [r7, #24]
 80035fe:	4b3e      	ldr	r3, [pc, #248]	; (80036f8 <HAL_RCC_GetSysClockFreq+0x108>)
 8003600:	689b      	ldr	r3, [r3, #8]
 8003602:	f003 030c 	and.w	r3, r3, #12
 8003606:	613b      	str	r3, [r7, #16]
 8003608:	4b3b      	ldr	r3, [pc, #236]	; (80036f8 <HAL_RCC_GetSysClockFreq+0x108>)
 800360a:	68db      	ldr	r3, [r3, #12]
 800360c:	f003 0303 	and.w	r3, r3, #3
 8003610:	60fb      	str	r3, [r7, #12]
 8003612:	693b      	ldr	r3, [r7, #16]
 8003614:	2b00      	cmp	r3, #0
 8003616:	d005      	beq.n	8003624 <HAL_RCC_GetSysClockFreq+0x34>
 8003618:	693b      	ldr	r3, [r7, #16]
 800361a:	2b0c      	cmp	r3, #12
 800361c:	d121      	bne.n	8003662 <HAL_RCC_GetSysClockFreq+0x72>
 800361e:	68fb      	ldr	r3, [r7, #12]
 8003620:	2b01      	cmp	r3, #1
 8003622:	d11e      	bne.n	8003662 <HAL_RCC_GetSysClockFreq+0x72>
 8003624:	4b34      	ldr	r3, [pc, #208]	; (80036f8 <HAL_RCC_GetSysClockFreq+0x108>)
 8003626:	681b      	ldr	r3, [r3, #0]
 8003628:	f003 0308 	and.w	r3, r3, #8
 800362c:	2b00      	cmp	r3, #0
 800362e:	d107      	bne.n	8003640 <HAL_RCC_GetSysClockFreq+0x50>
 8003630:	4b31      	ldr	r3, [pc, #196]	; (80036f8 <HAL_RCC_GetSysClockFreq+0x108>)
 8003632:	f8d3 3094 	ldr.w	r3, [r3, #148]	; 0x94
 8003636:	0a1b      	lsrs	r3, r3, #8
 8003638:	f003 030f 	and.w	r3, r3, #15
 800363c:	61fb      	str	r3, [r7, #28]
 800363e:	e005      	b.n	800364c <HAL_RCC_GetSysClockFreq+0x5c>
 8003640:	4b2d      	ldr	r3, [pc, #180]	; (80036f8 <HAL_RCC_GetSysClockFreq+0x108>)
 8003642:	681b      	ldr	r3, [r3, #0]
 8003644:	091b      	lsrs	r3, r3, #4
 8003646:	f003 030f 	and.w	r3, r3, #15
 800364a:	61fb      	str	r3, [r7, #28]
 800364c:	4a2b      	ldr	r2, [pc, #172]	; (80036fc <HAL_RCC_GetSysClockFreq+0x10c>)
 800364e:	69fb      	ldr	r3, [r7, #28]
 8003650:	f852 3023 	ldr.w	r3, [r2, r3, lsl #2]
 8003654:	61fb      	str	r3, [r7, #28]
 8003656:	693b      	ldr	r3, [r7, #16]
 8003658:	2b00      	cmp	r3, #0
 800365a:	d10d      	bne.n	8003678 <HAL_RCC_GetSysClockFreq+0x88>
 800365c:	69fb      	ldr	r3, [r7, #28]
 800365e:	61bb      	str	r3, [r7, #24]
 8003660:	e00a      	b.n	8003678 <HAL_RCC_GetSysClockFreq+0x88>
 8003662:	693b      	ldr	r3, [r7, #16]
 8003664:	2b04      	cmp	r3, #4
 8003666:	d102      	bne.n	800366e <HAL_RCC_GetSysClockFreq+0x7e>
 8003668:	4b25      	ldr	r3, [pc, #148]	; (8003700 <HAL_RCC_GetSysClockFreq+0x110>)
 800366a:	61bb      	str	r3, [r7, #24]
 800366c:	e004      	b.n	8003678 <HAL_RCC_GetSysClockFreq+0x88>
 800366e:	693b      	ldr	r3, [r7, #16]
 8003670:	2b08      	cmp	r3, #8
 8003672:	d101      	bne.n	8003678 <HAL_RCC_GetSysClockFreq+0x88>
 8003674:	4b23      	ldr	r3, [pc, #140]	; (8003704 <HAL_RCC_GetSysClockFreq+0x114>)
 8003676:	61bb      	str	r3, [r7, #24]
 8003678:	693b      	ldr	r3, [r7, #16]
 800367a:	2b0c      	cmp	r3, #12
 800367c:	d134      	bne.n	80036e8 <HAL_RCC_GetSysClockFreq+0xf8>
 800367e:	4b1e      	ldr	r3, [pc, #120]	; (80036f8 <HAL_RCC_GetSysClockFreq+0x108>)
 8003680:	68db      	ldr	r3, [r3, #12]
 8003682:	f003 0303 	and.w	r3, r3, #3
 8003686:	60bb      	str	r3, [r7, #8]
 8003688:	68bb      	ldr	r3, [r7, #8]
 800368a:	2b02      	cmp	r3, #2
 800368c:	d003      	beq.n	8003696 <HAL_RCC_GetSysClockFreq+0xa6>
 800368e:	68bb      	ldr	r3, [r7, #8]
 8003690:	2b03      	cmp	r3, #3
 8003692:	d003      	beq.n	800369c <HAL_RCC_GetSysClockFreq+0xac>
 8003694:	e005      	b.n	80036a2 <HAL_RCC_GetSysClockFreq+0xb2>
 8003696:	4b1a      	ldr	r3, [pc, #104]	; (8003700 <HAL_RCC_GetSysClockFreq+0x110>)
 8003698:	617b      	str	r3, [r7, #20]
 800369a:	e005      	b.n	80036a8 <HAL_RCC_GetSysClockFreq+0xb8>
 800369c:	4b19      	ldr	r3, [pc, #100]	; (8003704 <HAL_RCC_GetSysClockFreq+0x114>)
 800369e:	617b      	str	r3, [r7, #20]
 80036a0:	e002      	b.n	80036a8 <HAL_RCC_GetSysClockFreq+0xb8>
 80036a2:	69fb      	ldr	r3, [r7, #28]
 80036a4:	617b      	str	r3, [r7, #20]
 80036a6:	bf00      	nop
 80036a8:	4b13      	ldr	r3, [pc, #76]	; (80036f8 <HAL_RCC_GetSysClockFreq+0x108>)
 80036aa:	68db      	ldr	r3, [r3, #12]
 80036ac:	091b      	lsrs	r3, r3, #4
 80036ae:	f003 0307 	and.w	r3, r3, #7
 80036b2:	3301      	adds	r3, #1
 80036b4:	607b      	str	r3, [r7, #4]
 80036b6:	4b10      	ldr	r3, [pc, #64]	; (80036f8 <HAL_RCC_GetSysClockFreq+0x108>)
 80036b8:	68db      	ldr	r3, [r3, #12]
 80036ba:	0a1b      	lsrs	r3, r3, #8
 80036bc:	f003 037f 	and.w	r3, r3, #127	; 0x7f
 80036c0:	697a      	ldr	r2, [r7, #20]
 80036c2:	fb03 f202 	mul.w	r2, r3, r2
 80036c6:	687b      	ldr	r3, [r7, #4]
 80036c8:	fbb2 f3f3 	udiv	r3, r2, r3
 80036cc:	617b      	str	r3, [r7, #20]
 80036ce:	4b0a      	ldr	r3, [pc, #40]	; (80036f8 <HAL_RCC_GetSysClockFreq+0x108>)
 80036d0:	68db      	ldr	r3, [r3, #12]
 80036d2:	0e5b      	lsrs	r3, r3, #25
 80036d4:	f003 0303 	and.w	r3, r3, #3
 80036d8:	3301      	adds	r3, #1
 80036da:	005b      	lsls	r3, r3, #1
 80036dc:	603b      	str	r3, [r7, #0]
 80036de:	697a      	ldr	r2, [r7, #20]
 80036e0:	683b      	ldr	r3, [r7, #0]
 80036e2:	fbb2 f3f3 	udiv	r3, r2, r3
 80036e6:	61bb      	str	r3, [r7, #24]
 80036e8:	69bb      	ldr	r3, [r7, #24]
 80036ea:	4618      	mov	r0, r3
 80036ec:	3724      	adds	r7, #36	; 0x24
 80036ee:	46bd      	mov	sp, r7
 80036f0:	f85d 7b04 	ldr.w	r7, [sp], #4
 80036f4:	4770      	bx	lr
 80036f6:	bf00      	nop
 80036f8:	40021000 	.word	0x40021000
 80036fc:	08006950 	.word	0x08006950
 8003700:	00f42400 	.word	0x00f42400
 8003704:	007a1200 	.word	0x007a1200

08003708 <HAL_RCC_GetHCLKFreq>:
 8003708:	b480      	push	{r7}
 800370a:	af00      	add	r7, sp, #0
 800370c:	4b03      	ldr	r3, [pc, #12]	; (800371c <HAL_RCC_GetHCLKFreq+0x14>)
 800370e:	681b      	ldr	r3, [r3, #0]
 8003710:	4618      	mov	r0, r3
 8003712:	46bd      	mov	sp, r7
 8003714:	f85d 7b04 	ldr.w	r7, [sp], #4
 8003718:	4770      	bx	lr
 800371a:	bf00      	nop
 800371c:	20000004 	.word	0x20000004

08003720 <HAL_RCC_GetPCLK1Freq>:
 8003720:	b580      	push	{r7, lr}
 8003722:	af00      	add	r7, sp, #0
 8003724:	f7ff fff0 	bl	8003708 <HAL_RCC_GetHCLKFreq>
 8003728:	4602      	mov	r2, r0
 800372a:	4b06      	ldr	r3, [pc, #24]	; (8003744 <HAL_RCC_GetPCLK1Freq+0x24>)
 800372c:	689b      	ldr	r3, [r3, #8]
 800372e:	0a1b      	lsrs	r3, r3, #8
 8003730:	f003 0307 	and.w	r3, r3, #7
 8003734:	4904      	ldr	r1, [pc, #16]	; (8003748 <HAL_RCC_GetPCLK1Freq+0x28>)
 8003736:	5ccb      	ldrb	r3, [r1, r3]
 8003738:	f003 031f 	and.w	r3, r3, #31
 800373c:	fa22 f303 	lsr.w	r3, r2, r3
 8003740:	4618      	mov	r0, r3
 8003742:	bd80      	pop	{r7, pc}
 8003744:	40021000 	.word	0x40021000
 8003748:	08006948 	.word	0x08006948

0800374c <HAL_RCC_GetPCLK2Freq>:
 800374c:	b580      	push	{r7, lr}
 800374e:	af00      	add	r7, sp, #0
 8003750:	f7ff ffda 	bl	8003708 <HAL_RCC_GetHCLKFreq>
 8003754:	4602      	mov	r2, r0
 8003756:	4b06      	ldr	r3, [pc, #24]	; (8003770 <HAL_RCC_GetPCLK2Freq+0x24>)
 8003758:	689b      	ldr	r3, [r3, #8]
 800375a:	0adb      	lsrs	r3, r3, #11
 800375c:	f003 0307 	and.w	r3, r3, #7
 8003760:	4904      	ldr	r1, [pc, #16]	; (8003774 <HAL_RCC_GetPCLK2Freq+0x28>)
 8003762:	5ccb      	ldrb	r3, [r1, r3]
 8003764:	f003 031f 	and.w	r3, r3, #31
 8003768:	fa22 f303 	lsr.w	r3, r2, r3
 800376c:	4618      	mov	r0, r3
 800376e:	bd80      	pop	{r7, pc}
 8003770:	40021000 	.word	0x40021000
 8003774:	08006948 	.word	0x08006948

08003778 <RCC_SetFlashLatencyFromMSIRange>:
 8003778:	b580      	push	{r7, lr}
 800377a:	b086      	sub	sp, #24
 800377c:	af00      	add	r7, sp, #0
 800377e:	6078      	str	r0, [r7, #4]
 8003780:	2300      	movs	r3, #0
 8003782:	613b      	str	r3, [r7, #16]
 8003784:	4b2a      	ldr	r3, [pc, #168]	; (8003830 <RCC_SetFlashLatencyFromMSIRange+0xb8>)
 8003786:	6d9b      	ldr	r3, [r3, #88]	; 0x58
 8003788:	f003 5380 	and.w	r3, r3, #268435456	; 0x10000000
 800378c:	2b00      	cmp	r3, #0
 800378e:	d003      	beq.n	8003798 <RCC_SetFlashLatencyFromMSIRange+0x20>
 8003790:	f7ff f9b6 	bl	8002b00 <HAL_PWREx_GetVoltageRange>
 8003794:	6178      	str	r0, [r7, #20]
 8003796:	e014      	b.n	80037c2 <RCC_SetFlashLatencyFromMSIRange+0x4a>
 8003798:	4b25      	ldr	r3, [pc, #148]	; (8003830 <RCC_SetFlashLatencyFromMSIRange+0xb8>)
 800379a:	6d9b      	ldr	r3, [r3, #88]	; 0x58
 800379c:	4a24      	ldr	r2, [pc, #144]	; (8003830 <RCC_SetFlashLatencyFromMSIRange+0xb8>)
 800379e:	f043 5380 	orr.w	r3, r3, #268435456	; 0x10000000
 80037a2:	6593      	str	r3, [r2, #88]	; 0x58
 80037a4:	4b22      	ldr	r3, [pc, #136]	; (8003830 <RCC_SetFlashLatencyFromMSIRange+0xb8>)
 80037a6:	6d9b      	ldr	r3, [r3, #88]	; 0x58
 80037a8:	f003 5380 	and.w	r3, r3, #268435456	; 0x10000000
 80037ac:	60fb      	str	r3, [r7, #12]
 80037ae:	68fb      	ldr	r3, [r7, #12]
 80037b0:	f7ff f9a6 	bl	8002b00 <HAL_PWREx_GetVoltageRange>
 80037b4:	6178      	str	r0, [r7, #20]
 80037b6:	4b1e      	ldr	r3, [pc, #120]	; (8003830 <RCC_SetFlashLatencyFromMSIRange+0xb8>)
 80037b8:	6d9b      	ldr	r3, [r3, #88]	; 0x58
 80037ba:	4a1d      	ldr	r2, [pc, #116]	; (8003830 <RCC_SetFlashLatencyFromMSIRange+0xb8>)
 80037bc:	f023 5380 	bic.w	r3, r3, #268435456	; 0x10000000
 80037c0:	6593      	str	r3, [r2, #88]	; 0x58
 80037c2:	697b      	ldr	r3, [r7, #20]
 80037c4:	f5b3 7f00 	cmp.w	r3, #512	; 0x200
 80037c8:	d10b      	bne.n	80037e2 <RCC_SetFlashLatencyFromMSIRange+0x6a>
 80037ca:	687b      	ldr	r3, [r7, #4]
 80037cc:	2b80      	cmp	r3, #128	; 0x80
 80037ce:	d919      	bls.n	8003804 <RCC_SetFlashLatencyFromMSIRange+0x8c>
 80037d0:	687b      	ldr	r3, [r7, #4]
 80037d2:	2ba0      	cmp	r3, #160	; 0xa0
 80037d4:	d902      	bls.n	80037dc <RCC_SetFlashLatencyFromMSIRange+0x64>
 80037d6:	2302      	movs	r3, #2
 80037d8:	613b      	str	r3, [r7, #16]
 80037da:	e013      	b.n	8003804 <RCC_SetFlashLatencyFromMSIRange+0x8c>
 80037dc:	2301      	movs	r3, #1
 80037de:	613b      	str	r3, [r7, #16]
 80037e0:	e010      	b.n	8003804 <RCC_SetFlashLatencyFromMSIRange+0x8c>
 80037e2:	687b      	ldr	r3, [r7, #4]
 80037e4:	2b80      	cmp	r3, #128	; 0x80
 80037e6:	d902      	bls.n	80037ee <RCC_SetFlashLatencyFromMSIRange+0x76>
 80037e8:	2303      	movs	r3, #3
 80037ea:	613b      	str	r3, [r7, #16]
 80037ec:	e00a      	b.n	8003804 <RCC_SetFlashLatencyFromMSIRange+0x8c>
 80037ee:	687b      	ldr	r3, [r7, #4]
 80037f0:	2b80      	cmp	r3, #128	; 0x80
 80037f2:	d102      	bne.n	80037fa <RCC_SetFlashLatencyFromMSIRange+0x82>
 80037f4:	2302      	movs	r3, #2
 80037f6:	613b      	str	r3, [r7, #16]
 80037f8:	e004      	b.n	8003804 <RCC_SetFlashLatencyFromMSIRange+0x8c>
 80037fa:	687b      	ldr	r3, [r7, #4]
 80037fc:	2b70      	cmp	r3, #112	; 0x70
 80037fe:	d101      	bne.n	8003804 <RCC_SetFlashLatencyFromMSIRange+0x8c>
 8003800:	2301      	movs	r3, #1
 8003802:	613b      	str	r3, [r7, #16]
 8003804:	4b0b      	ldr	r3, [pc, #44]	; (8003834 <RCC_SetFlashLatencyFromMSIRange+0xbc>)
 8003806:	681b      	ldr	r3, [r3, #0]
 8003808:	f023 0207 	bic.w	r2, r3, #7
 800380c:	4909      	ldr	r1, [pc, #36]	; (8003834 <RCC_SetFlashLatencyFromMSIRange+0xbc>)
 800380e:	693b      	ldr	r3, [r7, #16]
 8003810:	4313      	orrs	r3, r2
 8003812:	600b      	str	r3, [r1, #0]
 8003814:	4b07      	ldr	r3, [pc, #28]	; (8003834 <RCC_SetFlashLatencyFromMSIRange+0xbc>)
 8003816:	681b      	ldr	r3, [r3, #0]
 8003818:	f003 0307 	and.w	r3, r3, #7
 800381c:	693a      	ldr	r2, [r7, #16]
 800381e:	429a      	cmp	r2, r3
 8003820:	d001      	beq.n	8003826 <RCC_SetFlashLatencyFromMSIRange+0xae>
 8003822:	2301      	movs	r3, #1
 8003824:	e000      	b.n	8003828 <RCC_SetFlashLatencyFromMSIRange+0xb0>
 8003826:	2300      	movs	r3, #0
 8003828:	4618      	mov	r0, r3
 800382a:	3718      	adds	r7, #24
 800382c:	46bd      	mov	sp, r7
 800382e:	bd80      	pop	{r7, pc}
 8003830:	40021000 	.word	0x40021000
 8003834:	40022000 	.word	0x40022000

08003838 <HAL_RCCEx_PeriphCLKConfig>:
 8003838:	b580      	push	{r7, lr}
 800383a:	b086      	sub	sp, #24
 800383c:	af00      	add	r7, sp, #0
 800383e:	6078      	str	r0, [r7, #4]
 8003840:	2300      	movs	r3, #0
 8003842:	74fb      	strb	r3, [r7, #19]
 8003844:	2300      	movs	r3, #0
 8003846:	74bb      	strb	r3, [r7, #18]
 8003848:	687b      	ldr	r3, [r7, #4]
 800384a:	681b      	ldr	r3, [r3, #0]
 800384c:	f403 6300 	and.w	r3, r3, #2048	; 0x800
 8003850:	2b00      	cmp	r3, #0
 8003852:	d031      	beq.n	80038b8 <HAL_RCCEx_PeriphCLKConfig+0x80>
 8003854:	687b      	ldr	r3, [r7, #4]
 8003856:	6cdb      	ldr	r3, [r3, #76]	; 0x4c
 8003858:	f5b3 0f40 	cmp.w	r3, #12582912	; 0xc00000
 800385c:	d01a      	beq.n	8003894 <HAL_RCCEx_PeriphCLKConfig+0x5c>
 800385e:	f5b3 0f40 	cmp.w	r3, #12582912	; 0xc00000
 8003862:	d814      	bhi.n	800388e <HAL_RCCEx_PeriphCLKConfig+0x56>
 8003864:	2b00      	cmp	r3, #0
 8003866:	d009      	beq.n	800387c <HAL_RCCEx_PeriphCLKConfig+0x44>
 8003868:	f5b3 0f00 	cmp.w	r3, #8388608	; 0x800000
 800386c:	d10f      	bne.n	800388e <HAL_RCCEx_PeriphCLKConfig+0x56>
 800386e:	4b5d      	ldr	r3, [pc, #372]	; (80039e4 <HAL_RCCEx_PeriphCLKConfig+0x1ac>)
 8003870:	68db      	ldr	r3, [r3, #12]
 8003872:	4a5c      	ldr	r2, [pc, #368]	; (80039e4 <HAL_RCCEx_PeriphCLKConfig+0x1ac>)
 8003874:	f443 3380 	orr.w	r3, r3, #65536	; 0x10000
 8003878:	60d3      	str	r3, [r2, #12]
 800387a:	e00c      	b.n	8003896 <HAL_RCCEx_PeriphCLKConfig+0x5e>
 800387c:	687b      	ldr	r3, [r7, #4]
 800387e:	3304      	adds	r3, #4
 8003880:	2100      	movs	r1, #0
 8003882:	4618      	mov	r0, r3
 8003884:	f000 fa44 	bl	8003d10 <RCCEx_PLLSAI1_Config>
 8003888:	4603      	mov	r3, r0
 800388a:	74fb      	strb	r3, [r7, #19]
 800388c:	e003      	b.n	8003896 <HAL_RCCEx_PeriphCLKConfig+0x5e>
 800388e:	2301      	movs	r3, #1
 8003890:	74fb      	strb	r3, [r7, #19]
 8003892:	e000      	b.n	8003896 <HAL_RCCEx_PeriphCLKConfig+0x5e>
 8003894:	bf00      	nop
 8003896:	7cfb      	ldrb	r3, [r7, #19]
 8003898:	2b00      	cmp	r3, #0
 800389a:	d10b      	bne.n	80038b4 <HAL_RCCEx_PeriphCLKConfig+0x7c>
 800389c:	4b51      	ldr	r3, [pc, #324]	; (80039e4 <HAL_RCCEx_PeriphCLKConfig+0x1ac>)
 800389e:	f8d3 3088 	ldr.w	r3, [r3, #136]	; 0x88
 80038a2:	f423 0240 	bic.w	r2, r3, #12582912	; 0xc00000
 80038a6:	687b      	ldr	r3, [r7, #4]
 80038a8:	6cdb      	ldr	r3, [r3, #76]	; 0x4c
 80038aa:	494e      	ldr	r1, [pc, #312]	; (80039e4 <HAL_RCCEx_PeriphCLKConfig+0x1ac>)
 80038ac:	4313      	orrs	r3, r2
 80038ae:	f8c1 3088 	str.w	r3, [r1, #136]	; 0x88
 80038b2:	e001      	b.n	80038b8 <HAL_RCCEx_PeriphCLKConfig+0x80>
 80038b4:	7cfb      	ldrb	r3, [r7, #19]
 80038b6:	74bb      	strb	r3, [r7, #18]
 80038b8:	687b      	ldr	r3, [r7, #4]
 80038ba:	681b      	ldr	r3, [r3, #0]
 80038bc:	f403 3300 	and.w	r3, r3, #131072	; 0x20000
 80038c0:	2b00      	cmp	r3, #0
 80038c2:	f000 809e 	beq.w	8003a02 <HAL_RCCEx_PeriphCLKConfig+0x1ca>
 80038c6:	2300      	movs	r3, #0
 80038c8:	747b      	strb	r3, [r7, #17]
 80038ca:	4b46      	ldr	r3, [pc, #280]	; (80039e4 <HAL_RCCEx_PeriphCLKConfig+0x1ac>)
 80038cc:	6d9b      	ldr	r3, [r3, #88]	; 0x58
 80038ce:	f003 5380 	and.w	r3, r3, #268435456	; 0x10000000
 80038d2:	2b00      	cmp	r3, #0
 80038d4:	d101      	bne.n	80038da <HAL_RCCEx_PeriphCLKConfig+0xa2>
 80038d6:	2301      	movs	r3, #1
 80038d8:	e000      	b.n	80038dc <HAL_RCCEx_PeriphCLKConfig+0xa4>
 80038da:	2300      	movs	r3, #0
 80038dc:	2b00      	cmp	r3, #0
 80038de:	d00d      	beq.n	80038fc <HAL_RCCEx_PeriphCLKConfig+0xc4>
 80038e0:	4b40      	ldr	r3, [pc, #256]	; (80039e4 <HAL_RCCEx_PeriphCLKConfig+0x1ac>)
 80038e2:	6d9b      	ldr	r3, [r3, #88]	; 0x58
 80038e4:	4a3f      	ldr	r2, [pc, #252]	; (80039e4 <HAL_RCCEx_PeriphCLKConfig+0x1ac>)
 80038e6:	f043 5380 	orr.w	r3, r3, #268435456	; 0x10000000
 80038ea:	6593      	str	r3, [r2, #88]	; 0x58
 80038ec:	4b3d      	ldr	r3, [pc, #244]	; (80039e4 <HAL_RCCEx_PeriphCLKConfig+0x1ac>)
 80038ee:	6d9b      	ldr	r3, [r3, #88]	; 0x58
 80038f0:	f003 5380 	and.w	r3, r3, #268435456	; 0x10000000
 80038f4:	60bb      	str	r3, [r7, #8]
 80038f6:	68bb      	ldr	r3, [r7, #8]
 80038f8:	2301      	movs	r3, #1
 80038fa:	747b      	strb	r3, [r7, #17]
 80038fc:	4b3a      	ldr	r3, [pc, #232]	; (80039e8 <HAL_RCCEx_PeriphCLKConfig+0x1b0>)
 80038fe:	681b      	ldr	r3, [r3, #0]
 8003900:	4a39      	ldr	r2, [pc, #228]	; (80039e8 <HAL_RCCEx_PeriphCLKConfig+0x1b0>)
 8003902:	f443 7380 	orr.w	r3, r3, #256	; 0x100
 8003906:	6013      	str	r3, [r2, #0]
 8003908:	f7fd ff76 	bl	80017f8 <HAL_GetTick>
 800390c:	60f8      	str	r0, [r7, #12]
 800390e:	e009      	b.n	8003924 <HAL_RCCEx_PeriphCLKConfig+0xec>
 8003910:	f7fd ff72 	bl	80017f8 <HAL_GetTick>
 8003914:	4602      	mov	r2, r0
 8003916:	68fb      	ldr	r3, [r7, #12]
 8003918:	1ad3      	subs	r3, r2, r3
 800391a:	2b02      	cmp	r3, #2
 800391c:	d902      	bls.n	8003924 <HAL_RCCEx_PeriphCLKConfig+0xec>
 800391e:	2303      	movs	r3, #3
 8003920:	74fb      	strb	r3, [r7, #19]
 8003922:	e005      	b.n	8003930 <HAL_RCCEx_PeriphCLKConfig+0xf8>
 8003924:	4b30      	ldr	r3, [pc, #192]	; (80039e8 <HAL_RCCEx_PeriphCLKConfig+0x1b0>)
 8003926:	681b      	ldr	r3, [r3, #0]
 8003928:	f403 7380 	and.w	r3, r3, #256	; 0x100
 800392c:	2b00      	cmp	r3, #0
 800392e:	d0ef      	beq.n	8003910 <HAL_RCCEx_PeriphCLKConfig+0xd8>
 8003930:	7cfb      	ldrb	r3, [r7, #19]
 8003932:	2b00      	cmp	r3, #0
 8003934:	d15a      	bne.n	80039ec <HAL_RCCEx_PeriphCLKConfig+0x1b4>
 8003936:	4b2b      	ldr	r3, [pc, #172]	; (80039e4 <HAL_RCCEx_PeriphCLKConfig+0x1ac>)
 8003938:	f8d3 3090 	ldr.w	r3, [r3, #144]	; 0x90
 800393c:	f403 7340 	and.w	r3, r3, #768	; 0x300
 8003940:	617b      	str	r3, [r7, #20]
 8003942:	697b      	ldr	r3, [r7, #20]
 8003944:	2b00      	cmp	r3, #0
 8003946:	d01e      	beq.n	8003986 <HAL_RCCEx_PeriphCLKConfig+0x14e>
 8003948:	687b      	ldr	r3, [r7, #4]
 800394a:	6e5b      	ldr	r3, [r3, #100]	; 0x64
 800394c:	697a      	ldr	r2, [r7, #20]
 800394e:	429a      	cmp	r2, r3
 8003950:	d019      	beq.n	8003986 <HAL_RCCEx_PeriphCLKConfig+0x14e>
 8003952:	4b24      	ldr	r3, [pc, #144]	; (80039e4 <HAL_RCCEx_PeriphCLKConfig+0x1ac>)
 8003954:	f8d3 3090 	ldr.w	r3, [r3, #144]	; 0x90
 8003958:	f423 7340 	bic.w	r3, r3, #768	; 0x300
 800395c:	617b      	str	r3, [r7, #20]
 800395e:	4b21      	ldr	r3, [pc, #132]	; (80039e4 <HAL_RCCEx_PeriphCLKConfig+0x1ac>)
 8003960:	f8d3 3090 	ldr.w	r3, [r3, #144]	; 0x90
 8003964:	4a1f      	ldr	r2, [pc, #124]	; (80039e4 <HAL_RCCEx_PeriphCLKConfig+0x1ac>)
 8003966:	f443 3380 	orr.w	r3, r3, #65536	; 0x10000
 800396a:	f8c2 3090 	str.w	r3, [r2, #144]	; 0x90
 800396e:	4b1d      	ldr	r3, [pc, #116]	; (80039e4 <HAL_RCCEx_PeriphCLKConfig+0x1ac>)
 8003970:	f8d3 3090 	ldr.w	r3, [r3, #144]	; 0x90
 8003974:	4a1b      	ldr	r2, [pc, #108]	; (80039e4 <HAL_RCCEx_PeriphCLKConfig+0x1ac>)
 8003976:	f423 3380 	bic.w	r3, r3, #65536	; 0x10000
 800397a:	f8c2 3090 	str.w	r3, [r2, #144]	; 0x90
 800397e:	4a19      	ldr	r2, [pc, #100]	; (80039e4 <HAL_RCCEx_PeriphCLKConfig+0x1ac>)
 8003980:	697b      	ldr	r3, [r7, #20]
 8003982:	f8c2 3090 	str.w	r3, [r2, #144]	; 0x90
 8003986:	697b      	ldr	r3, [r7, #20]
 8003988:	f003 0301 	and.w	r3, r3, #1
 800398c:	2b00      	cmp	r3, #0
 800398e:	d016      	beq.n	80039be <HAL_RCCEx_PeriphCLKConfig+0x186>
 8003990:	f7fd ff32 	bl	80017f8 <HAL_GetTick>
 8003994:	60f8      	str	r0, [r7, #12]
 8003996:	e00b      	b.n	80039b0 <HAL_RCCEx_PeriphCLKConfig+0x178>
 8003998:	f7fd ff2e 	bl	80017f8 <HAL_GetTick>
 800399c:	4602      	mov	r2, r0
 800399e:	68fb      	ldr	r3, [r7, #12]
 80039a0:	1ad3      	subs	r3, r2, r3
 80039a2:	f241 3288 	movw	r2, #5000	; 0x1388
 80039a6:	4293      	cmp	r3, r2
 80039a8:	d902      	bls.n	80039b0 <HAL_RCCEx_PeriphCLKConfig+0x178>
 80039aa:	2303      	movs	r3, #3
 80039ac:	74fb      	strb	r3, [r7, #19]
 80039ae:	e006      	b.n	80039be <HAL_RCCEx_PeriphCLKConfig+0x186>
 80039b0:	4b0c      	ldr	r3, [pc, #48]	; (80039e4 <HAL_RCCEx_PeriphCLKConfig+0x1ac>)
 80039b2:	f8d3 3090 	ldr.w	r3, [r3, #144]	; 0x90
 80039b6:	f003 0302 	and.w	r3, r3, #2
 80039ba:	2b00      	cmp	r3, #0
 80039bc:	d0ec      	beq.n	8003998 <HAL_RCCEx_PeriphCLKConfig+0x160>
 80039be:	7cfb      	ldrb	r3, [r7, #19]
 80039c0:	2b00      	cmp	r3, #0
 80039c2:	d10b      	bne.n	80039dc <HAL_RCCEx_PeriphCLKConfig+0x1a4>
 80039c4:	4b07      	ldr	r3, [pc, #28]	; (80039e4 <HAL_RCCEx_PeriphCLKConfig+0x1ac>)
 80039c6:	f8d3 3090 	ldr.w	r3, [r3, #144]	; 0x90
 80039ca:	f423 7240 	bic.w	r2, r3, #768	; 0x300
 80039ce:	687b      	ldr	r3, [r7, #4]
 80039d0:	6e5b      	ldr	r3, [r3, #100]	; 0x64
 80039d2:	4904      	ldr	r1, [pc, #16]	; (80039e4 <HAL_RCCEx_PeriphCLKConfig+0x1ac>)
 80039d4:	4313      	orrs	r3, r2
 80039d6:	f8c1 3090 	str.w	r3, [r1, #144]	; 0x90
 80039da:	e009      	b.n	80039f0 <HAL_RCCEx_PeriphCLKConfig+0x1b8>
 80039dc:	7cfb      	ldrb	r3, [r7, #19]
 80039de:	74bb      	strb	r3, [r7, #18]
 80039e0:	e006      	b.n	80039f0 <HAL_RCCEx_PeriphCLKConfig+0x1b8>
 80039e2:	bf00      	nop
 80039e4:	40021000 	.word	0x40021000
 80039e8:	40007000 	.word	0x40007000
 80039ec:	7cfb      	ldrb	r3, [r7, #19]
 80039ee:	74bb      	strb	r3, [r7, #18]
 80039f0:	7c7b      	ldrb	r3, [r7, #17]
 80039f2:	2b01      	cmp	r3, #1
 80039f4:	d105      	bne.n	8003a02 <HAL_RCCEx_PeriphCLKConfig+0x1ca>
 80039f6:	4b9e      	ldr	r3, [pc, #632]	; (8003c70 <HAL_RCCEx_PeriphCLKConfig+0x438>)
 80039f8:	6d9b      	ldr	r3, [r3, #88]	; 0x58
 80039fa:	4a9d      	ldr	r2, [pc, #628]	; (8003c70 <HAL_RCCEx_PeriphCLKConfig+0x438>)
 80039fc:	f023 5380 	bic.w	r3, r3, #268435456	; 0x10000000
 8003a00:	6593      	str	r3, [r2, #88]	; 0x58
 8003a02:	687b      	ldr	r3, [r7, #4]
 8003a04:	681b      	ldr	r3, [r3, #0]
 8003a06:	f003 0301 	and.w	r3, r3, #1
 8003a0a:	2b00      	cmp	r3, #0
 8003a0c:	d00a      	beq.n	8003a24 <HAL_RCCEx_PeriphCLKConfig+0x1ec>
 8003a0e:	4b98      	ldr	r3, [pc, #608]	; (8003c70 <HAL_RCCEx_PeriphCLKConfig+0x438>)
 8003a10:	f8d3 3088 	ldr.w	r3, [r3, #136]	; 0x88
 8003a14:	f023 0203 	bic.w	r2, r3, #3
 8003a18:	687b      	ldr	r3, [r7, #4]
 8003a1a:	6a1b      	ldr	r3, [r3, #32]
 8003a1c:	4994      	ldr	r1, [pc, #592]	; (8003c70 <HAL_RCCEx_PeriphCLKConfig+0x438>)
 8003a1e:	4313      	orrs	r3, r2
 8003a20:	f8c1 3088 	str.w	r3, [r1, #136]	; 0x88
 8003a24:	687b      	ldr	r3, [r7, #4]
 8003a26:	681b      	ldr	r3, [r3, #0]
 8003a28:	f003 0302 	and.w	r3, r3, #2
 8003a2c:	2b00      	cmp	r3, #0
 8003a2e:	d00a      	beq.n	8003a46 <HAL_RCCEx_PeriphCLKConfig+0x20e>
 8003a30:	4b8f      	ldr	r3, [pc, #572]	; (8003c70 <HAL_RCCEx_PeriphCLKConfig+0x438>)
 8003a32:	f8d3 3088 	ldr.w	r3, [r3, #136]	; 0x88
 8003a36:	f023 020c 	bic.w	r2, r3, #12
 8003a3a:	687b      	ldr	r3, [r7, #4]
 8003a3c:	6a5b      	ldr	r3, [r3, #36]	; 0x24
 8003a3e:	498c      	ldr	r1, [pc, #560]	; (8003c70 <HAL_RCCEx_PeriphCLKConfig+0x438>)
 8003a40:	4313      	orrs	r3, r2
 8003a42:	f8c1 3088 	str.w	r3, [r1, #136]	; 0x88
 8003a46:	687b      	ldr	r3, [r7, #4]
 8003a48:	681b      	ldr	r3, [r3, #0]
 8003a4a:	f003 0304 	and.w	r3, r3, #4
 8003a4e:	2b00      	cmp	r3, #0
 8003a50:	d00a      	beq.n	8003a68 <HAL_RCCEx_PeriphCLKConfig+0x230>
 8003a52:	4b87      	ldr	r3, [pc, #540]	; (8003c70 <HAL_RCCEx_PeriphCLKConfig+0x438>)
 8003a54:	f8d3 3088 	ldr.w	r3, [r3, #136]	; 0x88
 8003a58:	f023 0230 	bic.w	r2, r3, #48	; 0x30
 8003a5c:	687b      	ldr	r3, [r7, #4]
 8003a5e:	6a9b      	ldr	r3, [r3, #40]	; 0x28
 8003a60:	4983      	ldr	r1, [pc, #524]	; (8003c70 <HAL_RCCEx_PeriphCLKConfig+0x438>)
 8003a62:	4313      	orrs	r3, r2
 8003a64:	f8c1 3088 	str.w	r3, [r1, #136]	; 0x88
 8003a68:	687b      	ldr	r3, [r7, #4]
 8003a6a:	681b      	ldr	r3, [r3, #0]
 8003a6c:	f003 0308 	and.w	r3, r3, #8
 8003a70:	2b00      	cmp	r3, #0
 8003a72:	d00a      	beq.n	8003a8a <HAL_RCCEx_PeriphCLKConfig+0x252>
 8003a74:	4b7e      	ldr	r3, [pc, #504]	; (8003c70 <HAL_RCCEx_PeriphCLKConfig+0x438>)
 8003a76:	f8d3 3088 	ldr.w	r3, [r3, #136]	; 0x88
 8003a7a:	f023 02c0 	bic.w	r2, r3, #192	; 0xc0
 8003a7e:	687b      	ldr	r3, [r7, #4]
 8003a80:	6adb      	ldr	r3, [r3, #44]	; 0x2c
 8003a82:	497b      	ldr	r1, [pc, #492]	; (8003c70 <HAL_RCCEx_PeriphCLKConfig+0x438>)
 8003a84:	4313      	orrs	r3, r2
 8003a86:	f8c1 3088 	str.w	r3, [r1, #136]	; 0x88
 8003a8a:	687b      	ldr	r3, [r7, #4]
 8003a8c:	681b      	ldr	r3, [r3, #0]
 8003a8e:	f003 0320 	and.w	r3, r3, #32
 8003a92:	2b00      	cmp	r3, #0
 8003a94:	d00a      	beq.n	8003aac <HAL_RCCEx_PeriphCLKConfig+0x274>
 8003a96:	4b76      	ldr	r3, [pc, #472]	; (8003c70 <HAL_RCCEx_PeriphCLKConfig+0x438>)
 8003a98:	f8d3 3088 	ldr.w	r3, [r3, #136]	; 0x88
 8003a9c:	f423 6240 	bic.w	r2, r3, #3072	; 0xc00
 8003aa0:	687b      	ldr	r3, [r7, #4]
 8003aa2:	6b1b      	ldr	r3, [r3, #48]	; 0x30
 8003aa4:	4972      	ldr	r1, [pc, #456]	; (8003c70 <HAL_RCCEx_PeriphCLKConfig+0x438>)
 8003aa6:	4313      	orrs	r3, r2
 8003aa8:	f8c1 3088 	str.w	r3, [r1, #136]	; 0x88
 8003aac:	687b      	ldr	r3, [r7, #4]
 8003aae:	681b      	ldr	r3, [r3, #0]
 8003ab0:	f403 7300 	and.w	r3, r3, #512	; 0x200
 8003ab4:	2b00      	cmp	r3, #0
 8003ab6:	d00a      	beq.n	8003ace <HAL_RCCEx_PeriphCLKConfig+0x296>
 8003ab8:	4b6d      	ldr	r3, [pc, #436]	; (8003c70 <HAL_RCCEx_PeriphCLKConfig+0x438>)
 8003aba:	f8d3 3088 	ldr.w	r3, [r3, #136]	; 0x88
 8003abe:	f423 2240 	bic.w	r2, r3, #786432	; 0xc0000
 8003ac2:	687b      	ldr	r3, [r7, #4]
 8003ac4:	6c5b      	ldr	r3, [r3, #68]	; 0x44
 8003ac6:	496a      	ldr	r1, [pc, #424]	; (8003c70 <HAL_RCCEx_PeriphCLKConfig+0x438>)
 8003ac8:	4313      	orrs	r3, r2
 8003aca:	f8c1 3088 	str.w	r3, [r1, #136]	; 0x88
 8003ace:	687b      	ldr	r3, [r7, #4]
 8003ad0:	681b      	ldr	r3, [r3, #0]
 8003ad2:	f403 6380 	and.w	r3, r3, #1024	; 0x400
 8003ad6:	2b00      	cmp	r3, #0
 8003ad8:	d00a      	beq.n	8003af0 <HAL_RCCEx_PeriphCLKConfig+0x2b8>
 8003ada:	4b65      	ldr	r3, [pc, #404]	; (8003c70 <HAL_RCCEx_PeriphCLKConfig+0x438>)
 8003adc:	f8d3 3088 	ldr.w	r3, [r3, #136]	; 0x88
 8003ae0:	f423 1240 	bic.w	r2, r3, #3145728	; 0x300000
 8003ae4:	687b      	ldr	r3, [r7, #4]
 8003ae6:	6c9b      	ldr	r3, [r3, #72]	; 0x48
 8003ae8:	4961      	ldr	r1, [pc, #388]	; (8003c70 <HAL_RCCEx_PeriphCLKConfig+0x438>)
 8003aea:	4313      	orrs	r3, r2
 8003aec:	f8c1 3088 	str.w	r3, [r1, #136]	; 0x88
 8003af0:	687b      	ldr	r3, [r7, #4]
 8003af2:	681b      	ldr	r3, [r3, #0]
 8003af4:	f003 0340 	and.w	r3, r3, #64	; 0x40
 8003af8:	2b00      	cmp	r3, #0
 8003afa:	d00a      	beq.n	8003b12 <HAL_RCCEx_PeriphCLKConfig+0x2da>
 8003afc:	4b5c      	ldr	r3, [pc, #368]	; (8003c70 <HAL_RCCEx_PeriphCLKConfig+0x438>)
 8003afe:	f8d3 3088 	ldr.w	r3, [r3, #136]	; 0x88
 8003b02:	f423 5240 	bic.w	r2, r3, #12288	; 0x3000
 8003b06:	687b      	ldr	r3, [r7, #4]
 8003b08:	6b5b      	ldr	r3, [r3, #52]	; 0x34
 8003b0a:	4959      	ldr	r1, [pc, #356]	; (8003c70 <HAL_RCCEx_PeriphCLKConfig+0x438>)
 8003b0c:	4313      	orrs	r3, r2
 8003b0e:	f8c1 3088 	str.w	r3, [r1, #136]	; 0x88
 8003b12:	687b      	ldr	r3, [r7, #4]
 8003b14:	681b      	ldr	r3, [r3, #0]
 8003b16:	f003 0380 	and.w	r3, r3, #128	; 0x80
 8003b1a:	2b00      	cmp	r3, #0
 8003b1c:	d00a      	beq.n	8003b34 <HAL_RCCEx_PeriphCLKConfig+0x2fc>
 8003b1e:	4b54      	ldr	r3, [pc, #336]	; (8003c70 <HAL_RCCEx_PeriphCLKConfig+0x438>)
 8003b20:	f8d3 3088 	ldr.w	r3, [r3, #136]	; 0x88
 8003b24:	f423 4240 	bic.w	r2, r3, #49152	; 0xc000
 8003b28:	687b      	ldr	r3, [r7, #4]
 8003b2a:	6b9b      	ldr	r3, [r3, #56]	; 0x38
 8003b2c:	4950      	ldr	r1, [pc, #320]	; (8003c70 <HAL_RCCEx_PeriphCLKConfig+0x438>)
 8003b2e:	4313      	orrs	r3, r2
 8003b30:	f8c1 3088 	str.w	r3, [r1, #136]	; 0x88
 8003b34:	687b      	ldr	r3, [r7, #4]
 8003b36:	681b      	ldr	r3, [r3, #0]
 8003b38:	f403 7380 	and.w	r3, r3, #256	; 0x100
 8003b3c:	2b00      	cmp	r3, #0
 8003b3e:	d00a      	beq.n	8003b56 <HAL_RCCEx_PeriphCLKConfig+0x31e>
 8003b40:	4b4b      	ldr	r3, [pc, #300]	; (8003c70 <HAL_RCCEx_PeriphCLKConfig+0x438>)
 8003b42:	f8d3 3088 	ldr.w	r3, [r3, #136]	; 0x88
 8003b46:	f423 3240 	bic.w	r2, r3, #196608	; 0x30000
 8003b4a:	687b      	ldr	r3, [r7, #4]
 8003b4c:	6bdb      	ldr	r3, [r3, #60]	; 0x3c
 8003b4e:	4948      	ldr	r1, [pc, #288]	; (8003c70 <HAL_RCCEx_PeriphCLKConfig+0x438>)
 8003b50:	4313      	orrs	r3, r2
 8003b52:	f8c1 3088 	str.w	r3, [r1, #136]	; 0x88
 8003b56:	687b      	ldr	r3, [r7, #4]
 8003b58:	681b      	ldr	r3, [r3, #0]
 8003b5a:	f403 1380 	and.w	r3, r3, #1048576	; 0x100000
 8003b5e:	2b00      	cmp	r3, #0
 8003b60:	d00a      	beq.n	8003b78 <HAL_RCCEx_PeriphCLKConfig+0x340>
 8003b62:	4b43      	ldr	r3, [pc, #268]	; (8003c70 <HAL_RCCEx_PeriphCLKConfig+0x438>)
 8003b64:	f8d3 309c 	ldr.w	r3, [r3, #156]	; 0x9c
 8003b68:	f023 0203 	bic.w	r2, r3, #3
 8003b6c:	687b      	ldr	r3, [r7, #4]
 8003b6e:	6c1b      	ldr	r3, [r3, #64]	; 0x40
 8003b70:	493f      	ldr	r1, [pc, #252]	; (8003c70 <HAL_RCCEx_PeriphCLKConfig+0x438>)
 8003b72:	4313      	orrs	r3, r2
 8003b74:	f8c1 309c 	str.w	r3, [r1, #156]	; 0x9c
 8003b78:	687b      	ldr	r3, [r7, #4]
 8003b7a:	681b      	ldr	r3, [r3, #0]
 8003b7c:	f403 5300 	and.w	r3, r3, #8192	; 0x2000
 8003b80:	2b00      	cmp	r3, #0
 8003b82:	d028      	beq.n	8003bd6 <HAL_RCCEx_PeriphCLKConfig+0x39e>
 8003b84:	4b3a      	ldr	r3, [pc, #232]	; (8003c70 <HAL_RCCEx_PeriphCLKConfig+0x438>)
 8003b86:	f8d3 3088 	ldr.w	r3, [r3, #136]	; 0x88
 8003b8a:	f023 6240 	bic.w	r2, r3, #201326592	; 0xc000000
 8003b8e:	687b      	ldr	r3, [r7, #4]
 8003b90:	6d1b      	ldr	r3, [r3, #80]	; 0x50
 8003b92:	4937      	ldr	r1, [pc, #220]	; (8003c70 <HAL_RCCEx_PeriphCLKConfig+0x438>)
 8003b94:	4313      	orrs	r3, r2
 8003b96:	f8c1 3088 	str.w	r3, [r1, #136]	; 0x88
 8003b9a:	687b      	ldr	r3, [r7, #4]
 8003b9c:	6d1b      	ldr	r3, [r3, #80]	; 0x50
 8003b9e:	f1b3 6f00 	cmp.w	r3, #134217728	; 0x8000000
 8003ba2:	d106      	bne.n	8003bb2 <HAL_RCCEx_PeriphCLKConfig+0x37a>
 8003ba4:	4b32      	ldr	r3, [pc, #200]	; (8003c70 <HAL_RCCEx_PeriphCLKConfig+0x438>)
 8003ba6:	68db      	ldr	r3, [r3, #12]
 8003ba8:	4a31      	ldr	r2, [pc, #196]	; (8003c70 <HAL_RCCEx_PeriphCLKConfig+0x438>)
 8003baa:	f443 1380 	orr.w	r3, r3, #1048576	; 0x100000
 8003bae:	60d3      	str	r3, [r2, #12]
 8003bb0:	e011      	b.n	8003bd6 <HAL_RCCEx_PeriphCLKConfig+0x39e>
 8003bb2:	687b      	ldr	r3, [r7, #4]
 8003bb4:	6d1b      	ldr	r3, [r3, #80]	; 0x50
 8003bb6:	f1b3 6f80 	cmp.w	r3, #67108864	; 0x4000000
 8003bba:	d10c      	bne.n	8003bd6 <HAL_RCCEx_PeriphCLKConfig+0x39e>
 8003bbc:	687b      	ldr	r3, [r7, #4]
 8003bbe:	3304      	adds	r3, #4
 8003bc0:	2101      	movs	r1, #1
 8003bc2:	4618      	mov	r0, r3
 8003bc4:	f000 f8a4 	bl	8003d10 <RCCEx_PLLSAI1_Config>
 8003bc8:	4603      	mov	r3, r0
 8003bca:	74fb      	strb	r3, [r7, #19]
 8003bcc:	7cfb      	ldrb	r3, [r7, #19]
 8003bce:	2b00      	cmp	r3, #0
 8003bd0:	d001      	beq.n	8003bd6 <HAL_RCCEx_PeriphCLKConfig+0x39e>
 8003bd2:	7cfb      	ldrb	r3, [r7, #19]
 8003bd4:	74bb      	strb	r3, [r7, #18]
 8003bd6:	687b      	ldr	r3, [r7, #4]
 8003bd8:	681b      	ldr	r3, [r3, #0]
 8003bda:	f403 2300 	and.w	r3, r3, #524288	; 0x80000
 8003bde:	2b00      	cmp	r3, #0
 8003be0:	d028      	beq.n	8003c34 <HAL_RCCEx_PeriphCLKConfig+0x3fc>
 8003be2:	4b23      	ldr	r3, [pc, #140]	; (8003c70 <HAL_RCCEx_PeriphCLKConfig+0x438>)
 8003be4:	f8d3 3088 	ldr.w	r3, [r3, #136]	; 0x88
 8003be8:	f023 6240 	bic.w	r2, r3, #201326592	; 0xc000000
 8003bec:	687b      	ldr	r3, [r7, #4]
 8003bee:	6d5b      	ldr	r3, [r3, #84]	; 0x54
 8003bf0:	491f      	ldr	r1, [pc, #124]	; (8003c70 <HAL_RCCEx_PeriphCLKConfig+0x438>)
 8003bf2:	4313      	orrs	r3, r2
 8003bf4:	f8c1 3088 	str.w	r3, [r1, #136]	; 0x88
 8003bf8:	687b      	ldr	r3, [r7, #4]
 8003bfa:	6d5b      	ldr	r3, [r3, #84]	; 0x54
 8003bfc:	f1b3 6f00 	cmp.w	r3, #134217728	; 0x8000000
 8003c00:	d106      	bne.n	8003c10 <HAL_RCCEx_PeriphCLKConfig+0x3d8>
 8003c02:	4b1b      	ldr	r3, [pc, #108]	; (8003c70 <HAL_RCCEx_PeriphCLKConfig+0x438>)
 8003c04:	68db      	ldr	r3, [r3, #12]
 8003c06:	4a1a      	ldr	r2, [pc, #104]	; (8003c70 <HAL_RCCEx_PeriphCLKConfig+0x438>)
 8003c08:	f443 1380 	orr.w	r3, r3, #1048576	; 0x100000
 8003c0c:	60d3      	str	r3, [r2, #12]
 8003c0e:	e011      	b.n	8003c34 <HAL_RCCEx_PeriphCLKConfig+0x3fc>
 8003c10:	687b      	ldr	r3, [r7, #4]
 8003c12:	6d5b      	ldr	r3, [r3, #84]	; 0x54
 8003c14:	f1b3 6f80 	cmp.w	r3, #67108864	; 0x4000000
 8003c18:	d10c      	bne.n	8003c34 <HAL_RCCEx_PeriphCLKConfig+0x3fc>
 8003c1a:	687b      	ldr	r3, [r7, #4]
 8003c1c:	3304      	adds	r3, #4
 8003c1e:	2101      	movs	r1, #1
 8003c20:	4618      	mov	r0, r3
 8003c22:	f000 f875 	bl	8003d10 <RCCEx_PLLSAI1_Config>
 8003c26:	4603      	mov	r3, r0
 8003c28:	74fb      	strb	r3, [r7, #19]
 8003c2a:	7cfb      	ldrb	r3, [r7, #19]
 8003c2c:	2b00      	cmp	r3, #0
 8003c2e:	d001      	beq.n	8003c34 <HAL_RCCEx_PeriphCLKConfig+0x3fc>
 8003c30:	7cfb      	ldrb	r3, [r7, #19]
 8003c32:	74bb      	strb	r3, [r7, #18]
 8003c34:	687b      	ldr	r3, [r7, #4]
 8003c36:	681b      	ldr	r3, [r3, #0]
 8003c38:	f403 2380 	and.w	r3, r3, #262144	; 0x40000
 8003c3c:	2b00      	cmp	r3, #0
 8003c3e:	d02b      	beq.n	8003c98 <HAL_RCCEx_PeriphCLKConfig+0x460>
 8003c40:	4b0b      	ldr	r3, [pc, #44]	; (8003c70 <HAL_RCCEx_PeriphCLKConfig+0x438>)
 8003c42:	f8d3 3088 	ldr.w	r3, [r3, #136]	; 0x88
 8003c46:	f023 6240 	bic.w	r2, r3, #201326592	; 0xc000000
 8003c4a:	687b      	ldr	r3, [r7, #4]
 8003c4c:	6d9b      	ldr	r3, [r3, #88]	; 0x58
 8003c4e:	4908      	ldr	r1, [pc, #32]	; (8003c70 <HAL_RCCEx_PeriphCLKConfig+0x438>)
 8003c50:	4313      	orrs	r3, r2
 8003c52:	f8c1 3088 	str.w	r3, [r1, #136]	; 0x88
 8003c56:	687b      	ldr	r3, [r7, #4]
 8003c58:	6d9b      	ldr	r3, [r3, #88]	; 0x58
 8003c5a:	f1b3 6f00 	cmp.w	r3, #134217728	; 0x8000000
 8003c5e:	d109      	bne.n	8003c74 <HAL_RCCEx_PeriphCLKConfig+0x43c>
 8003c60:	4b03      	ldr	r3, [pc, #12]	; (8003c70 <HAL_RCCEx_PeriphCLKConfig+0x438>)
 8003c62:	68db      	ldr	r3, [r3, #12]
 8003c64:	4a02      	ldr	r2, [pc, #8]	; (8003c70 <HAL_RCCEx_PeriphCLKConfig+0x438>)
 8003c66:	f443 1380 	orr.w	r3, r3, #1048576	; 0x100000
 8003c6a:	60d3      	str	r3, [r2, #12]
 8003c6c:	e014      	b.n	8003c98 <HAL_RCCEx_PeriphCLKConfig+0x460>
 8003c6e:	bf00      	nop
 8003c70:	40021000 	.word	0x40021000
 8003c74:	687b      	ldr	r3, [r7, #4]
 8003c76:	6d9b      	ldr	r3, [r3, #88]	; 0x58
 8003c78:	f1b3 6f80 	cmp.w	r3, #67108864	; 0x4000000
 8003c7c:	d10c      	bne.n	8003c98 <HAL_RCCEx_PeriphCLKConfig+0x460>
 8003c7e:	687b      	ldr	r3, [r7, #4]
 8003c80:	3304      	adds	r3, #4
 8003c82:	2101      	movs	r1, #1
 8003c84:	4618      	mov	r0, r3
 8003c86:	f000 f843 	bl	8003d10 <RCCEx_PLLSAI1_Config>
 8003c8a:	4603      	mov	r3, r0
 8003c8c:	74fb      	strb	r3, [r7, #19]
 8003c8e:	7cfb      	ldrb	r3, [r7, #19]
 8003c90:	2b00      	cmp	r3, #0
 8003c92:	d001      	beq.n	8003c98 <HAL_RCCEx_PeriphCLKConfig+0x460>
 8003c94:	7cfb      	ldrb	r3, [r7, #19]
 8003c96:	74bb      	strb	r3, [r7, #18]
 8003c98:	687b      	ldr	r3, [r7, #4]
 8003c9a:	681b      	ldr	r3, [r3, #0]
 8003c9c:	f403 4380 	and.w	r3, r3, #16384	; 0x4000
 8003ca0:	2b00      	cmp	r3, #0
 8003ca2:	d01c      	beq.n	8003cde <HAL_RCCEx_PeriphCLKConfig+0x4a6>
 8003ca4:	4b19      	ldr	r3, [pc, #100]	; (8003d0c <HAL_RCCEx_PeriphCLKConfig+0x4d4>)
 8003ca6:	f8d3 3088 	ldr.w	r3, [r3, #136]	; 0x88
 8003caa:	f023 5240 	bic.w	r2, r3, #805306368	; 0x30000000
 8003cae:	687b      	ldr	r3, [r7, #4]
 8003cb0:	6ddb      	ldr	r3, [r3, #92]	; 0x5c
 8003cb2:	4916      	ldr	r1, [pc, #88]	; (8003d0c <HAL_RCCEx_PeriphCLKConfig+0x4d4>)
 8003cb4:	4313      	orrs	r3, r2
 8003cb6:	f8c1 3088 	str.w	r3, [r1, #136]	; 0x88
 8003cba:	687b      	ldr	r3, [r7, #4]
 8003cbc:	6ddb      	ldr	r3, [r3, #92]	; 0x5c
 8003cbe:	f1b3 5f80 	cmp.w	r3, #268435456	; 0x10000000
 8003cc2:	d10c      	bne.n	8003cde <HAL_RCCEx_PeriphCLKConfig+0x4a6>
 8003cc4:	687b      	ldr	r3, [r7, #4]
 8003cc6:	3304      	adds	r3, #4
 8003cc8:	2102      	movs	r1, #2
 8003cca:	4618      	mov	r0, r3
 8003ccc:	f000 f820 	bl	8003d10 <RCCEx_PLLSAI1_Config>
 8003cd0:	4603      	mov	r3, r0
 8003cd2:	74fb      	strb	r3, [r7, #19]
 8003cd4:	7cfb      	ldrb	r3, [r7, #19]
 8003cd6:	2b00      	cmp	r3, #0
 8003cd8:	d001      	beq.n	8003cde <HAL_RCCEx_PeriphCLKConfig+0x4a6>
 8003cda:	7cfb      	ldrb	r3, [r7, #19]
 8003cdc:	74bb      	strb	r3, [r7, #18]
 8003cde:	687b      	ldr	r3, [r7, #4]
 8003ce0:	681b      	ldr	r3, [r3, #0]
 8003ce2:	f403 3380 	and.w	r3, r3, #65536	; 0x10000
 8003ce6:	2b00      	cmp	r3, #0
 8003ce8:	d00a      	beq.n	8003d00 <HAL_RCCEx_PeriphCLKConfig+0x4c8>
 8003cea:	4b08      	ldr	r3, [pc, #32]	; (8003d0c <HAL_RCCEx_PeriphCLKConfig+0x4d4>)
 8003cec:	f8d3 3088 	ldr.w	r3, [r3, #136]	; 0x88
 8003cf0:	f023 4200 	bic.w	r2, r3, #2147483648	; 0x80000000
 8003cf4:	687b      	ldr	r3, [r7, #4]
 8003cf6:	6e1b      	ldr	r3, [r3, #96]	; 0x60
 8003cf8:	4904      	ldr	r1, [pc, #16]	; (8003d0c <HAL_RCCEx_PeriphCLKConfig+0x4d4>)
 8003cfa:	4313      	orrs	r3, r2
 8003cfc:	f8c1 3088 	str.w	r3, [r1, #136]	; 0x88
 8003d00:	7cbb      	ldrb	r3, [r7, #18]
 8003d02:	4618      	mov	r0, r3
 8003d04:	3718      	adds	r7, #24
 8003d06:	46bd      	mov	sp, r7
 8003d08:	bd80      	pop	{r7, pc}
 8003d0a:	bf00      	nop
 8003d0c:	40021000 	.word	0x40021000

08003d10 <RCCEx_PLLSAI1_Config>:
 8003d10:	b580      	push	{r7, lr}
 8003d12:	b084      	sub	sp, #16
 8003d14:	af00      	add	r7, sp, #0
 8003d16:	6078      	str	r0, [r7, #4]
 8003d18:	6039      	str	r1, [r7, #0]
 8003d1a:	2300      	movs	r3, #0
 8003d1c:	73fb      	strb	r3, [r7, #15]
 8003d1e:	4b74      	ldr	r3, [pc, #464]	; (8003ef0 <RCCEx_PLLSAI1_Config+0x1e0>)
 8003d20:	68db      	ldr	r3, [r3, #12]
 8003d22:	f003 0303 	and.w	r3, r3, #3
 8003d26:	2b00      	cmp	r3, #0
 8003d28:	d018      	beq.n	8003d5c <RCCEx_PLLSAI1_Config+0x4c>
 8003d2a:	4b71      	ldr	r3, [pc, #452]	; (8003ef0 <RCCEx_PLLSAI1_Config+0x1e0>)
 8003d2c:	68db      	ldr	r3, [r3, #12]
 8003d2e:	f003 0203 	and.w	r2, r3, #3
 8003d32:	687b      	ldr	r3, [r7, #4]
 8003d34:	681b      	ldr	r3, [r3, #0]
 8003d36:	429a      	cmp	r2, r3
 8003d38:	d10d      	bne.n	8003d56 <RCCEx_PLLSAI1_Config+0x46>
 8003d3a:	687b      	ldr	r3, [r7, #4]
 8003d3c:	681b      	ldr	r3, [r3, #0]
 8003d3e:	2b00      	cmp	r3, #0
 8003d40:	d009      	beq.n	8003d56 <RCCEx_PLLSAI1_Config+0x46>
 8003d42:	4b6b      	ldr	r3, [pc, #428]	; (8003ef0 <RCCEx_PLLSAI1_Config+0x1e0>)
 8003d44:	68db      	ldr	r3, [r3, #12]
 8003d46:	091b      	lsrs	r3, r3, #4
 8003d48:	f003 0307 	and.w	r3, r3, #7
 8003d4c:	1c5a      	adds	r2, r3, #1
 8003d4e:	687b      	ldr	r3, [r7, #4]
 8003d50:	685b      	ldr	r3, [r3, #4]
 8003d52:	429a      	cmp	r2, r3
 8003d54:	d047      	beq.n	8003de6 <RCCEx_PLLSAI1_Config+0xd6>
 8003d56:	2301      	movs	r3, #1
 8003d58:	73fb      	strb	r3, [r7, #15]
 8003d5a:	e044      	b.n	8003de6 <RCCEx_PLLSAI1_Config+0xd6>
 8003d5c:	687b      	ldr	r3, [r7, #4]
 8003d5e:	681b      	ldr	r3, [r3, #0]
 8003d60:	2b03      	cmp	r3, #3
 8003d62:	d018      	beq.n	8003d96 <RCCEx_PLLSAI1_Config+0x86>
 8003d64:	2b03      	cmp	r3, #3
 8003d66:	d825      	bhi.n	8003db4 <RCCEx_PLLSAI1_Config+0xa4>
 8003d68:	2b01      	cmp	r3, #1
 8003d6a:	d002      	beq.n	8003d72 <RCCEx_PLLSAI1_Config+0x62>
 8003d6c:	2b02      	cmp	r3, #2
 8003d6e:	d009      	beq.n	8003d84 <RCCEx_PLLSAI1_Config+0x74>
 8003d70:	e020      	b.n	8003db4 <RCCEx_PLLSAI1_Config+0xa4>
 8003d72:	4b5f      	ldr	r3, [pc, #380]	; (8003ef0 <RCCEx_PLLSAI1_Config+0x1e0>)
 8003d74:	681b      	ldr	r3, [r3, #0]
 8003d76:	f003 0302 	and.w	r3, r3, #2
 8003d7a:	2b00      	cmp	r3, #0
 8003d7c:	d11d      	bne.n	8003dba <RCCEx_PLLSAI1_Config+0xaa>
 8003d7e:	2301      	movs	r3, #1
 8003d80:	73fb      	strb	r3, [r7, #15]
 8003d82:	e01a      	b.n	8003dba <RCCEx_PLLSAI1_Config+0xaa>
 8003d84:	4b5a      	ldr	r3, [pc, #360]	; (8003ef0 <RCCEx_PLLSAI1_Config+0x1e0>)
 8003d86:	681b      	ldr	r3, [r3, #0]
 8003d88:	f403 6380 	and.w	r3, r3, #1024	; 0x400
 8003d8c:	2b00      	cmp	r3, #0
 8003d8e:	d116      	bne.n	8003dbe <RCCEx_PLLSAI1_Config+0xae>
 8003d90:	2301      	movs	r3, #1
 8003d92:	73fb      	strb	r3, [r7, #15]
 8003d94:	e013      	b.n	8003dbe <RCCEx_PLLSAI1_Config+0xae>
 8003d96:	4b56      	ldr	r3, [pc, #344]	; (8003ef0 <RCCEx_PLLSAI1_Config+0x1e0>)
 8003d98:	681b      	ldr	r3, [r3, #0]
 8003d9a:	f403 3300 	and.w	r3, r3, #131072	; 0x20000
 8003d9e:	2b00      	cmp	r3, #0
 8003da0:	d10f      	bne.n	8003dc2 <RCCEx_PLLSAI1_Config+0xb2>
 8003da2:	4b53      	ldr	r3, [pc, #332]	; (8003ef0 <RCCEx_PLLSAI1_Config+0x1e0>)
 8003da4:	681b      	ldr	r3, [r3, #0]
 8003da6:	f403 2380 	and.w	r3, r3, #262144	; 0x40000
 8003daa:	2b00      	cmp	r3, #0
 8003dac:	d109      	bne.n	8003dc2 <RCCEx_PLLSAI1_Config+0xb2>
 8003dae:	2301      	movs	r3, #1
 8003db0:	73fb      	strb	r3, [r7, #15]
 8003db2:	e006      	b.n	8003dc2 <RCCEx_PLLSAI1_Config+0xb2>
 8003db4:	2301      	movs	r3, #1
 8003db6:	73fb      	strb	r3, [r7, #15]
 8003db8:	e004      	b.n	8003dc4 <RCCEx_PLLSAI1_Config+0xb4>
 8003dba:	bf00      	nop
 8003dbc:	e002      	b.n	8003dc4 <RCCEx_PLLSAI1_Config+0xb4>
 8003dbe:	bf00      	nop
 8003dc0:	e000      	b.n	8003dc4 <RCCEx_PLLSAI1_Config+0xb4>
 8003dc2:	bf00      	nop
 8003dc4:	7bfb      	ldrb	r3, [r7, #15]
 8003dc6:	2b00      	cmp	r3, #0
 8003dc8:	d10d      	bne.n	8003de6 <RCCEx_PLLSAI1_Config+0xd6>
 8003dca:	4b49      	ldr	r3, [pc, #292]	; (8003ef0 <RCCEx_PLLSAI1_Config+0x1e0>)
 8003dcc:	68db      	ldr	r3, [r3, #12]
 8003dce:	f023 0273 	bic.w	r2, r3, #115	; 0x73
 8003dd2:	687b      	ldr	r3, [r7, #4]
 8003dd4:	6819      	ldr	r1, [r3, #0]
 8003dd6:	687b      	ldr	r3, [r7, #4]
 8003dd8:	685b      	ldr	r3, [r3, #4]
 8003dda:	3b01      	subs	r3, #1
 8003ddc:	011b      	lsls	r3, r3, #4
 8003dde:	430b      	orrs	r3, r1
 8003de0:	4943      	ldr	r1, [pc, #268]	; (8003ef0 <RCCEx_PLLSAI1_Config+0x1e0>)
 8003de2:	4313      	orrs	r3, r2
 8003de4:	60cb      	str	r3, [r1, #12]
 8003de6:	7bfb      	ldrb	r3, [r7, #15]
 8003de8:	2b00      	cmp	r3, #0
 8003dea:	d17c      	bne.n	8003ee6 <RCCEx_PLLSAI1_Config+0x1d6>
 8003dec:	4b40      	ldr	r3, [pc, #256]	; (8003ef0 <RCCEx_PLLSAI1_Config+0x1e0>)
 8003dee:	681b      	ldr	r3, [r3, #0]
 8003df0:	4a3f      	ldr	r2, [pc, #252]	; (8003ef0 <RCCEx_PLLSAI1_Config+0x1e0>)
 8003df2:	f023 6380 	bic.w	r3, r3, #67108864	; 0x4000000
 8003df6:	6013      	str	r3, [r2, #0]
 8003df8:	f7fd fcfe 	bl	80017f8 <HAL_GetTick>
 8003dfc:	60b8      	str	r0, [r7, #8]
 8003dfe:	e009      	b.n	8003e14 <RCCEx_PLLSAI1_Config+0x104>
 8003e00:	f7fd fcfa 	bl	80017f8 <HAL_GetTick>
 8003e04:	4602      	mov	r2, r0
 8003e06:	68bb      	ldr	r3, [r7, #8]
 8003e08:	1ad3      	subs	r3, r2, r3
 8003e0a:	2b02      	cmp	r3, #2
 8003e0c:	d902      	bls.n	8003e14 <RCCEx_PLLSAI1_Config+0x104>
 8003e0e:	2303      	movs	r3, #3
 8003e10:	73fb      	strb	r3, [r7, #15]
 8003e12:	e005      	b.n	8003e20 <RCCEx_PLLSAI1_Config+0x110>
 8003e14:	4b36      	ldr	r3, [pc, #216]	; (8003ef0 <RCCEx_PLLSAI1_Config+0x1e0>)
 8003e16:	681b      	ldr	r3, [r3, #0]
 8003e18:	f003 6300 	and.w	r3, r3, #134217728	; 0x8000000
 8003e1c:	2b00      	cmp	r3, #0
 8003e1e:	d1ef      	bne.n	8003e00 <RCCEx_PLLSAI1_Config+0xf0>
 8003e20:	7bfb      	ldrb	r3, [r7, #15]
 8003e22:	2b00      	cmp	r3, #0
 8003e24:	d15f      	bne.n	8003ee6 <RCCEx_PLLSAI1_Config+0x1d6>
 8003e26:	683b      	ldr	r3, [r7, #0]
 8003e28:	2b00      	cmp	r3, #0
 8003e2a:	d110      	bne.n	8003e4e <RCCEx_PLLSAI1_Config+0x13e>
 8003e2c:	4b30      	ldr	r3, [pc, #192]	; (8003ef0 <RCCEx_PLLSAI1_Config+0x1e0>)
 8003e2e:	691b      	ldr	r3, [r3, #16]
 8003e30:	f023 4378 	bic.w	r3, r3, #4160749568	; 0xf8000000
 8003e34:	f423 43fe 	bic.w	r3, r3, #32512	; 0x7f00
 8003e38:	687a      	ldr	r2, [r7, #4]
 8003e3a:	6892      	ldr	r2, [r2, #8]
 8003e3c:	0211      	lsls	r1, r2, #8
 8003e3e:	687a      	ldr	r2, [r7, #4]
 8003e40:	68d2      	ldr	r2, [r2, #12]
 8003e42:	06d2      	lsls	r2, r2, #27
 8003e44:	430a      	orrs	r2, r1
 8003e46:	492a      	ldr	r1, [pc, #168]	; (8003ef0 <RCCEx_PLLSAI1_Config+0x1e0>)
 8003e48:	4313      	orrs	r3, r2
 8003e4a:	610b      	str	r3, [r1, #16]
 8003e4c:	e027      	b.n	8003e9e <RCCEx_PLLSAI1_Config+0x18e>
 8003e4e:	683b      	ldr	r3, [r7, #0]
 8003e50:	2b01      	cmp	r3, #1
 8003e52:	d112      	bne.n	8003e7a <RCCEx_PLLSAI1_Config+0x16a>
 8003e54:	4b26      	ldr	r3, [pc, #152]	; (8003ef0 <RCCEx_PLLSAI1_Config+0x1e0>)
 8003e56:	691b      	ldr	r3, [r3, #16]
 8003e58:	f423 03c0 	bic.w	r3, r3, #6291456	; 0x600000
 8003e5c:	f423 43fe 	bic.w	r3, r3, #32512	; 0x7f00
 8003e60:	687a      	ldr	r2, [r7, #4]
 8003e62:	6892      	ldr	r2, [r2, #8]
 8003e64:	0211      	lsls	r1, r2, #8
 8003e66:	687a      	ldr	r2, [r7, #4]
 8003e68:	6912      	ldr	r2, [r2, #16]
 8003e6a:	0852      	lsrs	r2, r2, #1
 8003e6c:	3a01      	subs	r2, #1
 8003e6e:	0552      	lsls	r2, r2, #21
 8003e70:	430a      	orrs	r2, r1
 8003e72:	491f      	ldr	r1, [pc, #124]	; (8003ef0 <RCCEx_PLLSAI1_Config+0x1e0>)
 8003e74:	4313      	orrs	r3, r2
 8003e76:	610b      	str	r3, [r1, #16]
 8003e78:	e011      	b.n	8003e9e <RCCEx_PLLSAI1_Config+0x18e>
 8003e7a:	4b1d      	ldr	r3, [pc, #116]	; (8003ef0 <RCCEx_PLLSAI1_Config+0x1e0>)
 8003e7c:	691b      	ldr	r3, [r3, #16]
 8003e7e:	f023 63c0 	bic.w	r3, r3, #100663296	; 0x6000000
 8003e82:	f423 43fe 	bic.w	r3, r3, #32512	; 0x7f00
 8003e86:	687a      	ldr	r2, [r7, #4]
 8003e88:	6892      	ldr	r2, [r2, #8]
 8003e8a:	0211      	lsls	r1, r2, #8
 8003e8c:	687a      	ldr	r2, [r7, #4]
 8003e8e:	6952      	ldr	r2, [r2, #20]
 8003e90:	0852      	lsrs	r2, r2, #1
 8003e92:	3a01      	subs	r2, #1
 8003e94:	0652      	lsls	r2, r2, #25
 8003e96:	430a      	orrs	r2, r1
 8003e98:	4915      	ldr	r1, [pc, #84]	; (8003ef0 <RCCEx_PLLSAI1_Config+0x1e0>)
 8003e9a:	4313      	orrs	r3, r2
 8003e9c:	610b      	str	r3, [r1, #16]
 8003e9e:	4b14      	ldr	r3, [pc, #80]	; (8003ef0 <RCCEx_PLLSAI1_Config+0x1e0>)
 8003ea0:	681b      	ldr	r3, [r3, #0]
 8003ea2:	4a13      	ldr	r2, [pc, #76]	; (8003ef0 <RCCEx_PLLSAI1_Config+0x1e0>)
 8003ea4:	f043 6380 	orr.w	r3, r3, #67108864	; 0x4000000
 8003ea8:	6013      	str	r3, [r2, #0]
 8003eaa:	f7fd fca5 	bl	80017f8 <HAL_GetTick>
 8003eae:	60b8      	str	r0, [r7, #8]
 8003eb0:	e009      	b.n	8003ec6 <RCCEx_PLLSAI1_Config+0x1b6>
 8003eb2:	f7fd fca1 	bl	80017f8 <HAL_GetTick>
 8003eb6:	4602      	mov	r2, r0
 8003eb8:	68bb      	ldr	r3, [r7, #8]
 8003eba:	1ad3      	subs	r3, r2, r3
 8003ebc:	2b02      	cmp	r3, #2
 8003ebe:	d902      	bls.n	8003ec6 <RCCEx_PLLSAI1_Config+0x1b6>
 8003ec0:	2303      	movs	r3, #3
 8003ec2:	73fb      	strb	r3, [r7, #15]
 8003ec4:	e005      	b.n	8003ed2 <RCCEx_PLLSAI1_Config+0x1c2>
 8003ec6:	4b0a      	ldr	r3, [pc, #40]	; (8003ef0 <RCCEx_PLLSAI1_Config+0x1e0>)
 8003ec8:	681b      	ldr	r3, [r3, #0]
 8003eca:	f003 6300 	and.w	r3, r3, #134217728	; 0x8000000
 8003ece:	2b00      	cmp	r3, #0
 8003ed0:	d0ef      	beq.n	8003eb2 <RCCEx_PLLSAI1_Config+0x1a2>
 8003ed2:	7bfb      	ldrb	r3, [r7, #15]
 8003ed4:	2b00      	cmp	r3, #0
 8003ed6:	d106      	bne.n	8003ee6 <RCCEx_PLLSAI1_Config+0x1d6>
 8003ed8:	4b05      	ldr	r3, [pc, #20]	; (8003ef0 <RCCEx_PLLSAI1_Config+0x1e0>)
 8003eda:	691a      	ldr	r2, [r3, #16]
 8003edc:	687b      	ldr	r3, [r7, #4]
 8003ede:	699b      	ldr	r3, [r3, #24]
 8003ee0:	4903      	ldr	r1, [pc, #12]	; (8003ef0 <RCCEx_PLLSAI1_Config+0x1e0>)
 8003ee2:	4313      	orrs	r3, r2
 8003ee4:	610b      	str	r3, [r1, #16]
 8003ee6:	7bfb      	ldrb	r3, [r7, #15]
 8003ee8:	4618      	mov	r0, r3
 8003eea:	3710      	adds	r7, #16
 8003eec:	46bd      	mov	sp, r7
 8003eee:	bd80      	pop	{r7, pc}
 8003ef0:	40021000 	.word	0x40021000

08003ef4 <HAL_TIM_Base_Init>:
 8003ef4:	b580      	push	{r7, lr}
 8003ef6:	b082      	sub	sp, #8
 8003ef8:	af00      	add	r7, sp, #0
 8003efa:	6078      	str	r0, [r7, #4]
 8003efc:	687b      	ldr	r3, [r7, #4]
 8003efe:	2b00      	cmp	r3, #0
 8003f00:	d101      	bne.n	8003f06 <HAL_TIM_Base_Init+0x12>
 8003f02:	2301      	movs	r3, #1
 8003f04:	e049      	b.n	8003f9a <HAL_TIM_Base_Init+0xa6>
 8003f06:	687b      	ldr	r3, [r7, #4]
 8003f08:	f893 303d 	ldrb.w	r3, [r3, #61]	; 0x3d
 8003f0c:	b2db      	uxtb	r3, r3
 8003f0e:	2b00      	cmp	r3, #0
 8003f10:	d106      	bne.n	8003f20 <HAL_TIM_Base_Init+0x2c>
 8003f12:	687b      	ldr	r3, [r7, #4]
 8003f14:	2200      	movs	r2, #0
 8003f16:	f883 203c 	strb.w	r2, [r3, #60]	; 0x3c
 8003f1a:	6878      	ldr	r0, [r7, #4]
 8003f1c:	f7fd fa9a 	bl	8001454 <HAL_TIM_Base_MspInit>
 8003f20:	687b      	ldr	r3, [r7, #4]
 8003f22:	2202      	movs	r2, #2
 8003f24:	f883 203d 	strb.w	r2, [r3, #61]	; 0x3d
 8003f28:	687b      	ldr	r3, [r7, #4]
 8003f2a:	681a      	ldr	r2, [r3, #0]
 8003f2c:	687b      	ldr	r3, [r7, #4]
 8003f2e:	3304      	adds	r3, #4
 8003f30:	4619      	mov	r1, r3
 8003f32:	4610      	mov	r0, r2
 8003f34:	f000 fa32 	bl	800439c <TIM_Base_SetConfig>
 8003f38:	687b      	ldr	r3, [r7, #4]
 8003f3a:	2201      	movs	r2, #1
 8003f3c:	f883 2048 	strb.w	r2, [r3, #72]	; 0x48
 8003f40:	687b      	ldr	r3, [r7, #4]
 8003f42:	2201      	movs	r2, #1
 8003f44:	f883 203e 	strb.w	r2, [r3, #62]	; 0x3e
 8003f48:	687b      	ldr	r3, [r7, #4]
 8003f4a:	2201      	movs	r2, #1
 8003f4c:	f883 203f 	strb.w	r2, [r3, #63]	; 0x3f
 8003f50:	687b      	ldr	r3, [r7, #4]
 8003f52:	2201      	movs	r2, #1
 8003f54:	f883 2040 	strb.w	r2, [r3, #64]	; 0x40
 8003f58:	687b      	ldr	r3, [r7, #4]
 8003f5a:	2201      	movs	r2, #1
 8003f5c:	f883 2041 	strb.w	r2, [r3, #65]	; 0x41
 8003f60:	687b      	ldr	r3, [r7, #4]
 8003f62:	2201      	movs	r2, #1
 8003f64:	f883 2042 	strb.w	r2, [r3, #66]	; 0x42
 8003f68:	687b      	ldr	r3, [r7, #4]
 8003f6a:	2201      	movs	r2, #1
 8003f6c:	f883 2043 	strb.w	r2, [r3, #67]	; 0x43
 8003f70:	687b      	ldr	r3, [r7, #4]
 8003f72:	2201      	movs	r2, #1
 8003f74:	f883 2044 	strb.w	r2, [r3, #68]	; 0x44
 8003f78:	687b      	ldr	r3, [r7, #4]
 8003f7a:	2201      	movs	r2, #1
 8003f7c:	f883 2045 	strb.w	r2, [r3, #69]	; 0x45
 8003f80:	687b      	ldr	r3, [r7, #4]
 8003f82:	2201      	movs	r2, #1
 8003f84:	f883 2046 	strb.w	r2, [r3, #70]	; 0x46
 8003f88:	687b      	ldr	r3, [r7, #4]
 8003f8a:	2201      	movs	r2, #1
 8003f8c:	f883 2047 	strb.w	r2, [r3, #71]	; 0x47
 8003f90:	687b      	ldr	r3, [r7, #4]
 8003f92:	2201      	movs	r2, #1
 8003f94:	f883 203d 	strb.w	r2, [r3, #61]	; 0x3d
 8003f98:	2300      	movs	r3, #0
 8003f9a:	4618      	mov	r0, r3
 8003f9c:	3708      	adds	r7, #8
 8003f9e:	46bd      	mov	sp, r7
 8003fa0:	bd80      	pop	{r7, pc}

08003fa2 <HAL_TIM_IRQHandler>:
 8003fa2:	b580      	push	{r7, lr}
 8003fa4:	b084      	sub	sp, #16
 8003fa6:	af00      	add	r7, sp, #0
 8003fa8:	6078      	str	r0, [r7, #4]
 8003faa:	687b      	ldr	r3, [r7, #4]
 8003fac:	681b      	ldr	r3, [r3, #0]
 8003fae:	68db      	ldr	r3, [r3, #12]
 8003fb0:	60fb      	str	r3, [r7, #12]
 8003fb2:	687b      	ldr	r3, [r7, #4]
 8003fb4:	681b      	ldr	r3, [r3, #0]
 8003fb6:	691b      	ldr	r3, [r3, #16]
 8003fb8:	60bb      	str	r3, [r7, #8]
 8003fba:	68bb      	ldr	r3, [r7, #8]
 8003fbc:	f003 0302 	and.w	r3, r3, #2
 8003fc0:	2b00      	cmp	r3, #0
 8003fc2:	d020      	beq.n	8004006 <HAL_TIM_IRQHandler+0x64>
 8003fc4:	68fb      	ldr	r3, [r7, #12]
 8003fc6:	f003 0302 	and.w	r3, r3, #2
 8003fca:	2b00      	cmp	r3, #0
 8003fcc:	d01b      	beq.n	8004006 <HAL_TIM_IRQHandler+0x64>
 8003fce:	687b      	ldr	r3, [r7, #4]
 8003fd0:	681b      	ldr	r3, [r3, #0]
 8003fd2:	f06f 0202 	mvn.w	r2, #2
 8003fd6:	611a      	str	r2, [r3, #16]
 8003fd8:	687b      	ldr	r3, [r7, #4]
 8003fda:	2201      	movs	r2, #1
 8003fdc:	771a      	strb	r2, [r3, #28]
 8003fde:	687b      	ldr	r3, [r7, #4]
 8003fe0:	681b      	ldr	r3, [r3, #0]
 8003fe2:	699b      	ldr	r3, [r3, #24]
 8003fe4:	f003 0303 	and.w	r3, r3, #3
 8003fe8:	2b00      	cmp	r3, #0
 8003fea:	d003      	beq.n	8003ff4 <HAL_TIM_IRQHandler+0x52>
 8003fec:	6878      	ldr	r0, [r7, #4]
 8003fee:	f000 f9b7 	bl	8004360 <HAL_TIM_IC_CaptureCallback>
 8003ff2:	e005      	b.n	8004000 <HAL_TIM_IRQHandler+0x5e>
 8003ff4:	6878      	ldr	r0, [r7, #4]
 8003ff6:	f000 f9a9 	bl	800434c <HAL_TIM_OC_DelayElapsedCallback>
 8003ffa:	6878      	ldr	r0, [r7, #4]
 8003ffc:	f000 f9ba 	bl	8004374 <HAL_TIM_PWM_PulseFinishedCallback>
 8004000:	687b      	ldr	r3, [r7, #4]
 8004002:	2200      	movs	r2, #0
 8004004:	771a      	strb	r2, [r3, #28]
 8004006:	68bb      	ldr	r3, [r7, #8]
 8004008:	f003 0304 	and.w	r3, r3, #4
 800400c:	2b00      	cmp	r3, #0
 800400e:	d020      	beq.n	8004052 <HAL_TIM_IRQHandler+0xb0>
 8004010:	68fb      	ldr	r3, [r7, #12]
 8004012:	f003 0304 	and.w	r3, r3, #4
 8004016:	2b00      	cmp	r3, #0
 8004018:	d01b      	beq.n	8004052 <HAL_TIM_IRQHandler+0xb0>
 800401a:	687b      	ldr	r3, [r7, #4]
 800401c:	681b      	ldr	r3, [r3, #0]
 800401e:	f06f 0204 	mvn.w	r2, #4
 8004022:	611a      	str	r2, [r3, #16]
 8004024:	687b      	ldr	r3, [r7, #4]
 8004026:	2202      	movs	r2, #2
 8004028:	771a      	strb	r2, [r3, #28]
 800402a:	687b      	ldr	r3, [r7, #4]
 800402c:	681b      	ldr	r3, [r3, #0]
 800402e:	699b      	ldr	r3, [r3, #24]
 8004030:	f403 7340 	and.w	r3, r3, #768	; 0x300
 8004034:	2b00      	cmp	r3, #0
 8004036:	d003      	beq.n	8004040 <HAL_TIM_IRQHandler+0x9e>
 8004038:	6878      	ldr	r0, [r7, #4]
 800403a:	f000 f991 	bl	8004360 <HAL_TIM_IC_CaptureCallback>
 800403e:	e005      	b.n	800404c <HAL_TIM_IRQHandler+0xaa>
 8004040:	6878      	ldr	r0, [r7, #4]
 8004042:	f000 f983 	bl	800434c <HAL_TIM_OC_DelayElapsedCallback>
 8004046:	6878      	ldr	r0, [r7, #4]
 8004048:	f000 f994 	bl	8004374 <HAL_TIM_PWM_PulseFinishedCallback>
 800404c:	687b      	ldr	r3, [r7, #4]
 800404e:	2200      	movs	r2, #0
 8004050:	771a      	strb	r2, [r3, #28]
 8004052:	68bb      	ldr	r3, [r7, #8]
 8004054:	f003 0308 	and.w	r3, r3, #8
 8004058:	2b00      	cmp	r3, #0
 800405a:	d020      	beq.n	800409e <HAL_TIM_IRQHandler+0xfc>
 800405c:	68fb      	ldr	r3, [r7, #12]
 800405e:	f003 0308 	and.w	r3, r3, #8
 8004062:	2b00      	cmp	r3, #0
 8004064:	d01b      	beq.n	800409e <HAL_TIM_IRQHandler+0xfc>
 8004066:	687b      	ldr	r3, [r7, #4]
 8004068:	681b      	ldr	r3, [r3, #0]
 800406a:	f06f 0208 	mvn.w	r2, #8
 800406e:	611a      	str	r2, [r3, #16]
 8004070:	687b      	ldr	r3, [r7, #4]
 8004072:	2204      	movs	r2, #4
 8004074:	771a      	strb	r2, [r3, #28]
 8004076:	687b      	ldr	r3, [r7, #4]
 8004078:	681b      	ldr	r3, [r3, #0]
 800407a:	69db      	ldr	r3, [r3, #28]
 800407c:	f003 0303 	and.w	r3, r3, #3
 8004080:	2b00      	cmp	r3, #0
 8004082:	d003      	beq.n	800408c <HAL_TIM_IRQHandler+0xea>
 8004084:	6878      	ldr	r0, [r7, #4]
 8004086:	f000 f96b 	bl	8004360 <HAL_TIM_IC_CaptureCallback>
 800408a:	e005      	b.n	8004098 <HAL_TIM_IRQHandler+0xf6>
 800408c:	6878      	ldr	r0, [r7, #4]
 800408e:	f000 f95d 	bl	800434c <HAL_TIM_OC_DelayElapsedCallback>
 8004092:	6878      	ldr	r0, [r7, #4]
 8004094:	f000 f96e 	bl	8004374 <HAL_TIM_PWM_PulseFinishedCallback>
 8004098:	687b      	ldr	r3, [r7, #4]
 800409a:	2200      	movs	r2, #0
 800409c:	771a      	strb	r2, [r3, #28]
 800409e:	68bb      	ldr	r3, [r7, #8]
 80040a0:	f003 0310 	and.w	r3, r3, #16
 80040a4:	2b00      	cmp	r3, #0
 80040a6:	d020      	beq.n	80040ea <HAL_TIM_IRQHandler+0x148>
 80040a8:	68fb      	ldr	r3, [r7, #12]
 80040aa:	f003 0310 	and.w	r3, r3, #16
 80040ae:	2b00      	cmp	r3, #0
 80040b0:	d01b      	beq.n	80040ea <HAL_TIM_IRQHandler+0x148>
 80040b2:	687b      	ldr	r3, [r7, #4]
 80040b4:	681b      	ldr	r3, [r3, #0]
 80040b6:	f06f 0210 	mvn.w	r2, #16
 80040ba:	611a      	str	r2, [r3, #16]
 80040bc:	687b      	ldr	r3, [r7, #4]
 80040be:	2208      	movs	r2, #8
 80040c0:	771a      	strb	r2, [r3, #28]
 80040c2:	687b      	ldr	r3, [r7, #4]
 80040c4:	681b      	ldr	r3, [r3, #0]
 80040c6:	69db      	ldr	r3, [r3, #28]
 80040c8:	f403 7340 	and.w	r3, r3, #768	; 0x300
 80040cc:	2b00      	cmp	r3, #0
 80040ce:	d003      	beq.n	80040d8 <HAL_TIM_IRQHandler+0x136>
 80040d0:	6878      	ldr	r0, [r7, #4]
 80040d2:	f000 f945 	bl	8004360 <HAL_TIM_IC_CaptureCallback>
 80040d6:	e005      	b.n	80040e4 <HAL_TIM_IRQHandler+0x142>
 80040d8:	6878      	ldr	r0, [r7, #4]
 80040da:	f000 f937 	bl	800434c <HAL_TIM_OC_DelayElapsedCallback>
 80040de:	6878      	ldr	r0, [r7, #4]
 80040e0:	f000 f948 	bl	8004374 <HAL_TIM_PWM_PulseFinishedCallback>
 80040e4:	687b      	ldr	r3, [r7, #4]
 80040e6:	2200      	movs	r2, #0
 80040e8:	771a      	strb	r2, [r3, #28]
 80040ea:	68bb      	ldr	r3, [r7, #8]
 80040ec:	f003 0301 	and.w	r3, r3, #1
 80040f0:	2b00      	cmp	r3, #0
 80040f2:	d00c      	beq.n	800410e <HAL_TIM_IRQHandler+0x16c>
 80040f4:	68fb      	ldr	r3, [r7, #12]
 80040f6:	f003 0301 	and.w	r3, r3, #1
 80040fa:	2b00      	cmp	r3, #0
 80040fc:	d007      	beq.n	800410e <HAL_TIM_IRQHandler+0x16c>
 80040fe:	687b      	ldr	r3, [r7, #4]
 8004100:	681b      	ldr	r3, [r3, #0]
 8004102:	f06f 0201 	mvn.w	r2, #1
 8004106:	611a      	str	r2, [r3, #16]
 8004108:	6878      	ldr	r0, [r7, #4]
 800410a:	f000 f915 	bl	8004338 <HAL_TIM_PeriodElapsedCallback>
 800410e:	68bb      	ldr	r3, [r7, #8]
 8004110:	f003 0380 	and.w	r3, r3, #128	; 0x80
 8004114:	2b00      	cmp	r3, #0
 8004116:	d00c      	beq.n	8004132 <HAL_TIM_IRQHandler+0x190>
 8004118:	68fb      	ldr	r3, [r7, #12]
 800411a:	f003 0380 	and.w	r3, r3, #128	; 0x80
 800411e:	2b00      	cmp	r3, #0
 8004120:	d007      	beq.n	8004132 <HAL_TIM_IRQHandler+0x190>
 8004122:	687b      	ldr	r3, [r7, #4]
 8004124:	681b      	ldr	r3, [r3, #0]
 8004126:	f06f 0280 	mvn.w	r2, #128	; 0x80
 800412a:	611a      	str	r2, [r3, #16]
 800412c:	6878      	ldr	r0, [r7, #4]
 800412e:	f000 fab5 	bl	800469c <HAL_TIMEx_BreakCallback>
 8004132:	68bb      	ldr	r3, [r7, #8]
 8004134:	f403 7380 	and.w	r3, r3, #256	; 0x100
 8004138:	2b00      	cmp	r3, #0
 800413a:	d00c      	beq.n	8004156 <HAL_TIM_IRQHandler+0x1b4>
 800413c:	68fb      	ldr	r3, [r7, #12]
 800413e:	f003 0380 	and.w	r3, r3, #128	; 0x80
 8004142:	2b00      	cmp	r3, #0
 8004144:	d007      	beq.n	8004156 <HAL_TIM_IRQHandler+0x1b4>
 8004146:	687b      	ldr	r3, [r7, #4]
 8004148:	681b      	ldr	r3, [r3, #0]
 800414a:	f46f 7280 	mvn.w	r2, #256	; 0x100
 800414e:	611a      	str	r2, [r3, #16]
 8004150:	6878      	ldr	r0, [r7, #4]
 8004152:	f000 faad 	bl	80046b0 <HAL_TIMEx_Break2Callback>
 8004156:	68bb      	ldr	r3, [r7, #8]
 8004158:	f003 0340 	and.w	r3, r3, #64	; 0x40
 800415c:	2b00      	cmp	r3, #0
 800415e:	d00c      	beq.n	800417a <HAL_TIM_IRQHandler+0x1d8>
 8004160:	68fb      	ldr	r3, [r7, #12]
 8004162:	f003 0340 	and.w	r3, r3, #64	; 0x40
 8004166:	2b00      	cmp	r3, #0
 8004168:	d007      	beq.n	800417a <HAL_TIM_IRQHandler+0x1d8>
 800416a:	687b      	ldr	r3, [r7, #4]
 800416c:	681b      	ldr	r3, [r3, #0]
 800416e:	f06f 0240 	mvn.w	r2, #64	; 0x40
 8004172:	611a      	str	r2, [r3, #16]
 8004174:	6878      	ldr	r0, [r7, #4]
 8004176:	f000 f907 	bl	8004388 <HAL_TIM_TriggerCallback>
 800417a:	68bb      	ldr	r3, [r7, #8]
 800417c:	f003 0320 	and.w	r3, r3, #32
 8004180:	2b00      	cmp	r3, #0
 8004182:	d00c      	beq.n	800419e <HAL_TIM_IRQHandler+0x1fc>
 8004184:	68fb      	ldr	r3, [r7, #12]
 8004186:	f003 0320 	and.w	r3, r3, #32
 800418a:	2b00      	cmp	r3, #0
 800418c:	d007      	beq.n	800419e <HAL_TIM_IRQHandler+0x1fc>
 800418e:	687b      	ldr	r3, [r7, #4]
 8004190:	681b      	ldr	r3, [r3, #0]
 8004192:	f06f 0220 	mvn.w	r2, #32
 8004196:	611a      	str	r2, [r3, #16]
 8004198:	6878      	ldr	r0, [r7, #4]
 800419a:	f000 fa75 	bl	8004688 <HAL_TIMEx_CommutCallback>
 800419e:	bf00      	nop
 80041a0:	3710      	adds	r7, #16
 80041a2:	46bd      	mov	sp, r7
 80041a4:	bd80      	pop	{r7, pc}

080041a6 <HAL_TIM_ConfigClockSource>:
 80041a6:	b580      	push	{r7, lr}
 80041a8:	b084      	sub	sp, #16
 80041aa:	af00      	add	r7, sp, #0
 80041ac:	6078      	str	r0, [r7, #4]
 80041ae:	6039      	str	r1, [r7, #0]
 80041b0:	2300      	movs	r3, #0
 80041b2:	73fb      	strb	r3, [r7, #15]
 80041b4:	687b      	ldr	r3, [r7, #4]
 80041b6:	f893 303c 	ldrb.w	r3, [r3, #60]	; 0x3c
 80041ba:	2b01      	cmp	r3, #1
 80041bc:	d101      	bne.n	80041c2 <HAL_TIM_ConfigClockSource+0x1c>
 80041be:	2302      	movs	r3, #2
 80041c0:	e0b6      	b.n	8004330 <HAL_TIM_ConfigClockSource+0x18a>
 80041c2:	687b      	ldr	r3, [r7, #4]
 80041c4:	2201      	movs	r2, #1
 80041c6:	f883 203c 	strb.w	r2, [r3, #60]	; 0x3c
 80041ca:	687b      	ldr	r3, [r7, #4]
 80041cc:	2202      	movs	r2, #2
 80041ce:	f883 203d 	strb.w	r2, [r3, #61]	; 0x3d
 80041d2:	687b      	ldr	r3, [r7, #4]
 80041d4:	681b      	ldr	r3, [r3, #0]
 80041d6:	689b      	ldr	r3, [r3, #8]
 80041d8:	60bb      	str	r3, [r7, #8]
 80041da:	68bb      	ldr	r3, [r7, #8]
 80041dc:	f423 3380 	bic.w	r3, r3, #65536	; 0x10000
 80041e0:	f023 0377 	bic.w	r3, r3, #119	; 0x77
 80041e4:	60bb      	str	r3, [r7, #8]
 80041e6:	68bb      	ldr	r3, [r7, #8]
 80041e8:	f423 437f 	bic.w	r3, r3, #65280	; 0xff00
 80041ec:	60bb      	str	r3, [r7, #8]
 80041ee:	687b      	ldr	r3, [r7, #4]
 80041f0:	681b      	ldr	r3, [r3, #0]
 80041f2:	68ba      	ldr	r2, [r7, #8]
 80041f4:	609a      	str	r2, [r3, #8]
 80041f6:	683b      	ldr	r3, [r7, #0]
 80041f8:	681b      	ldr	r3, [r3, #0]
 80041fa:	f5b3 5f00 	cmp.w	r3, #8192	; 0x2000
 80041fe:	d03e      	beq.n	800427e <HAL_TIM_ConfigClockSource+0xd8>
 8004200:	f5b3 5f00 	cmp.w	r3, #8192	; 0x2000
 8004204:	f200 8087 	bhi.w	8004316 <HAL_TIM_ConfigClockSource+0x170>
 8004208:	f5b3 5f80 	cmp.w	r3, #4096	; 0x1000
 800420c:	f000 8086 	beq.w	800431c <HAL_TIM_ConfigClockSource+0x176>
 8004210:	f5b3 5f80 	cmp.w	r3, #4096	; 0x1000
 8004214:	d87f      	bhi.n	8004316 <HAL_TIM_ConfigClockSource+0x170>
 8004216:	2b70      	cmp	r3, #112	; 0x70
 8004218:	d01a      	beq.n	8004250 <HAL_TIM_ConfigClockSource+0xaa>
 800421a:	2b70      	cmp	r3, #112	; 0x70
 800421c:	d87b      	bhi.n	8004316 <HAL_TIM_ConfigClockSource+0x170>
 800421e:	2b60      	cmp	r3, #96	; 0x60
 8004220:	d050      	beq.n	80042c4 <HAL_TIM_ConfigClockSource+0x11e>
 8004222:	2b60      	cmp	r3, #96	; 0x60
 8004224:	d877      	bhi.n	8004316 <HAL_TIM_ConfigClockSource+0x170>
 8004226:	2b50      	cmp	r3, #80	; 0x50
 8004228:	d03c      	beq.n	80042a4 <HAL_TIM_ConfigClockSource+0xfe>
 800422a:	2b50      	cmp	r3, #80	; 0x50
 800422c:	d873      	bhi.n	8004316 <HAL_TIM_ConfigClockSource+0x170>
 800422e:	2b40      	cmp	r3, #64	; 0x40
 8004230:	d058      	beq.n	80042e4 <HAL_TIM_ConfigClockSource+0x13e>
 8004232:	2b40      	cmp	r3, #64	; 0x40
 8004234:	d86f      	bhi.n	8004316 <HAL_TIM_ConfigClockSource+0x170>
 8004236:	2b30      	cmp	r3, #48	; 0x30
 8004238:	d064      	beq.n	8004304 <HAL_TIM_ConfigClockSource+0x15e>
 800423a:	2b30      	cmp	r3, #48	; 0x30
 800423c:	d86b      	bhi.n	8004316 <HAL_TIM_ConfigClockSource+0x170>
 800423e:	2b20      	cmp	r3, #32
 8004240:	d060      	beq.n	8004304 <HAL_TIM_ConfigClockSource+0x15e>
 8004242:	2b20      	cmp	r3, #32
 8004244:	d867      	bhi.n	8004316 <HAL_TIM_ConfigClockSource+0x170>
 8004246:	2b00      	cmp	r3, #0
 8004248:	d05c      	beq.n	8004304 <HAL_TIM_ConfigClockSource+0x15e>
 800424a:	2b10      	cmp	r3, #16
 800424c:	d05a      	beq.n	8004304 <HAL_TIM_ConfigClockSource+0x15e>
 800424e:	e062      	b.n	8004316 <HAL_TIM_ConfigClockSource+0x170>
 8004250:	687b      	ldr	r3, [r7, #4]
 8004252:	6818      	ldr	r0, [r3, #0]
 8004254:	683b      	ldr	r3, [r7, #0]
 8004256:	6899      	ldr	r1, [r3, #8]
 8004258:	683b      	ldr	r3, [r7, #0]
 800425a:	685a      	ldr	r2, [r3, #4]
 800425c:	683b      	ldr	r3, [r7, #0]
 800425e:	68db      	ldr	r3, [r3, #12]
 8004260:	f000 f984 	bl	800456c <TIM_ETR_SetConfig>
 8004264:	687b      	ldr	r3, [r7, #4]
 8004266:	681b      	ldr	r3, [r3, #0]
 8004268:	689b      	ldr	r3, [r3, #8]
 800426a:	60bb      	str	r3, [r7, #8]
 800426c:	68bb      	ldr	r3, [r7, #8]
 800426e:	f043 0377 	orr.w	r3, r3, #119	; 0x77
 8004272:	60bb      	str	r3, [r7, #8]
 8004274:	687b      	ldr	r3, [r7, #4]
 8004276:	681b      	ldr	r3, [r3, #0]
 8004278:	68ba      	ldr	r2, [r7, #8]
 800427a:	609a      	str	r2, [r3, #8]
 800427c:	e04f      	b.n	800431e <HAL_TIM_ConfigClockSource+0x178>
 800427e:	687b      	ldr	r3, [r7, #4]
 8004280:	6818      	ldr	r0, [r3, #0]
 8004282:	683b      	ldr	r3, [r7, #0]
 8004284:	6899      	ldr	r1, [r3, #8]
 8004286:	683b      	ldr	r3, [r7, #0]
 8004288:	685a      	ldr	r2, [r3, #4]
 800428a:	683b      	ldr	r3, [r7, #0]
 800428c:	68db      	ldr	r3, [r3, #12]
 800428e:	f000 f96d 	bl	800456c <TIM_ETR_SetConfig>
 8004292:	687b      	ldr	r3, [r7, #4]
 8004294:	681b      	ldr	r3, [r3, #0]
 8004296:	689a      	ldr	r2, [r3, #8]
 8004298:	687b      	ldr	r3, [r7, #4]
 800429a:	681b      	ldr	r3, [r3, #0]
 800429c:	f442 4280 	orr.w	r2, r2, #16384	; 0x4000
 80042a0:	609a      	str	r2, [r3, #8]
 80042a2:	e03c      	b.n	800431e <HAL_TIM_ConfigClockSource+0x178>
 80042a4:	687b      	ldr	r3, [r7, #4]
 80042a6:	6818      	ldr	r0, [r3, #0]
 80042a8:	683b      	ldr	r3, [r7, #0]
 80042aa:	6859      	ldr	r1, [r3, #4]
 80042ac:	683b      	ldr	r3, [r7, #0]
 80042ae:	68db      	ldr	r3, [r3, #12]
 80042b0:	461a      	mov	r2, r3
 80042b2:	f000 f8e1 	bl	8004478 <TIM_TI1_ConfigInputStage>
 80042b6:	687b      	ldr	r3, [r7, #4]
 80042b8:	681b      	ldr	r3, [r3, #0]
 80042ba:	2150      	movs	r1, #80	; 0x50
 80042bc:	4618      	mov	r0, r3
 80042be:	f000 f93a 	bl	8004536 <TIM_ITRx_SetConfig>
 80042c2:	e02c      	b.n	800431e <HAL_TIM_ConfigClockSource+0x178>
 80042c4:	687b      	ldr	r3, [r7, #4]
 80042c6:	6818      	ldr	r0, [r3, #0]
 80042c8:	683b      	ldr	r3, [r7, #0]
 80042ca:	6859      	ldr	r1, [r3, #4]
 80042cc:	683b      	ldr	r3, [r7, #0]
 80042ce:	68db      	ldr	r3, [r3, #12]
 80042d0:	461a      	mov	r2, r3
 80042d2:	f000 f900 	bl	80044d6 <TIM_TI2_ConfigInputStage>
 80042d6:	687b      	ldr	r3, [r7, #4]
 80042d8:	681b      	ldr	r3, [r3, #0]
 80042da:	2160      	movs	r1, #96	; 0x60
 80042dc:	4618      	mov	r0, r3
 80042de:	f000 f92a 	bl	8004536 <TIM_ITRx_SetConfig>
 80042e2:	e01c      	b.n	800431e <HAL_TIM_ConfigClockSource+0x178>
 80042e4:	687b      	ldr	r3, [r7, #4]
 80042e6:	6818      	ldr	r0, [r3, #0]
 80042e8:	683b      	ldr	r3, [r7, #0]
 80042ea:	6859      	ldr	r1, [r3, #4]
 80042ec:	683b      	ldr	r3, [r7, #0]
 80042ee:	68db      	ldr	r3, [r3, #12]
 80042f0:	461a      	mov	r2, r3
 80042f2:	f000 f8c1 	bl	8004478 <TIM_TI1_ConfigInputStage>
 80042f6:	687b      	ldr	r3, [r7, #4]
 80042f8:	681b      	ldr	r3, [r3, #0]
 80042fa:	2140      	movs	r1, #64	; 0x40
 80042fc:	4618      	mov	r0, r3
 80042fe:	f000 f91a 	bl	8004536 <TIM_ITRx_SetConfig>
 8004302:	e00c      	b.n	800431e <HAL_TIM_ConfigClockSource+0x178>
 8004304:	687b      	ldr	r3, [r7, #4]
 8004306:	681a      	ldr	r2, [r3, #0]
 8004308:	683b      	ldr	r3, [r7, #0]
 800430a:	681b      	ldr	r3, [r3, #0]
 800430c:	4619      	mov	r1, r3
 800430e:	4610      	mov	r0, r2
 8004310:	f000 f911 	bl	8004536 <TIM_ITRx_SetConfig>
 8004314:	e003      	b.n	800431e <HAL_TIM_ConfigClockSource+0x178>
 8004316:	2301      	movs	r3, #1
 8004318:	73fb      	strb	r3, [r7, #15]
 800431a:	e000      	b.n	800431e <HAL_TIM_ConfigClockSource+0x178>
 800431c:	bf00      	nop
 800431e:	687b      	ldr	r3, [r7, #4]
 8004320:	2201      	movs	r2, #1
 8004322:	f883 203d 	strb.w	r2, [r3, #61]	; 0x3d
 8004326:	687b      	ldr	r3, [r7, #4]
 8004328:	2200      	movs	r2, #0
 800432a:	f883 203c 	strb.w	r2, [r3, #60]	; 0x3c
 800432e:	7bfb      	ldrb	r3, [r7, #15]
 8004330:	4618      	mov	r0, r3
 8004332:	3710      	adds	r7, #16
 8004334:	46bd      	mov	sp, r7
 8004336:	bd80      	pop	{r7, pc}

08004338 <HAL_TIM_PeriodElapsedCallback>:
 8004338:	b480      	push	{r7}
 800433a:	b083      	sub	sp, #12
 800433c:	af00      	add	r7, sp, #0
 800433e:	6078      	str	r0, [r7, #4]
 8004340:	bf00      	nop
 8004342:	370c      	adds	r7, #12
 8004344:	46bd      	mov	sp, r7
 8004346:	f85d 7b04 	ldr.w	r7, [sp], #4
 800434a:	4770      	bx	lr

0800434c <HAL_TIM_OC_DelayElapsedCallback>:
 800434c:	b480      	push	{r7}
 800434e:	b083      	sub	sp, #12
 8004350:	af00      	add	r7, sp, #0
 8004352:	6078      	str	r0, [r7, #4]
 8004354:	bf00      	nop
 8004356:	370c      	adds	r7, #12
 8004358:	46bd      	mov	sp, r7
 800435a:	f85d 7b04 	ldr.w	r7, [sp], #4
 800435e:	4770      	bx	lr

08004360 <HAL_TIM_IC_CaptureCallback>:
 8004360:	b480      	push	{r7}
 8004362:	b083      	sub	sp, #12
 8004364:	af00      	add	r7, sp, #0
 8004366:	6078      	str	r0, [r7, #4]
 8004368:	bf00      	nop
 800436a:	370c      	adds	r7, #12
 800436c:	46bd      	mov	sp, r7
 800436e:	f85d 7b04 	ldr.w	r7, [sp], #4
 8004372:	4770      	bx	lr

08004374 <HAL_TIM_PWM_PulseFinishedCallback>:
 8004374:	b480      	push	{r7}
 8004376:	b083      	sub	sp, #12
 8004378:	af00      	add	r7, sp, #0
 800437a:	6078      	str	r0, [r7, #4]
 800437c:	bf00      	nop
 800437e:	370c      	adds	r7, #12
 8004380:	46bd      	mov	sp, r7
 8004382:	f85d 7b04 	ldr.w	r7, [sp], #4
 8004386:	4770      	bx	lr

08004388 <HAL_TIM_TriggerCallback>:
 8004388:	b480      	push	{r7}
 800438a:	b083      	sub	sp, #12
 800438c:	af00      	add	r7, sp, #0
 800438e:	6078      	str	r0, [r7, #4]
 8004390:	bf00      	nop
 8004392:	370c      	adds	r7, #12
 8004394:	46bd      	mov	sp, r7
 8004396:	f85d 7b04 	ldr.w	r7, [sp], #4
 800439a:	4770      	bx	lr

0800439c <TIM_Base_SetConfig>:
 800439c:	b480      	push	{r7}
 800439e:	b085      	sub	sp, #20
 80043a0:	af00      	add	r7, sp, #0
 80043a2:	6078      	str	r0, [r7, #4]
 80043a4:	6039      	str	r1, [r7, #0]
 80043a6:	687b      	ldr	r3, [r7, #4]
 80043a8:	681b      	ldr	r3, [r3, #0]
 80043aa:	60fb      	str	r3, [r7, #12]
 80043ac:	687b      	ldr	r3, [r7, #4]
 80043ae:	4a2e      	ldr	r2, [pc, #184]	; (8004468 <TIM_Base_SetConfig+0xcc>)
 80043b0:	4293      	cmp	r3, r2
 80043b2:	d007      	beq.n	80043c4 <TIM_Base_SetConfig+0x28>
 80043b4:	687b      	ldr	r3, [r7, #4]
 80043b6:	f1b3 4f80 	cmp.w	r3, #1073741824	; 0x40000000
 80043ba:	d003      	beq.n	80043c4 <TIM_Base_SetConfig+0x28>
 80043bc:	687b      	ldr	r3, [r7, #4]
 80043be:	4a2b      	ldr	r2, [pc, #172]	; (800446c <TIM_Base_SetConfig+0xd0>)
 80043c0:	4293      	cmp	r3, r2
 80043c2:	d108      	bne.n	80043d6 <TIM_Base_SetConfig+0x3a>
 80043c4:	68fb      	ldr	r3, [r7, #12]
 80043c6:	f023 0370 	bic.w	r3, r3, #112	; 0x70
 80043ca:	60fb      	str	r3, [r7, #12]
 80043cc:	683b      	ldr	r3, [r7, #0]
 80043ce:	685b      	ldr	r3, [r3, #4]
 80043d0:	68fa      	ldr	r2, [r7, #12]
 80043d2:	4313      	orrs	r3, r2
 80043d4:	60fb      	str	r3, [r7, #12]
 80043d6:	687b      	ldr	r3, [r7, #4]
 80043d8:	4a23      	ldr	r2, [pc, #140]	; (8004468 <TIM_Base_SetConfig+0xcc>)
 80043da:	4293      	cmp	r3, r2
 80043dc:	d00f      	beq.n	80043fe <TIM_Base_SetConfig+0x62>
 80043de:	687b      	ldr	r3, [r7, #4]
 80043e0:	f1b3 4f80 	cmp.w	r3, #1073741824	; 0x40000000
 80043e4:	d00b      	beq.n	80043fe <TIM_Base_SetConfig+0x62>
 80043e6:	687b      	ldr	r3, [r7, #4]
 80043e8:	4a20      	ldr	r2, [pc, #128]	; (800446c <TIM_Base_SetConfig+0xd0>)
 80043ea:	4293      	cmp	r3, r2
 80043ec:	d007      	beq.n	80043fe <TIM_Base_SetConfig+0x62>
 80043ee:	687b      	ldr	r3, [r7, #4]
 80043f0:	4a1f      	ldr	r2, [pc, #124]	; (8004470 <TIM_Base_SetConfig+0xd4>)
 80043f2:	4293      	cmp	r3, r2
 80043f4:	d003      	beq.n	80043fe <TIM_Base_SetConfig+0x62>
 80043f6:	687b      	ldr	r3, [r7, #4]
 80043f8:	4a1e      	ldr	r2, [pc, #120]	; (8004474 <TIM_Base_SetConfig+0xd8>)
 80043fa:	4293      	cmp	r3, r2
 80043fc:	d108      	bne.n	8004410 <TIM_Base_SetConfig+0x74>
 80043fe:	68fb      	ldr	r3, [r7, #12]
 8004400:	f423 7340 	bic.w	r3, r3, #768	; 0x300
 8004404:	60fb      	str	r3, [r7, #12]
 8004406:	683b      	ldr	r3, [r7, #0]
 8004408:	68db      	ldr	r3, [r3, #12]
 800440a:	68fa      	ldr	r2, [r7, #12]
 800440c:	4313      	orrs	r3, r2
 800440e:	60fb      	str	r3, [r7, #12]
 8004410:	68fb      	ldr	r3, [r7, #12]
 8004412:	f023 0280 	bic.w	r2, r3, #128	; 0x80
 8004416:	683b      	ldr	r3, [r7, #0]
 8004418:	695b      	ldr	r3, [r3, #20]
 800441a:	4313      	orrs	r3, r2
 800441c:	60fb      	str	r3, [r7, #12]
 800441e:	687b      	ldr	r3, [r7, #4]
 8004420:	68fa      	ldr	r2, [r7, #12]
 8004422:	601a      	str	r2, [r3, #0]
 8004424:	683b      	ldr	r3, [r7, #0]
 8004426:	689a      	ldr	r2, [r3, #8]
 8004428:	687b      	ldr	r3, [r7, #4]
 800442a:	62da      	str	r2, [r3, #44]	; 0x2c
 800442c:	683b      	ldr	r3, [r7, #0]
 800442e:	681a      	ldr	r2, [r3, #0]
 8004430:	687b      	ldr	r3, [r7, #4]
 8004432:	629a      	str	r2, [r3, #40]	; 0x28
 8004434:	687b      	ldr	r3, [r7, #4]
 8004436:	4a0c      	ldr	r2, [pc, #48]	; (8004468 <TIM_Base_SetConfig+0xcc>)
 8004438:	4293      	cmp	r3, r2
 800443a:	d007      	beq.n	800444c <TIM_Base_SetConfig+0xb0>
 800443c:	687b      	ldr	r3, [r7, #4]
 800443e:	4a0c      	ldr	r2, [pc, #48]	; (8004470 <TIM_Base_SetConfig+0xd4>)
 8004440:	4293      	cmp	r3, r2
 8004442:	d003      	beq.n	800444c <TIM_Base_SetConfig+0xb0>
 8004444:	687b      	ldr	r3, [r7, #4]
 8004446:	4a0b      	ldr	r2, [pc, #44]	; (8004474 <TIM_Base_SetConfig+0xd8>)
 8004448:	4293      	cmp	r3, r2
 800444a:	d103      	bne.n	8004454 <TIM_Base_SetConfig+0xb8>
 800444c:	683b      	ldr	r3, [r7, #0]
 800444e:	691a      	ldr	r2, [r3, #16]
 8004450:	687b      	ldr	r3, [r7, #4]
 8004452:	631a      	str	r2, [r3, #48]	; 0x30
 8004454:	687b      	ldr	r3, [r7, #4]
 8004456:	2201      	movs	r2, #1
 8004458:	615a      	str	r2, [r3, #20]
 800445a:	bf00      	nop
 800445c:	3714      	adds	r7, #20
 800445e:	46bd      	mov	sp, r7
 8004460:	f85d 7b04 	ldr.w	r7, [sp], #4
 8004464:	4770      	bx	lr
 8004466:	bf00      	nop
 8004468:	40012c00 	.word	0x40012c00
 800446c:	40000400 	.word	0x40000400
 8004470:	40014000 	.word	0x40014000
 8004474:	40014400 	.word	0x40014400

08004478 <TIM_TI1_ConfigInputStage>:
 8004478:	b480      	push	{r7}
 800447a:	b087      	sub	sp, #28
 800447c:	af00      	add	r7, sp, #0
 800447e:	60f8      	str	r0, [r7, #12]
 8004480:	60b9      	str	r1, [r7, #8]
 8004482:	607a      	str	r2, [r7, #4]
 8004484:	68fb      	ldr	r3, [r7, #12]
 8004486:	6a1b      	ldr	r3, [r3, #32]
 8004488:	617b      	str	r3, [r7, #20]
 800448a:	68fb      	ldr	r3, [r7, #12]
 800448c:	6a1b      	ldr	r3, [r3, #32]
 800448e:	f023 0201 	bic.w	r2, r3, #1
 8004492:	68fb      	ldr	r3, [r7, #12]
 8004494:	621a      	str	r2, [r3, #32]
 8004496:	68fb      	ldr	r3, [r7, #12]
 8004498:	699b      	ldr	r3, [r3, #24]
 800449a:	613b      	str	r3, [r7, #16]
 800449c:	693b      	ldr	r3, [r7, #16]
 800449e:	f023 03f0 	bic.w	r3, r3, #240	; 0xf0
 80044a2:	613b      	str	r3, [r7, #16]
 80044a4:	687b      	ldr	r3, [r7, #4]
 80044a6:	011b      	lsls	r3, r3, #4
 80044a8:	693a      	ldr	r2, [r7, #16]
 80044aa:	4313      	orrs	r3, r2
 80044ac:	613b      	str	r3, [r7, #16]
 80044ae:	697b      	ldr	r3, [r7, #20]
 80044b0:	f023 030a 	bic.w	r3, r3, #10
 80044b4:	617b      	str	r3, [r7, #20]
 80044b6:	697a      	ldr	r2, [r7, #20]
 80044b8:	68bb      	ldr	r3, [r7, #8]
 80044ba:	4313      	orrs	r3, r2
 80044bc:	617b      	str	r3, [r7, #20]
 80044be:	68fb      	ldr	r3, [r7, #12]
 80044c0:	693a      	ldr	r2, [r7, #16]
 80044c2:	619a      	str	r2, [r3, #24]
 80044c4:	68fb      	ldr	r3, [r7, #12]
 80044c6:	697a      	ldr	r2, [r7, #20]
 80044c8:	621a      	str	r2, [r3, #32]
 80044ca:	bf00      	nop
 80044cc:	371c      	adds	r7, #28
 80044ce:	46bd      	mov	sp, r7
 80044d0:	f85d 7b04 	ldr.w	r7, [sp], #4
 80044d4:	4770      	bx	lr

080044d6 <TIM_TI2_ConfigInputStage>:
 80044d6:	b480      	push	{r7}
 80044d8:	b087      	sub	sp, #28
 80044da:	af00      	add	r7, sp, #0
 80044dc:	60f8      	str	r0, [r7, #12]
 80044de:	60b9      	str	r1, [r7, #8]
 80044e0:	607a      	str	r2, [r7, #4]
 80044e2:	68fb      	ldr	r3, [r7, #12]
 80044e4:	6a1b      	ldr	r3, [r3, #32]
 80044e6:	617b      	str	r3, [r7, #20]
 80044e8:	68fb      	ldr	r3, [r7, #12]
 80044ea:	6a1b      	ldr	r3, [r3, #32]
 80044ec:	f023 0210 	bic.w	r2, r3, #16
 80044f0:	68fb      	ldr	r3, [r7, #12]
 80044f2:	621a      	str	r2, [r3, #32]
 80044f4:	68fb      	ldr	r3, [r7, #12]
 80044f6:	699b      	ldr	r3, [r3, #24]
 80044f8:	613b      	str	r3, [r7, #16]
 80044fa:	693b      	ldr	r3, [r7, #16]
 80044fc:	f423 4370 	bic.w	r3, r3, #61440	; 0xf000
 8004500:	613b      	str	r3, [r7, #16]
 8004502:	687b      	ldr	r3, [r7, #4]
 8004504:	031b      	lsls	r3, r3, #12
 8004506:	693a      	ldr	r2, [r7, #16]
 8004508:	4313      	orrs	r3, r2
 800450a:	613b      	str	r3, [r7, #16]
 800450c:	697b      	ldr	r3, [r7, #20]
 800450e:	f023 03a0 	bic.w	r3, r3, #160	; 0xa0
 8004512:	617b      	str	r3, [r7, #20]
 8004514:	68bb      	ldr	r3, [r7, #8]
 8004516:	011b      	lsls	r3, r3, #4
 8004518:	697a      	ldr	r2, [r7, #20]
 800451a:	4313      	orrs	r3, r2
 800451c:	617b      	str	r3, [r7, #20]
 800451e:	68fb      	ldr	r3, [r7, #12]
 8004520:	693a      	ldr	r2, [r7, #16]
 8004522:	619a      	str	r2, [r3, #24]
 8004524:	68fb      	ldr	r3, [r7, #12]
 8004526:	697a      	ldr	r2, [r7, #20]
 8004528:	621a      	str	r2, [r3, #32]
 800452a:	bf00      	nop
 800452c:	371c      	adds	r7, #28
 800452e:	46bd      	mov	sp, r7
 8004530:	f85d 7b04 	ldr.w	r7, [sp], #4
 8004534:	4770      	bx	lr

08004536 <TIM_ITRx_SetConfig>:
 8004536:	b480      	push	{r7}
 8004538:	b085      	sub	sp, #20
 800453a:	af00      	add	r7, sp, #0
 800453c:	6078      	str	r0, [r7, #4]
 800453e:	6039      	str	r1, [r7, #0]
 8004540:	687b      	ldr	r3, [r7, #4]
 8004542:	689b      	ldr	r3, [r3, #8]
 8004544:	60fb      	str	r3, [r7, #12]
 8004546:	68fb      	ldr	r3, [r7, #12]
 8004548:	f023 0370 	bic.w	r3, r3, #112	; 0x70
 800454c:	60fb      	str	r3, [r7, #12]
 800454e:	683a      	ldr	r2, [r7, #0]
 8004550:	68fb      	ldr	r3, [r7, #12]
 8004552:	4313      	orrs	r3, r2
 8004554:	f043 0307 	orr.w	r3, r3, #7
 8004558:	60fb      	str	r3, [r7, #12]
 800455a:	687b      	ldr	r3, [r7, #4]
 800455c:	68fa      	ldr	r2, [r7, #12]
 800455e:	609a      	str	r2, [r3, #8]
 8004560:	bf00      	nop
 8004562:	3714      	adds	r7, #20
 8004564:	46bd      	mov	sp, r7
 8004566:	f85d 7b04 	ldr.w	r7, [sp], #4
 800456a:	4770      	bx	lr

0800456c <TIM_ETR_SetConfig>:
 800456c:	b480      	push	{r7}
 800456e:	b087      	sub	sp, #28
 8004570:	af00      	add	r7, sp, #0
 8004572:	60f8      	str	r0, [r7, #12]
 8004574:	60b9      	str	r1, [r7, #8]
 8004576:	607a      	str	r2, [r7, #4]
 8004578:	603b      	str	r3, [r7, #0]
 800457a:	68fb      	ldr	r3, [r7, #12]
 800457c:	689b      	ldr	r3, [r3, #8]
 800457e:	617b      	str	r3, [r7, #20]
 8004580:	697b      	ldr	r3, [r7, #20]
 8004582:	f423 437f 	bic.w	r3, r3, #65280	; 0xff00
 8004586:	617b      	str	r3, [r7, #20]
 8004588:	683b      	ldr	r3, [r7, #0]
 800458a:	021a      	lsls	r2, r3, #8
 800458c:	687b      	ldr	r3, [r7, #4]
 800458e:	431a      	orrs	r2, r3
 8004590:	68bb      	ldr	r3, [r7, #8]
 8004592:	4313      	orrs	r3, r2
 8004594:	697a      	ldr	r2, [r7, #20]
 8004596:	4313      	orrs	r3, r2
 8004598:	617b      	str	r3, [r7, #20]
 800459a:	68fb      	ldr	r3, [r7, #12]
 800459c:	697a      	ldr	r2, [r7, #20]
 800459e:	609a      	str	r2, [r3, #8]
 80045a0:	bf00      	nop
 80045a2:	371c      	adds	r7, #28
 80045a4:	46bd      	mov	sp, r7
 80045a6:	f85d 7b04 	ldr.w	r7, [sp], #4
 80045aa:	4770      	bx	lr

080045ac <HAL_TIMEx_MasterConfigSynchronization>:
 80045ac:	b480      	push	{r7}
 80045ae:	b085      	sub	sp, #20
 80045b0:	af00      	add	r7, sp, #0
 80045b2:	6078      	str	r0, [r7, #4]
 80045b4:	6039      	str	r1, [r7, #0]
 80045b6:	687b      	ldr	r3, [r7, #4]
 80045b8:	f893 303c 	ldrb.w	r3, [r3, #60]	; 0x3c
 80045bc:	2b01      	cmp	r3, #1
 80045be:	d101      	bne.n	80045c4 <HAL_TIMEx_MasterConfigSynchronization+0x18>
 80045c0:	2302      	movs	r3, #2
 80045c2:	e054      	b.n	800466e <HAL_TIMEx_MasterConfigSynchronization+0xc2>
 80045c4:	687b      	ldr	r3, [r7, #4]
 80045c6:	2201      	movs	r2, #1
 80045c8:	f883 203c 	strb.w	r2, [r3, #60]	; 0x3c
 80045cc:	687b      	ldr	r3, [r7, #4]
 80045ce:	2202      	movs	r2, #2
 80045d0:	f883 203d 	strb.w	r2, [r3, #61]	; 0x3d
 80045d4:	687b      	ldr	r3, [r7, #4]
 80045d6:	681b      	ldr	r3, [r3, #0]
 80045d8:	685b      	ldr	r3, [r3, #4]
 80045da:	60fb      	str	r3, [r7, #12]
 80045dc:	687b      	ldr	r3, [r7, #4]
 80045de:	681b      	ldr	r3, [r3, #0]
 80045e0:	689b      	ldr	r3, [r3, #8]
 80045e2:	60bb      	str	r3, [r7, #8]
 80045e4:	687b      	ldr	r3, [r7, #4]
 80045e6:	681b      	ldr	r3, [r3, #0]
 80045e8:	4a24      	ldr	r2, [pc, #144]	; (800467c <HAL_TIMEx_MasterConfigSynchronization+0xd0>)
 80045ea:	4293      	cmp	r3, r2
 80045ec:	d108      	bne.n	8004600 <HAL_TIMEx_MasterConfigSynchronization+0x54>
 80045ee:	68fb      	ldr	r3, [r7, #12]
 80045f0:	f423 0370 	bic.w	r3, r3, #15728640	; 0xf00000
 80045f4:	60fb      	str	r3, [r7, #12]
 80045f6:	683b      	ldr	r3, [r7, #0]
 80045f8:	685b      	ldr	r3, [r3, #4]
 80045fa:	68fa      	ldr	r2, [r7, #12]
 80045fc:	4313      	orrs	r3, r2
 80045fe:	60fb      	str	r3, [r7, #12]
 8004600:	68fb      	ldr	r3, [r7, #12]
 8004602:	f023 0370 	bic.w	r3, r3, #112	; 0x70
 8004606:	60fb      	str	r3, [r7, #12]
 8004608:	683b      	ldr	r3, [r7, #0]
 800460a:	681b      	ldr	r3, [r3, #0]
 800460c:	68fa      	ldr	r2, [r7, #12]
 800460e:	4313      	orrs	r3, r2
 8004610:	60fb      	str	r3, [r7, #12]
 8004612:	687b      	ldr	r3, [r7, #4]
 8004614:	681b      	ldr	r3, [r3, #0]
 8004616:	68fa      	ldr	r2, [r7, #12]
 8004618:	605a      	str	r2, [r3, #4]
 800461a:	687b      	ldr	r3, [r7, #4]
 800461c:	681b      	ldr	r3, [r3, #0]
 800461e:	4a17      	ldr	r2, [pc, #92]	; (800467c <HAL_TIMEx_MasterConfigSynchronization+0xd0>)
 8004620:	4293      	cmp	r3, r2
 8004622:	d00e      	beq.n	8004642 <HAL_TIMEx_MasterConfigSynchronization+0x96>
 8004624:	687b      	ldr	r3, [r7, #4]
 8004626:	681b      	ldr	r3, [r3, #0]
 8004628:	f1b3 4f80 	cmp.w	r3, #1073741824	; 0x40000000
 800462c:	d009      	beq.n	8004642 <HAL_TIMEx_MasterConfigSynchronization+0x96>
 800462e:	687b      	ldr	r3, [r7, #4]
 8004630:	681b      	ldr	r3, [r3, #0]
 8004632:	4a13      	ldr	r2, [pc, #76]	; (8004680 <HAL_TIMEx_MasterConfigSynchronization+0xd4>)
 8004634:	4293      	cmp	r3, r2
 8004636:	d004      	beq.n	8004642 <HAL_TIMEx_MasterConfigSynchronization+0x96>
 8004638:	687b      	ldr	r3, [r7, #4]
 800463a:	681b      	ldr	r3, [r3, #0]
 800463c:	4a11      	ldr	r2, [pc, #68]	; (8004684 <HAL_TIMEx_MasterConfigSynchronization+0xd8>)
 800463e:	4293      	cmp	r3, r2
 8004640:	d10c      	bne.n	800465c <HAL_TIMEx_MasterConfigSynchronization+0xb0>
 8004642:	68bb      	ldr	r3, [r7, #8]
 8004644:	f023 0380 	bic.w	r3, r3, #128	; 0x80
 8004648:	60bb      	str	r3, [r7, #8]
 800464a:	683b      	ldr	r3, [r7, #0]
 800464c:	689b      	ldr	r3, [r3, #8]
 800464e:	68ba      	ldr	r2, [r7, #8]
 8004650:	4313      	orrs	r3, r2
 8004652:	60bb      	str	r3, [r7, #8]
 8004654:	687b      	ldr	r3, [r7, #4]
 8004656:	681b      	ldr	r3, [r3, #0]
 8004658:	68ba      	ldr	r2, [r7, #8]
 800465a:	609a      	str	r2, [r3, #8]
 800465c:	687b      	ldr	r3, [r7, #4]
 800465e:	2201      	movs	r2, #1
 8004660:	f883 203d 	strb.w	r2, [r3, #61]	; 0x3d
 8004664:	687b      	ldr	r3, [r7, #4]
 8004666:	2200      	movs	r2, #0
 8004668:	f883 203c 	strb.w	r2, [r3, #60]	; 0x3c
 800466c:	2300      	movs	r3, #0
 800466e:	4618      	mov	r0, r3
 8004670:	3714      	adds	r7, #20
 8004672:	46bd      	mov	sp, r7
 8004674:	f85d 7b04 	ldr.w	r7, [sp], #4
 8004678:	4770      	bx	lr
 800467a:	bf00      	nop
 800467c:	40012c00 	.word	0x40012c00
 8004680:	40000400 	.word	0x40000400
 8004684:	40014000 	.word	0x40014000

08004688 <HAL_TIMEx_CommutCallback>:
 8004688:	b480      	push	{r7}
 800468a:	b083      	sub	sp, #12
 800468c:	af00      	add	r7, sp, #0
 800468e:	6078      	str	r0, [r7, #4]
 8004690:	bf00      	nop
 8004692:	370c      	adds	r7, #12
 8004694:	46bd      	mov	sp, r7
 8004696:	f85d 7b04 	ldr.w	r7, [sp], #4
 800469a:	4770      	bx	lr

0800469c <HAL_TIMEx_BreakCallback>:
 800469c:	b480      	push	{r7}
 800469e:	b083      	sub	sp, #12
 80046a0:	af00      	add	r7, sp, #0
 80046a2:	6078      	str	r0, [r7, #4]
 80046a4:	bf00      	nop
 80046a6:	370c      	adds	r7, #12
 80046a8:	46bd      	mov	sp, r7
 80046aa:	f85d 7b04 	ldr.w	r7, [sp], #4
 80046ae:	4770      	bx	lr

080046b0 <HAL_TIMEx_Break2Callback>:
 80046b0:	b480      	push	{r7}
 80046b2:	b083      	sub	sp, #12
 80046b4:	af00      	add	r7, sp, #0
 80046b6:	6078      	str	r0, [r7, #4]
 80046b8:	bf00      	nop
 80046ba:	370c      	adds	r7, #12
 80046bc:	46bd      	mov	sp, r7
 80046be:	f85d 7b04 	ldr.w	r7, [sp], #4
 80046c2:	4770      	bx	lr

080046c4 <HAL_UART_Init>:
 80046c4:	b580      	push	{r7, lr}
 80046c6:	b082      	sub	sp, #8
 80046c8:	af00      	add	r7, sp, #0
 80046ca:	6078      	str	r0, [r7, #4]
 80046cc:	687b      	ldr	r3, [r7, #4]
 80046ce:	2b00      	cmp	r3, #0
 80046d0:	d101      	bne.n	80046d6 <HAL_UART_Init+0x12>
 80046d2:	2301      	movs	r3, #1
 80046d4:	e040      	b.n	8004758 <HAL_UART_Init+0x94>
 80046d6:	687b      	ldr	r3, [r7, #4]
 80046d8:	6fdb      	ldr	r3, [r3, #124]	; 0x7c
 80046da:	2b00      	cmp	r3, #0
 80046dc:	d106      	bne.n	80046ec <HAL_UART_Init+0x28>
 80046de:	687b      	ldr	r3, [r7, #4]
 80046e0:	2200      	movs	r2, #0
 80046e2:	f883 2078 	strb.w	r2, [r3, #120]	; 0x78
 80046e6:	6878      	ldr	r0, [r7, #4]
 80046e8:	f7fc ff3a 	bl	8001560 <HAL_UART_MspInit>
 80046ec:	687b      	ldr	r3, [r7, #4]
 80046ee:	2224      	movs	r2, #36	; 0x24
 80046f0:	67da      	str	r2, [r3, #124]	; 0x7c
 80046f2:	687b      	ldr	r3, [r7, #4]
 80046f4:	681b      	ldr	r3, [r3, #0]
 80046f6:	681a      	ldr	r2, [r3, #0]
 80046f8:	687b      	ldr	r3, [r7, #4]
 80046fa:	681b      	ldr	r3, [r3, #0]
 80046fc:	f022 0201 	bic.w	r2, r2, #1
 8004700:	601a      	str	r2, [r3, #0]
 8004702:	687b      	ldr	r3, [r7, #4]
 8004704:	6a5b      	ldr	r3, [r3, #36]	; 0x24
 8004706:	2b00      	cmp	r3, #0
 8004708:	d002      	beq.n	8004710 <HAL_UART_Init+0x4c>
 800470a:	6878      	ldr	r0, [r7, #4]
 800470c:	f000 fe62 	bl	80053d4 <UART_AdvFeatureConfig>
 8004710:	6878      	ldr	r0, [r7, #4]
 8004712:	f000 fbd9 	bl	8004ec8 <UART_SetConfig>
 8004716:	4603      	mov	r3, r0
 8004718:	2b01      	cmp	r3, #1
 800471a:	d101      	bne.n	8004720 <HAL_UART_Init+0x5c>
 800471c:	2301      	movs	r3, #1
 800471e:	e01b      	b.n	8004758 <HAL_UART_Init+0x94>
 8004720:	687b      	ldr	r3, [r7, #4]
 8004722:	681b      	ldr	r3, [r3, #0]
 8004724:	685a      	ldr	r2, [r3, #4]
 8004726:	687b      	ldr	r3, [r7, #4]
 8004728:	681b      	ldr	r3, [r3, #0]
 800472a:	f422 4290 	bic.w	r2, r2, #18432	; 0x4800
 800472e:	605a      	str	r2, [r3, #4]
 8004730:	687b      	ldr	r3, [r7, #4]
 8004732:	681b      	ldr	r3, [r3, #0]
 8004734:	689a      	ldr	r2, [r3, #8]
 8004736:	687b      	ldr	r3, [r7, #4]
 8004738:	681b      	ldr	r3, [r3, #0]
 800473a:	f022 022a 	bic.w	r2, r2, #42	; 0x2a
 800473e:	609a      	str	r2, [r3, #8]
 8004740:	687b      	ldr	r3, [r7, #4]
 8004742:	681b      	ldr	r3, [r3, #0]
 8004744:	681a      	ldr	r2, [r3, #0]
 8004746:	687b      	ldr	r3, [r7, #4]
 8004748:	681b      	ldr	r3, [r3, #0]
 800474a:	f042 0201 	orr.w	r2, r2, #1
 800474e:	601a      	str	r2, [r3, #0]
 8004750:	6878      	ldr	r0, [r7, #4]
 8004752:	f000 fee1 	bl	8005518 <UART_CheckIdleState>
 8004756:	4603      	mov	r3, r0
 8004758:	4618      	mov	r0, r3
 800475a:	3708      	adds	r7, #8
 800475c:	46bd      	mov	sp, r7
 800475e:	bd80      	pop	{r7, pc}

08004760 <HAL_UART_Transmit_IT>:
 8004760:	b480      	push	{r7}
 8004762:	b08b      	sub	sp, #44	; 0x2c
 8004764:	af00      	add	r7, sp, #0
 8004766:	60f8      	str	r0, [r7, #12]
 8004768:	60b9      	str	r1, [r7, #8]
 800476a:	4613      	mov	r3, r2
 800476c:	80fb      	strh	r3, [r7, #6]
 800476e:	68fb      	ldr	r3, [r7, #12]
 8004770:	6fdb      	ldr	r3, [r3, #124]	; 0x7c
 8004772:	2b20      	cmp	r3, #32
 8004774:	d147      	bne.n	8004806 <HAL_UART_Transmit_IT+0xa6>
 8004776:	68bb      	ldr	r3, [r7, #8]
 8004778:	2b00      	cmp	r3, #0
 800477a:	d002      	beq.n	8004782 <HAL_UART_Transmit_IT+0x22>
 800477c:	88fb      	ldrh	r3, [r7, #6]
 800477e:	2b00      	cmp	r3, #0
 8004780:	d101      	bne.n	8004786 <HAL_UART_Transmit_IT+0x26>
 8004782:	2301      	movs	r3, #1
 8004784:	e040      	b.n	8004808 <HAL_UART_Transmit_IT+0xa8>
 8004786:	68fb      	ldr	r3, [r7, #12]
 8004788:	68ba      	ldr	r2, [r7, #8]
 800478a:	64da      	str	r2, [r3, #76]	; 0x4c
 800478c:	68fb      	ldr	r3, [r7, #12]
 800478e:	88fa      	ldrh	r2, [r7, #6]
 8004790:	f8a3 2050 	strh.w	r2, [r3, #80]	; 0x50
 8004794:	68fb      	ldr	r3, [r7, #12]
 8004796:	88fa      	ldrh	r2, [r7, #6]
 8004798:	f8a3 2052 	strh.w	r2, [r3, #82]	; 0x52
 800479c:	68fb      	ldr	r3, [r7, #12]
 800479e:	2200      	movs	r2, #0
 80047a0:	66da      	str	r2, [r3, #108]	; 0x6c
 80047a2:	68fb      	ldr	r3, [r7, #12]
 80047a4:	2200      	movs	r2, #0
 80047a6:	f8c3 2084 	str.w	r2, [r3, #132]	; 0x84
 80047aa:	68fb      	ldr	r3, [r7, #12]
 80047ac:	2221      	movs	r2, #33	; 0x21
 80047ae:	67da      	str	r2, [r3, #124]	; 0x7c
 80047b0:	68fb      	ldr	r3, [r7, #12]
 80047b2:	689b      	ldr	r3, [r3, #8]
 80047b4:	f5b3 5f80 	cmp.w	r3, #4096	; 0x1000
 80047b8:	d107      	bne.n	80047ca <HAL_UART_Transmit_IT+0x6a>
 80047ba:	68fb      	ldr	r3, [r7, #12]
 80047bc:	691b      	ldr	r3, [r3, #16]
 80047be:	2b00      	cmp	r3, #0
 80047c0:	d103      	bne.n	80047ca <HAL_UART_Transmit_IT+0x6a>
 80047c2:	68fb      	ldr	r3, [r7, #12]
 80047c4:	4a13      	ldr	r2, [pc, #76]	; (8004814 <HAL_UART_Transmit_IT+0xb4>)
 80047c6:	66da      	str	r2, [r3, #108]	; 0x6c
 80047c8:	e002      	b.n	80047d0 <HAL_UART_Transmit_IT+0x70>
 80047ca:	68fb      	ldr	r3, [r7, #12]
 80047cc:	4a12      	ldr	r2, [pc, #72]	; (8004818 <HAL_UART_Transmit_IT+0xb8>)
 80047ce:	66da      	str	r2, [r3, #108]	; 0x6c
 80047d0:	68fb      	ldr	r3, [r7, #12]
 80047d2:	681b      	ldr	r3, [r3, #0]
 80047d4:	617b      	str	r3, [r7, #20]
 80047d6:	697b      	ldr	r3, [r7, #20]
 80047d8:	e853 3f00 	ldrex	r3, [r3]
 80047dc:	613b      	str	r3, [r7, #16]
 80047de:	693b      	ldr	r3, [r7, #16]
 80047e0:	f043 0380 	orr.w	r3, r3, #128	; 0x80
 80047e4:	627b      	str	r3, [r7, #36]	; 0x24
 80047e6:	68fb      	ldr	r3, [r7, #12]
 80047e8:	681b      	ldr	r3, [r3, #0]
 80047ea:	461a      	mov	r2, r3
 80047ec:	6a7b      	ldr	r3, [r7, #36]	; 0x24
 80047ee:	623b      	str	r3, [r7, #32]
 80047f0:	61fa      	str	r2, [r7, #28]
 80047f2:	69f9      	ldr	r1, [r7, #28]
 80047f4:	6a3a      	ldr	r2, [r7, #32]
 80047f6:	e841 2300 	strex	r3, r2, [r1]
 80047fa:	61bb      	str	r3, [r7, #24]
 80047fc:	69bb      	ldr	r3, [r7, #24]
 80047fe:	2b00      	cmp	r3, #0
 8004800:	d1e6      	bne.n	80047d0 <HAL_UART_Transmit_IT+0x70>
 8004802:	2300      	movs	r3, #0
 8004804:	e000      	b.n	8004808 <HAL_UART_Transmit_IT+0xa8>
 8004806:	2302      	movs	r3, #2
 8004808:	4618      	mov	r0, r3
 800480a:	372c      	adds	r7, #44	; 0x2c
 800480c:	46bd      	mov	sp, r7
 800480e:	f85d 7b04 	ldr.w	r7, [sp], #4
 8004812:	4770      	bx	lr
 8004814:	08005a71 	.word	0x08005a71
 8004818:	080059b9 	.word	0x080059b9

0800481c <HAL_UART_Receive_IT>:
 800481c:	b580      	push	{r7, lr}
 800481e:	b08a      	sub	sp, #40	; 0x28
 8004820:	af00      	add	r7, sp, #0
 8004822:	60f8      	str	r0, [r7, #12]
 8004824:	60b9      	str	r1, [r7, #8]
 8004826:	4613      	mov	r3, r2
 8004828:	80fb      	strh	r3, [r7, #6]
 800482a:	68fb      	ldr	r3, [r7, #12]
 800482c:	f8d3 3080 	ldr.w	r3, [r3, #128]	; 0x80
 8004830:	2b20      	cmp	r3, #32
 8004832:	d137      	bne.n	80048a4 <HAL_UART_Receive_IT+0x88>
 8004834:	68bb      	ldr	r3, [r7, #8]
 8004836:	2b00      	cmp	r3, #0
 8004838:	d002      	beq.n	8004840 <HAL_UART_Receive_IT+0x24>
 800483a:	88fb      	ldrh	r3, [r7, #6]
 800483c:	2b00      	cmp	r3, #0
 800483e:	d101      	bne.n	8004844 <HAL_UART_Receive_IT+0x28>
 8004840:	2301      	movs	r3, #1
 8004842:	e030      	b.n	80048a6 <HAL_UART_Receive_IT+0x8a>
 8004844:	68fb      	ldr	r3, [r7, #12]
 8004846:	2200      	movs	r2, #0
 8004848:	661a      	str	r2, [r3, #96]	; 0x60
 800484a:	68fb      	ldr	r3, [r7, #12]
 800484c:	681b      	ldr	r3, [r3, #0]
 800484e:	4a18      	ldr	r2, [pc, #96]	; (80048b0 <HAL_UART_Receive_IT+0x94>)
 8004850:	4293      	cmp	r3, r2
 8004852:	d01f      	beq.n	8004894 <HAL_UART_Receive_IT+0x78>
 8004854:	68fb      	ldr	r3, [r7, #12]
 8004856:	681b      	ldr	r3, [r3, #0]
 8004858:	685b      	ldr	r3, [r3, #4]
 800485a:	f403 0300 	and.w	r3, r3, #8388608	; 0x800000
 800485e:	2b00      	cmp	r3, #0
 8004860:	d018      	beq.n	8004894 <HAL_UART_Receive_IT+0x78>
 8004862:	68fb      	ldr	r3, [r7, #12]
 8004864:	681b      	ldr	r3, [r3, #0]
 8004866:	617b      	str	r3, [r7, #20]
 8004868:	697b      	ldr	r3, [r7, #20]
 800486a:	e853 3f00 	ldrex	r3, [r3]
 800486e:	613b      	str	r3, [r7, #16]
 8004870:	693b      	ldr	r3, [r7, #16]
 8004872:	f043 6380 	orr.w	r3, r3, #67108864	; 0x4000000
 8004876:	627b      	str	r3, [r7, #36]	; 0x24
 8004878:	68fb      	ldr	r3, [r7, #12]
 800487a:	681b      	ldr	r3, [r3, #0]
 800487c:	461a      	mov	r2, r3
 800487e:	6a7b      	ldr	r3, [r7, #36]	; 0x24
 8004880:	623b      	str	r3, [r7, #32]
 8004882:	61fa      	str	r2, [r7, #28]
 8004884:	69f9      	ldr	r1, [r7, #28]
 8004886:	6a3a      	ldr	r2, [r7, #32]
 8004888:	e841 2300 	strex	r3, r2, [r1]
 800488c:	61bb      	str	r3, [r7, #24]
 800488e:	69bb      	ldr	r3, [r7, #24]
 8004890:	2b00      	cmp	r3, #0
 8004892:	d1e6      	bne.n	8004862 <HAL_UART_Receive_IT+0x46>
 8004894:	88fb      	ldrh	r3, [r7, #6]
 8004896:	461a      	mov	r2, r3
 8004898:	68b9      	ldr	r1, [r7, #8]
 800489a:	68f8      	ldr	r0, [r7, #12]
 800489c:	f000 ff4c 	bl	8005738 <UART_Start_Receive_IT>
 80048a0:	4603      	mov	r3, r0
 80048a2:	e000      	b.n	80048a6 <HAL_UART_Receive_IT+0x8a>
 80048a4:	2302      	movs	r3, #2
 80048a6:	4618      	mov	r0, r3
 80048a8:	3728      	adds	r7, #40	; 0x28
 80048aa:	46bd      	mov	sp, r7
 80048ac:	bd80      	pop	{r7, pc}
 80048ae:	bf00      	nop
 80048b0:	40008000 	.word	0x40008000

080048b4 <HAL_UART_IRQHandler>:
 80048b4:	b580      	push	{r7, lr}
 80048b6:	b0ba      	sub	sp, #232	; 0xe8
 80048b8:	af00      	add	r7, sp, #0
 80048ba:	6078      	str	r0, [r7, #4]
 80048bc:	687b      	ldr	r3, [r7, #4]
 80048be:	681b      	ldr	r3, [r3, #0]
 80048c0:	69db      	ldr	r3, [r3, #28]
 80048c2:	f8c7 30e4 	str.w	r3, [r7, #228]	; 0xe4
 80048c6:	687b      	ldr	r3, [r7, #4]
 80048c8:	681b      	ldr	r3, [r3, #0]
 80048ca:	681b      	ldr	r3, [r3, #0]
 80048cc:	f8c7 30e0 	str.w	r3, [r7, #224]	; 0xe0
 80048d0:	687b      	ldr	r3, [r7, #4]
 80048d2:	681b      	ldr	r3, [r3, #0]
 80048d4:	689b      	ldr	r3, [r3, #8]
 80048d6:	f8c7 30dc 	str.w	r3, [r7, #220]	; 0xdc
 80048da:	f8d7 20e4 	ldr.w	r2, [r7, #228]	; 0xe4
 80048de:	f640 030f 	movw	r3, #2063	; 0x80f
 80048e2:	4013      	ands	r3, r2
 80048e4:	f8c7 30d8 	str.w	r3, [r7, #216]	; 0xd8
 80048e8:	f8d7 30d8 	ldr.w	r3, [r7, #216]	; 0xd8
 80048ec:	2b00      	cmp	r3, #0
 80048ee:	d115      	bne.n	800491c <HAL_UART_IRQHandler+0x68>
 80048f0:	f8d7 30e4 	ldr.w	r3, [r7, #228]	; 0xe4
 80048f4:	f003 0320 	and.w	r3, r3, #32
 80048f8:	2b00      	cmp	r3, #0
 80048fa:	d00f      	beq.n	800491c <HAL_UART_IRQHandler+0x68>
 80048fc:	f8d7 30e0 	ldr.w	r3, [r7, #224]	; 0xe0
 8004900:	f003 0320 	and.w	r3, r3, #32
 8004904:	2b00      	cmp	r3, #0
 8004906:	d009      	beq.n	800491c <HAL_UART_IRQHandler+0x68>
 8004908:	687b      	ldr	r3, [r7, #4]
 800490a:	6e9b      	ldr	r3, [r3, #104]	; 0x68
 800490c:	2b00      	cmp	r3, #0
 800490e:	f000 82ae 	beq.w	8004e6e <HAL_UART_IRQHandler+0x5ba>
 8004912:	687b      	ldr	r3, [r7, #4]
 8004914:	6e9b      	ldr	r3, [r3, #104]	; 0x68
 8004916:	6878      	ldr	r0, [r7, #4]
 8004918:	4798      	blx	r3
 800491a:	e2a8      	b.n	8004e6e <HAL_UART_IRQHandler+0x5ba>
 800491c:	f8d7 30d8 	ldr.w	r3, [r7, #216]	; 0xd8
 8004920:	2b00      	cmp	r3, #0
 8004922:	f000 8117 	beq.w	8004b54 <HAL_UART_IRQHandler+0x2a0>
 8004926:	f8d7 30dc 	ldr.w	r3, [r7, #220]	; 0xdc
 800492a:	f003 0301 	and.w	r3, r3, #1
 800492e:	2b00      	cmp	r3, #0
 8004930:	d106      	bne.n	8004940 <HAL_UART_IRQHandler+0x8c>
 8004932:	f8d7 20e0 	ldr.w	r2, [r7, #224]	; 0xe0
 8004936:	4b85      	ldr	r3, [pc, #532]	; (8004b4c <HAL_UART_IRQHandler+0x298>)
 8004938:	4013      	ands	r3, r2
 800493a:	2b00      	cmp	r3, #0
 800493c:	f000 810a 	beq.w	8004b54 <HAL_UART_IRQHandler+0x2a0>
 8004940:	f8d7 30e4 	ldr.w	r3, [r7, #228]	; 0xe4
 8004944:	f003 0301 	and.w	r3, r3, #1
 8004948:	2b00      	cmp	r3, #0
 800494a:	d011      	beq.n	8004970 <HAL_UART_IRQHandler+0xbc>
 800494c:	f8d7 30e0 	ldr.w	r3, [r7, #224]	; 0xe0
 8004950:	f403 7380 	and.w	r3, r3, #256	; 0x100
 8004954:	2b00      	cmp	r3, #0
 8004956:	d00b      	beq.n	8004970 <HAL_UART_IRQHandler+0xbc>
 8004958:	687b      	ldr	r3, [r7, #4]
 800495a:	681b      	ldr	r3, [r3, #0]
 800495c:	2201      	movs	r2, #1
 800495e:	621a      	str	r2, [r3, #32]
 8004960:	687b      	ldr	r3, [r7, #4]
 8004962:	f8d3 3084 	ldr.w	r3, [r3, #132]	; 0x84
 8004966:	f043 0201 	orr.w	r2, r3, #1
 800496a:	687b      	ldr	r3, [r7, #4]
 800496c:	f8c3 2084 	str.w	r2, [r3, #132]	; 0x84
 8004970:	f8d7 30e4 	ldr.w	r3, [r7, #228]	; 0xe4
 8004974:	f003 0302 	and.w	r3, r3, #2
 8004978:	2b00      	cmp	r3, #0
 800497a:	d011      	beq.n	80049a0 <HAL_UART_IRQHandler+0xec>
 800497c:	f8d7 30dc 	ldr.w	r3, [r7, #220]	; 0xdc
 8004980:	f003 0301 	and.w	r3, r3, #1
 8004984:	2b00      	cmp	r3, #0
 8004986:	d00b      	beq.n	80049a0 <HAL_UART_IRQHandler+0xec>
 8004988:	687b      	ldr	r3, [r7, #4]
 800498a:	681b      	ldr	r3, [r3, #0]
 800498c:	2202      	movs	r2, #2
 800498e:	621a      	str	r2, [r3, #32]
 8004990:	687b      	ldr	r3, [r7, #4]
 8004992:	f8d3 3084 	ldr.w	r3, [r3, #132]	; 0x84
 8004996:	f043 0204 	orr.w	r2, r3, #4
 800499a:	687b      	ldr	r3, [r7, #4]
 800499c:	f8c3 2084 	str.w	r2, [r3, #132]	; 0x84
 80049a0:	f8d7 30e4 	ldr.w	r3, [r7, #228]	; 0xe4
 80049a4:	f003 0304 	and.w	r3, r3, #4
 80049a8:	2b00      	cmp	r3, #0
 80049aa:	d011      	beq.n	80049d0 <HAL_UART_IRQHandler+0x11c>
 80049ac:	f8d7 30dc 	ldr.w	r3, [r7, #220]	; 0xdc
 80049b0:	f003 0301 	and.w	r3, r3, #1
 80049b4:	2b00      	cmp	r3, #0
 80049b6:	d00b      	beq.n	80049d0 <HAL_UART_IRQHandler+0x11c>
 80049b8:	687b      	ldr	r3, [r7, #4]
 80049ba:	681b      	ldr	r3, [r3, #0]
 80049bc:	2204      	movs	r2, #4
 80049be:	621a      	str	r2, [r3, #32]
 80049c0:	687b      	ldr	r3, [r7, #4]
 80049c2:	f8d3 3084 	ldr.w	r3, [r3, #132]	; 0x84
 80049c6:	f043 0202 	orr.w	r2, r3, #2
 80049ca:	687b      	ldr	r3, [r7, #4]
 80049cc:	f8c3 2084 	str.w	r2, [r3, #132]	; 0x84
 80049d0:	f8d7 30e4 	ldr.w	r3, [r7, #228]	; 0xe4
 80049d4:	f003 0308 	and.w	r3, r3, #8
 80049d8:	2b00      	cmp	r3, #0
 80049da:	d017      	beq.n	8004a0c <HAL_UART_IRQHandler+0x158>
 80049dc:	f8d7 30e0 	ldr.w	r3, [r7, #224]	; 0xe0
 80049e0:	f003 0320 	and.w	r3, r3, #32
 80049e4:	2b00      	cmp	r3, #0
 80049e6:	d105      	bne.n	80049f4 <HAL_UART_IRQHandler+0x140>
 80049e8:	f8d7 30dc 	ldr.w	r3, [r7, #220]	; 0xdc
 80049ec:	f003 0301 	and.w	r3, r3, #1
 80049f0:	2b00      	cmp	r3, #0
 80049f2:	d00b      	beq.n	8004a0c <HAL_UART_IRQHandler+0x158>
 80049f4:	687b      	ldr	r3, [r7, #4]
 80049f6:	681b      	ldr	r3, [r3, #0]
 80049f8:	2208      	movs	r2, #8
 80049fa:	621a      	str	r2, [r3, #32]
 80049fc:	687b      	ldr	r3, [r7, #4]
 80049fe:	f8d3 3084 	ldr.w	r3, [r3, #132]	; 0x84
 8004a02:	f043 0208 	orr.w	r2, r3, #8
 8004a06:	687b      	ldr	r3, [r7, #4]
 8004a08:	f8c3 2084 	str.w	r2, [r3, #132]	; 0x84
 8004a0c:	f8d7 30e4 	ldr.w	r3, [r7, #228]	; 0xe4
 8004a10:	f403 6300 	and.w	r3, r3, #2048	; 0x800
 8004a14:	2b00      	cmp	r3, #0
 8004a16:	d012      	beq.n	8004a3e <HAL_UART_IRQHandler+0x18a>
 8004a18:	f8d7 30e0 	ldr.w	r3, [r7, #224]	; 0xe0
 8004a1c:	f003 6380 	and.w	r3, r3, #67108864	; 0x4000000
 8004a20:	2b00      	cmp	r3, #0
 8004a22:	d00c      	beq.n	8004a3e <HAL_UART_IRQHandler+0x18a>
 8004a24:	687b      	ldr	r3, [r7, #4]
 8004a26:	681b      	ldr	r3, [r3, #0]
 8004a28:	f44f 6200 	mov.w	r2, #2048	; 0x800
 8004a2c:	621a      	str	r2, [r3, #32]
 8004a2e:	687b      	ldr	r3, [r7, #4]
 8004a30:	f8d3 3084 	ldr.w	r3, [r3, #132]	; 0x84
 8004a34:	f043 0220 	orr.w	r2, r3, #32
 8004a38:	687b      	ldr	r3, [r7, #4]
 8004a3a:	f8c3 2084 	str.w	r2, [r3, #132]	; 0x84
 8004a3e:	687b      	ldr	r3, [r7, #4]
 8004a40:	f8d3 3084 	ldr.w	r3, [r3, #132]	; 0x84
 8004a44:	2b00      	cmp	r3, #0
 8004a46:	f000 8214 	beq.w	8004e72 <HAL_UART_IRQHandler+0x5be>
 8004a4a:	f8d7 30e4 	ldr.w	r3, [r7, #228]	; 0xe4
 8004a4e:	f003 0320 	and.w	r3, r3, #32
 8004a52:	2b00      	cmp	r3, #0
 8004a54:	d00d      	beq.n	8004a72 <HAL_UART_IRQHandler+0x1be>
 8004a56:	f8d7 30e0 	ldr.w	r3, [r7, #224]	; 0xe0
 8004a5a:	f003 0320 	and.w	r3, r3, #32
 8004a5e:	2b00      	cmp	r3, #0
 8004a60:	d007      	beq.n	8004a72 <HAL_UART_IRQHandler+0x1be>
 8004a62:	687b      	ldr	r3, [r7, #4]
 8004a64:	6e9b      	ldr	r3, [r3, #104]	; 0x68
 8004a66:	2b00      	cmp	r3, #0
 8004a68:	d003      	beq.n	8004a72 <HAL_UART_IRQHandler+0x1be>
 8004a6a:	687b      	ldr	r3, [r7, #4]
 8004a6c:	6e9b      	ldr	r3, [r3, #104]	; 0x68
 8004a6e:	6878      	ldr	r0, [r7, #4]
 8004a70:	4798      	blx	r3
 8004a72:	687b      	ldr	r3, [r7, #4]
 8004a74:	f8d3 3084 	ldr.w	r3, [r3, #132]	; 0x84
 8004a78:	f8c7 30d4 	str.w	r3, [r7, #212]	; 0xd4
 8004a7c:	687b      	ldr	r3, [r7, #4]
 8004a7e:	681b      	ldr	r3, [r3, #0]
 8004a80:	689b      	ldr	r3, [r3, #8]
 8004a82:	f003 0340 	and.w	r3, r3, #64	; 0x40
 8004a86:	2b40      	cmp	r3, #64	; 0x40
 8004a88:	d005      	beq.n	8004a96 <HAL_UART_IRQHandler+0x1e2>
 8004a8a:	f8d7 30d4 	ldr.w	r3, [r7, #212]	; 0xd4
 8004a8e:	f003 0328 	and.w	r3, r3, #40	; 0x28
 8004a92:	2b00      	cmp	r3, #0
 8004a94:	d04f      	beq.n	8004b36 <HAL_UART_IRQHandler+0x282>
 8004a96:	6878      	ldr	r0, [r7, #4]
 8004a98:	f000 ff14 	bl	80058c4 <UART_EndRxTransfer>
 8004a9c:	687b      	ldr	r3, [r7, #4]
 8004a9e:	681b      	ldr	r3, [r3, #0]
 8004aa0:	689b      	ldr	r3, [r3, #8]
 8004aa2:	f003 0340 	and.w	r3, r3, #64	; 0x40
 8004aa6:	2b40      	cmp	r3, #64	; 0x40
 8004aa8:	d141      	bne.n	8004b2e <HAL_UART_IRQHandler+0x27a>
 8004aaa:	687b      	ldr	r3, [r7, #4]
 8004aac:	681b      	ldr	r3, [r3, #0]
 8004aae:	3308      	adds	r3, #8
 8004ab0:	f8c7 309c 	str.w	r3, [r7, #156]	; 0x9c
 8004ab4:	f8d7 309c 	ldr.w	r3, [r7, #156]	; 0x9c
 8004ab8:	e853 3f00 	ldrex	r3, [r3]
 8004abc:	f8c7 3098 	str.w	r3, [r7, #152]	; 0x98
 8004ac0:	f8d7 3098 	ldr.w	r3, [r7, #152]	; 0x98
 8004ac4:	f023 0340 	bic.w	r3, r3, #64	; 0x40
 8004ac8:	f8c7 30d0 	str.w	r3, [r7, #208]	; 0xd0
 8004acc:	687b      	ldr	r3, [r7, #4]
 8004ace:	681b      	ldr	r3, [r3, #0]
 8004ad0:	3308      	adds	r3, #8
 8004ad2:	f8d7 20d0 	ldr.w	r2, [r7, #208]	; 0xd0
 8004ad6:	f8c7 20a8 	str.w	r2, [r7, #168]	; 0xa8
 8004ada:	f8c7 30a4 	str.w	r3, [r7, #164]	; 0xa4
 8004ade:	f8d7 10a4 	ldr.w	r1, [r7, #164]	; 0xa4
 8004ae2:	f8d7 20a8 	ldr.w	r2, [r7, #168]	; 0xa8
 8004ae6:	e841 2300 	strex	r3, r2, [r1]
 8004aea:	f8c7 30a0 	str.w	r3, [r7, #160]	; 0xa0
 8004aee:	f8d7 30a0 	ldr.w	r3, [r7, #160]	; 0xa0
 8004af2:	2b00      	cmp	r3, #0
 8004af4:	d1d9      	bne.n	8004aaa <HAL_UART_IRQHandler+0x1f6>
 8004af6:	687b      	ldr	r3, [r7, #4]
 8004af8:	6f5b      	ldr	r3, [r3, #116]	; 0x74
 8004afa:	2b00      	cmp	r3, #0
 8004afc:	d013      	beq.n	8004b26 <HAL_UART_IRQHandler+0x272>
 8004afe:	687b      	ldr	r3, [r7, #4]
 8004b00:	6f5b      	ldr	r3, [r3, #116]	; 0x74
 8004b02:	4a13      	ldr	r2, [pc, #76]	; (8004b50 <HAL_UART_IRQHandler+0x29c>)
 8004b04:	639a      	str	r2, [r3, #56]	; 0x38
 8004b06:	687b      	ldr	r3, [r7, #4]
 8004b08:	6f5b      	ldr	r3, [r3, #116]	; 0x74
 8004b0a:	4618      	mov	r0, r3
 8004b0c:	f7fc fff3 	bl	8001af6 <HAL_DMA_Abort_IT>
 8004b10:	4603      	mov	r3, r0
 8004b12:	2b00      	cmp	r3, #0
 8004b14:	d017      	beq.n	8004b46 <HAL_UART_IRQHandler+0x292>
 8004b16:	687b      	ldr	r3, [r7, #4]
 8004b18:	6f5b      	ldr	r3, [r3, #116]	; 0x74
 8004b1a:	6b9b      	ldr	r3, [r3, #56]	; 0x38
 8004b1c:	687a      	ldr	r2, [r7, #4]
 8004b1e:	6f52      	ldr	r2, [r2, #116]	; 0x74
 8004b20:	4610      	mov	r0, r2
 8004b22:	4798      	blx	r3
 8004b24:	e00f      	b.n	8004b46 <HAL_UART_IRQHandler+0x292>
 8004b26:	6878      	ldr	r0, [r7, #4]
 8004b28:	f000 f9b8 	bl	8004e9c <HAL_UART_ErrorCallback>
 8004b2c:	e00b      	b.n	8004b46 <HAL_UART_IRQHandler+0x292>
 8004b2e:	6878      	ldr	r0, [r7, #4]
 8004b30:	f000 f9b4 	bl	8004e9c <HAL_UART_ErrorCallback>
 8004b34:	e007      	b.n	8004b46 <HAL_UART_IRQHandler+0x292>
 8004b36:	6878      	ldr	r0, [r7, #4]
 8004b38:	f000 f9b0 	bl	8004e9c <HAL_UART_ErrorCallback>
 8004b3c:	687b      	ldr	r3, [r7, #4]
 8004b3e:	2200      	movs	r2, #0
 8004b40:	f8c3 2084 	str.w	r2, [r3, #132]	; 0x84
 8004b44:	e195      	b.n	8004e72 <HAL_UART_IRQHandler+0x5be>
 8004b46:	bf00      	nop
 8004b48:	e193      	b.n	8004e72 <HAL_UART_IRQHandler+0x5be>
 8004b4a:	bf00      	nop
 8004b4c:	04000120 	.word	0x04000120
 8004b50:	0800598d 	.word	0x0800598d
 8004b54:	687b      	ldr	r3, [r7, #4]
 8004b56:	6e1b      	ldr	r3, [r3, #96]	; 0x60
 8004b58:	2b01      	cmp	r3, #1
 8004b5a:	f040 814e 	bne.w	8004dfa <HAL_UART_IRQHandler+0x546>
 8004b5e:	f8d7 30e4 	ldr.w	r3, [r7, #228]	; 0xe4
 8004b62:	f003 0310 	and.w	r3, r3, #16
 8004b66:	2b00      	cmp	r3, #0
 8004b68:	f000 8147 	beq.w	8004dfa <HAL_UART_IRQHandler+0x546>
 8004b6c:	f8d7 30e0 	ldr.w	r3, [r7, #224]	; 0xe0
 8004b70:	f003 0310 	and.w	r3, r3, #16
 8004b74:	2b00      	cmp	r3, #0
 8004b76:	f000 8140 	beq.w	8004dfa <HAL_UART_IRQHandler+0x546>
 8004b7a:	687b      	ldr	r3, [r7, #4]
 8004b7c:	681b      	ldr	r3, [r3, #0]
 8004b7e:	2210      	movs	r2, #16
 8004b80:	621a      	str	r2, [r3, #32]
 8004b82:	687b      	ldr	r3, [r7, #4]
 8004b84:	681b      	ldr	r3, [r3, #0]
 8004b86:	689b      	ldr	r3, [r3, #8]
 8004b88:	f003 0340 	and.w	r3, r3, #64	; 0x40
 8004b8c:	2b40      	cmp	r3, #64	; 0x40
 8004b8e:	f040 80b8 	bne.w	8004d02 <HAL_UART_IRQHandler+0x44e>
 8004b92:	687b      	ldr	r3, [r7, #4]
 8004b94:	6f5b      	ldr	r3, [r3, #116]	; 0x74
 8004b96:	681b      	ldr	r3, [r3, #0]
 8004b98:	685b      	ldr	r3, [r3, #4]
 8004b9a:	f8a7 30be 	strh.w	r3, [r7, #190]	; 0xbe
 8004b9e:	f8b7 30be 	ldrh.w	r3, [r7, #190]	; 0xbe
 8004ba2:	2b00      	cmp	r3, #0
 8004ba4:	f000 8167 	beq.w	8004e76 <HAL_UART_IRQHandler+0x5c2>
 8004ba8:	687b      	ldr	r3, [r7, #4]
 8004baa:	f8b3 3058 	ldrh.w	r3, [r3, #88]	; 0x58
 8004bae:	f8b7 20be 	ldrh.w	r2, [r7, #190]	; 0xbe
 8004bb2:	429a      	cmp	r2, r3
 8004bb4:	f080 815f 	bcs.w	8004e76 <HAL_UART_IRQHandler+0x5c2>
 8004bb8:	687b      	ldr	r3, [r7, #4]
 8004bba:	f8b7 20be 	ldrh.w	r2, [r7, #190]	; 0xbe
 8004bbe:	f8a3 205a 	strh.w	r2, [r3, #90]	; 0x5a
 8004bc2:	687b      	ldr	r3, [r7, #4]
 8004bc4:	6f5b      	ldr	r3, [r3, #116]	; 0x74
 8004bc6:	681b      	ldr	r3, [r3, #0]
 8004bc8:	681b      	ldr	r3, [r3, #0]
 8004bca:	f003 0320 	and.w	r3, r3, #32
 8004bce:	2b00      	cmp	r3, #0
 8004bd0:	f040 8086 	bne.w	8004ce0 <HAL_UART_IRQHandler+0x42c>
 8004bd4:	687b      	ldr	r3, [r7, #4]
 8004bd6:	681b      	ldr	r3, [r3, #0]
 8004bd8:	f8c7 3088 	str.w	r3, [r7, #136]	; 0x88
 8004bdc:	f8d7 3088 	ldr.w	r3, [r7, #136]	; 0x88
 8004be0:	e853 3f00 	ldrex	r3, [r3]
 8004be4:	f8c7 3084 	str.w	r3, [r7, #132]	; 0x84
 8004be8:	f8d7 3084 	ldr.w	r3, [r7, #132]	; 0x84
 8004bec:	f423 7380 	bic.w	r3, r3, #256	; 0x100
 8004bf0:	f8c7 30b8 	str.w	r3, [r7, #184]	; 0xb8
 8004bf4:	687b      	ldr	r3, [r7, #4]
 8004bf6:	681b      	ldr	r3, [r3, #0]
 8004bf8:	461a      	mov	r2, r3
 8004bfa:	f8d7 30b8 	ldr.w	r3, [r7, #184]	; 0xb8
 8004bfe:	f8c7 3094 	str.w	r3, [r7, #148]	; 0x94
 8004c02:	f8c7 2090 	str.w	r2, [r7, #144]	; 0x90
 8004c06:	f8d7 1090 	ldr.w	r1, [r7, #144]	; 0x90
 8004c0a:	f8d7 2094 	ldr.w	r2, [r7, #148]	; 0x94
 8004c0e:	e841 2300 	strex	r3, r2, [r1]
 8004c12:	f8c7 308c 	str.w	r3, [r7, #140]	; 0x8c
 8004c16:	f8d7 308c 	ldr.w	r3, [r7, #140]	; 0x8c
 8004c1a:	2b00      	cmp	r3, #0
 8004c1c:	d1da      	bne.n	8004bd4 <HAL_UART_IRQHandler+0x320>
 8004c1e:	687b      	ldr	r3, [r7, #4]
 8004c20:	681b      	ldr	r3, [r3, #0]
 8004c22:	3308      	adds	r3, #8
 8004c24:	677b      	str	r3, [r7, #116]	; 0x74
 8004c26:	6f7b      	ldr	r3, [r7, #116]	; 0x74
 8004c28:	e853 3f00 	ldrex	r3, [r3]
 8004c2c:	673b      	str	r3, [r7, #112]	; 0x70
 8004c2e:	6f3b      	ldr	r3, [r7, #112]	; 0x70
 8004c30:	f023 0301 	bic.w	r3, r3, #1
 8004c34:	f8c7 30b4 	str.w	r3, [r7, #180]	; 0xb4
 8004c38:	687b      	ldr	r3, [r7, #4]
 8004c3a:	681b      	ldr	r3, [r3, #0]
 8004c3c:	3308      	adds	r3, #8
 8004c3e:	f8d7 20b4 	ldr.w	r2, [r7, #180]	; 0xb4
 8004c42:	f8c7 2080 	str.w	r2, [r7, #128]	; 0x80
 8004c46:	67fb      	str	r3, [r7, #124]	; 0x7c
 8004c48:	6ff9      	ldr	r1, [r7, #124]	; 0x7c
 8004c4a:	f8d7 2080 	ldr.w	r2, [r7, #128]	; 0x80
 8004c4e:	e841 2300 	strex	r3, r2, [r1]
 8004c52:	67bb      	str	r3, [r7, #120]	; 0x78
 8004c54:	6fbb      	ldr	r3, [r7, #120]	; 0x78
 8004c56:	2b00      	cmp	r3, #0
 8004c58:	d1e1      	bne.n	8004c1e <HAL_UART_IRQHandler+0x36a>
 8004c5a:	687b      	ldr	r3, [r7, #4]
 8004c5c:	681b      	ldr	r3, [r3, #0]
 8004c5e:	3308      	adds	r3, #8
 8004c60:	663b      	str	r3, [r7, #96]	; 0x60
 8004c62:	6e3b      	ldr	r3, [r7, #96]	; 0x60
 8004c64:	e853 3f00 	ldrex	r3, [r3]
 8004c68:	65fb      	str	r3, [r7, #92]	; 0x5c
 8004c6a:	6dfb      	ldr	r3, [r7, #92]	; 0x5c
 8004c6c:	f023 0340 	bic.w	r3, r3, #64	; 0x40
 8004c70:	f8c7 30b0 	str.w	r3, [r7, #176]	; 0xb0
 8004c74:	687b      	ldr	r3, [r7, #4]
 8004c76:	681b      	ldr	r3, [r3, #0]
 8004c78:	3308      	adds	r3, #8
 8004c7a:	f8d7 20b0 	ldr.w	r2, [r7, #176]	; 0xb0
 8004c7e:	66fa      	str	r2, [r7, #108]	; 0x6c
 8004c80:	66bb      	str	r3, [r7, #104]	; 0x68
 8004c82:	6eb9      	ldr	r1, [r7, #104]	; 0x68
 8004c84:	6efa      	ldr	r2, [r7, #108]	; 0x6c
 8004c86:	e841 2300 	strex	r3, r2, [r1]
 8004c8a:	667b      	str	r3, [r7, #100]	; 0x64
 8004c8c:	6e7b      	ldr	r3, [r7, #100]	; 0x64
 8004c8e:	2b00      	cmp	r3, #0
 8004c90:	d1e3      	bne.n	8004c5a <HAL_UART_IRQHandler+0x3a6>
 8004c92:	687b      	ldr	r3, [r7, #4]
 8004c94:	2220      	movs	r2, #32
 8004c96:	f8c3 2080 	str.w	r2, [r3, #128]	; 0x80
 8004c9a:	687b      	ldr	r3, [r7, #4]
 8004c9c:	2200      	movs	r2, #0
 8004c9e:	661a      	str	r2, [r3, #96]	; 0x60
 8004ca0:	687b      	ldr	r3, [r7, #4]
 8004ca2:	681b      	ldr	r3, [r3, #0]
 8004ca4:	64fb      	str	r3, [r7, #76]	; 0x4c
 8004ca6:	6cfb      	ldr	r3, [r7, #76]	; 0x4c
 8004ca8:	e853 3f00 	ldrex	r3, [r3]
 8004cac:	64bb      	str	r3, [r7, #72]	; 0x48
 8004cae:	6cbb      	ldr	r3, [r7, #72]	; 0x48
 8004cb0:	f023 0310 	bic.w	r3, r3, #16
 8004cb4:	f8c7 30ac 	str.w	r3, [r7, #172]	; 0xac
 8004cb8:	687b      	ldr	r3, [r7, #4]
 8004cba:	681b      	ldr	r3, [r3, #0]
 8004cbc:	461a      	mov	r2, r3
 8004cbe:	f8d7 30ac 	ldr.w	r3, [r7, #172]	; 0xac
 8004cc2:	65bb      	str	r3, [r7, #88]	; 0x58
 8004cc4:	657a      	str	r2, [r7, #84]	; 0x54
 8004cc6:	6d79      	ldr	r1, [r7, #84]	; 0x54
 8004cc8:	6dba      	ldr	r2, [r7, #88]	; 0x58
 8004cca:	e841 2300 	strex	r3, r2, [r1]
 8004cce:	653b      	str	r3, [r7, #80]	; 0x50
 8004cd0:	6d3b      	ldr	r3, [r7, #80]	; 0x50
 8004cd2:	2b00      	cmp	r3, #0
 8004cd4:	d1e4      	bne.n	8004ca0 <HAL_UART_IRQHandler+0x3ec>
 8004cd6:	687b      	ldr	r3, [r7, #4]
 8004cd8:	6f5b      	ldr	r3, [r3, #116]	; 0x74
 8004cda:	4618      	mov	r0, r3
 8004cdc:	f7fc fecd 	bl	8001a7a <HAL_DMA_Abort>
 8004ce0:	687b      	ldr	r3, [r7, #4]
 8004ce2:	2202      	movs	r2, #2
 8004ce4:	665a      	str	r2, [r3, #100]	; 0x64
 8004ce6:	687b      	ldr	r3, [r7, #4]
 8004ce8:	f8b3 2058 	ldrh.w	r2, [r3, #88]	; 0x58
 8004cec:	687b      	ldr	r3, [r7, #4]
 8004cee:	f8b3 305a 	ldrh.w	r3, [r3, #90]	; 0x5a
 8004cf2:	b29b      	uxth	r3, r3
 8004cf4:	1ad3      	subs	r3, r2, r3
 8004cf6:	b29b      	uxth	r3, r3
 8004cf8:	4619      	mov	r1, r3
 8004cfa:	6878      	ldr	r0, [r7, #4]
 8004cfc:	f000 f8d8 	bl	8004eb0 <HAL_UARTEx_RxEventCallback>
 8004d00:	e0b9      	b.n	8004e76 <HAL_UART_IRQHandler+0x5c2>
 8004d02:	687b      	ldr	r3, [r7, #4]
 8004d04:	f8b3 2058 	ldrh.w	r2, [r3, #88]	; 0x58
 8004d08:	687b      	ldr	r3, [r7, #4]
 8004d0a:	f8b3 305a 	ldrh.w	r3, [r3, #90]	; 0x5a
 8004d0e:	b29b      	uxth	r3, r3
 8004d10:	1ad3      	subs	r3, r2, r3
 8004d12:	f8a7 30ce 	strh.w	r3, [r7, #206]	; 0xce
 8004d16:	687b      	ldr	r3, [r7, #4]
 8004d18:	f8b3 305a 	ldrh.w	r3, [r3, #90]	; 0x5a
 8004d1c:	b29b      	uxth	r3, r3
 8004d1e:	2b00      	cmp	r3, #0
 8004d20:	f000 80ab 	beq.w	8004e7a <HAL_UART_IRQHandler+0x5c6>
 8004d24:	f8b7 30ce 	ldrh.w	r3, [r7, #206]	; 0xce
 8004d28:	2b00      	cmp	r3, #0
 8004d2a:	f000 80a6 	beq.w	8004e7a <HAL_UART_IRQHandler+0x5c6>
 8004d2e:	687b      	ldr	r3, [r7, #4]
 8004d30:	681b      	ldr	r3, [r3, #0]
 8004d32:	63bb      	str	r3, [r7, #56]	; 0x38
 8004d34:	6bbb      	ldr	r3, [r7, #56]	; 0x38
 8004d36:	e853 3f00 	ldrex	r3, [r3]
 8004d3a:	637b      	str	r3, [r7, #52]	; 0x34
 8004d3c:	6b7b      	ldr	r3, [r7, #52]	; 0x34
 8004d3e:	f423 7390 	bic.w	r3, r3, #288	; 0x120
 8004d42:	f8c7 30c8 	str.w	r3, [r7, #200]	; 0xc8
 8004d46:	687b      	ldr	r3, [r7, #4]
 8004d48:	681b      	ldr	r3, [r3, #0]
 8004d4a:	461a      	mov	r2, r3
 8004d4c:	f8d7 30c8 	ldr.w	r3, [r7, #200]	; 0xc8
 8004d50:	647b      	str	r3, [r7, #68]	; 0x44
 8004d52:	643a      	str	r2, [r7, #64]	; 0x40
 8004d54:	6c39      	ldr	r1, [r7, #64]	; 0x40
 8004d56:	6c7a      	ldr	r2, [r7, #68]	; 0x44
 8004d58:	e841 2300 	strex	r3, r2, [r1]
 8004d5c:	63fb      	str	r3, [r7, #60]	; 0x3c
 8004d5e:	6bfb      	ldr	r3, [r7, #60]	; 0x3c
 8004d60:	2b00      	cmp	r3, #0
 8004d62:	d1e4      	bne.n	8004d2e <HAL_UART_IRQHandler+0x47a>
 8004d64:	687b      	ldr	r3, [r7, #4]
 8004d66:	681b      	ldr	r3, [r3, #0]
 8004d68:	3308      	adds	r3, #8
 8004d6a:	627b      	str	r3, [r7, #36]	; 0x24
 8004d6c:	6a7b      	ldr	r3, [r7, #36]	; 0x24
 8004d6e:	e853 3f00 	ldrex	r3, [r3]
 8004d72:	623b      	str	r3, [r7, #32]
 8004d74:	6a3b      	ldr	r3, [r7, #32]
 8004d76:	f023 0301 	bic.w	r3, r3, #1
 8004d7a:	f8c7 30c4 	str.w	r3, [r7, #196]	; 0xc4
 8004d7e:	687b      	ldr	r3, [r7, #4]
 8004d80:	681b      	ldr	r3, [r3, #0]
 8004d82:	3308      	adds	r3, #8
 8004d84:	f8d7 20c4 	ldr.w	r2, [r7, #196]	; 0xc4
 8004d88:	633a      	str	r2, [r7, #48]	; 0x30
 8004d8a:	62fb      	str	r3, [r7, #44]	; 0x2c
 8004d8c:	6af9      	ldr	r1, [r7, #44]	; 0x2c
 8004d8e:	6b3a      	ldr	r2, [r7, #48]	; 0x30
 8004d90:	e841 2300 	strex	r3, r2, [r1]
 8004d94:	62bb      	str	r3, [r7, #40]	; 0x28
 8004d96:	6abb      	ldr	r3, [r7, #40]	; 0x28
 8004d98:	2b00      	cmp	r3, #0
 8004d9a:	d1e3      	bne.n	8004d64 <HAL_UART_IRQHandler+0x4b0>
 8004d9c:	687b      	ldr	r3, [r7, #4]
 8004d9e:	2220      	movs	r2, #32
 8004da0:	f8c3 2080 	str.w	r2, [r3, #128]	; 0x80
 8004da4:	687b      	ldr	r3, [r7, #4]
 8004da6:	2200      	movs	r2, #0
 8004da8:	661a      	str	r2, [r3, #96]	; 0x60
 8004daa:	687b      	ldr	r3, [r7, #4]
 8004dac:	2200      	movs	r2, #0
 8004dae:	669a      	str	r2, [r3, #104]	; 0x68
 8004db0:	687b      	ldr	r3, [r7, #4]
 8004db2:	681b      	ldr	r3, [r3, #0]
 8004db4:	613b      	str	r3, [r7, #16]
 8004db6:	693b      	ldr	r3, [r7, #16]
 8004db8:	e853 3f00 	ldrex	r3, [r3]
 8004dbc:	60fb      	str	r3, [r7, #12]
 8004dbe:	68fb      	ldr	r3, [r7, #12]
 8004dc0:	f023 0310 	bic.w	r3, r3, #16
 8004dc4:	f8c7 30c0 	str.w	r3, [r7, #192]	; 0xc0
 8004dc8:	687b      	ldr	r3, [r7, #4]
 8004dca:	681b      	ldr	r3, [r3, #0]
 8004dcc:	461a      	mov	r2, r3
 8004dce:	f8d7 30c0 	ldr.w	r3, [r7, #192]	; 0xc0
 8004dd2:	61fb      	str	r3, [r7, #28]
 8004dd4:	61ba      	str	r2, [r7, #24]
 8004dd6:	69b9      	ldr	r1, [r7, #24]
 8004dd8:	69fa      	ldr	r2, [r7, #28]
 8004dda:	e841 2300 	strex	r3, r2, [r1]
 8004dde:	617b      	str	r3, [r7, #20]
 8004de0:	697b      	ldr	r3, [r7, #20]
 8004de2:	2b00      	cmp	r3, #0
 8004de4:	d1e4      	bne.n	8004db0 <HAL_UART_IRQHandler+0x4fc>
 8004de6:	687b      	ldr	r3, [r7, #4]
 8004de8:	2202      	movs	r2, #2
 8004dea:	665a      	str	r2, [r3, #100]	; 0x64
 8004dec:	f8b7 30ce 	ldrh.w	r3, [r7, #206]	; 0xce
 8004df0:	4619      	mov	r1, r3
 8004df2:	6878      	ldr	r0, [r7, #4]
 8004df4:	f000 f85c 	bl	8004eb0 <HAL_UARTEx_RxEventCallback>
 8004df8:	e03f      	b.n	8004e7a <HAL_UART_IRQHandler+0x5c6>
 8004dfa:	f8d7 30e4 	ldr.w	r3, [r7, #228]	; 0xe4
 8004dfe:	f403 1380 	and.w	r3, r3, #1048576	; 0x100000
 8004e02:	2b00      	cmp	r3, #0
 8004e04:	d00e      	beq.n	8004e24 <HAL_UART_IRQHandler+0x570>
 8004e06:	f8d7 30dc 	ldr.w	r3, [r7, #220]	; 0xdc
 8004e0a:	f403 0380 	and.w	r3, r3, #4194304	; 0x400000
 8004e0e:	2b00      	cmp	r3, #0
 8004e10:	d008      	beq.n	8004e24 <HAL_UART_IRQHandler+0x570>
 8004e12:	687b      	ldr	r3, [r7, #4]
 8004e14:	681b      	ldr	r3, [r3, #0]
 8004e16:	f44f 1280 	mov.w	r2, #1048576	; 0x100000
 8004e1a:	621a      	str	r2, [r3, #32]
 8004e1c:	6878      	ldr	r0, [r7, #4]
 8004e1e:	f001 f86d 	bl	8005efc <HAL_UARTEx_WakeupCallback>
 8004e22:	e02d      	b.n	8004e80 <HAL_UART_IRQHandler+0x5cc>
 8004e24:	f8d7 30e4 	ldr.w	r3, [r7, #228]	; 0xe4
 8004e28:	f003 0380 	and.w	r3, r3, #128	; 0x80
 8004e2c:	2b00      	cmp	r3, #0
 8004e2e:	d00e      	beq.n	8004e4e <HAL_UART_IRQHandler+0x59a>
 8004e30:	f8d7 30e0 	ldr.w	r3, [r7, #224]	; 0xe0
 8004e34:	f003 0380 	and.w	r3, r3, #128	; 0x80
 8004e38:	2b00      	cmp	r3, #0
 8004e3a:	d008      	beq.n	8004e4e <HAL_UART_IRQHandler+0x59a>
 8004e3c:	687b      	ldr	r3, [r7, #4]
 8004e3e:	6edb      	ldr	r3, [r3, #108]	; 0x6c
 8004e40:	2b00      	cmp	r3, #0
 8004e42:	d01c      	beq.n	8004e7e <HAL_UART_IRQHandler+0x5ca>
 8004e44:	687b      	ldr	r3, [r7, #4]
 8004e46:	6edb      	ldr	r3, [r3, #108]	; 0x6c
 8004e48:	6878      	ldr	r0, [r7, #4]
 8004e4a:	4798      	blx	r3
 8004e4c:	e017      	b.n	8004e7e <HAL_UART_IRQHandler+0x5ca>
 8004e4e:	f8d7 30e4 	ldr.w	r3, [r7, #228]	; 0xe4
 8004e52:	f003 0340 	and.w	r3, r3, #64	; 0x40
 8004e56:	2b00      	cmp	r3, #0
 8004e58:	d012      	beq.n	8004e80 <HAL_UART_IRQHandler+0x5cc>
 8004e5a:	f8d7 30e0 	ldr.w	r3, [r7, #224]	; 0xe0
 8004e5e:	f003 0340 	and.w	r3, r3, #64	; 0x40
 8004e62:	2b00      	cmp	r3, #0
 8004e64:	d00c      	beq.n	8004e80 <HAL_UART_IRQHandler+0x5cc>
 8004e66:	6878      	ldr	r0, [r7, #4]
 8004e68:	f000 fe62 	bl	8005b30 <UART_EndTransmit_IT>
 8004e6c:	e008      	b.n	8004e80 <HAL_UART_IRQHandler+0x5cc>
 8004e6e:	bf00      	nop
 8004e70:	e006      	b.n	8004e80 <HAL_UART_IRQHandler+0x5cc>
 8004e72:	bf00      	nop
 8004e74:	e004      	b.n	8004e80 <HAL_UART_IRQHandler+0x5cc>
 8004e76:	bf00      	nop
 8004e78:	e002      	b.n	8004e80 <HAL_UART_IRQHandler+0x5cc>
 8004e7a:	bf00      	nop
 8004e7c:	e000      	b.n	8004e80 <HAL_UART_IRQHandler+0x5cc>
 8004e7e:	bf00      	nop
 8004e80:	37e8      	adds	r7, #232	; 0xe8
 8004e82:	46bd      	mov	sp, r7
 8004e84:	bd80      	pop	{r7, pc}
 8004e86:	bf00      	nop

08004e88 <HAL_UART_TxCpltCallback>:
 8004e88:	b480      	push	{r7}
 8004e8a:	b083      	sub	sp, #12
 8004e8c:	af00      	add	r7, sp, #0
 8004e8e:	6078      	str	r0, [r7, #4]
 8004e90:	bf00      	nop
 8004e92:	370c      	adds	r7, #12
 8004e94:	46bd      	mov	sp, r7
 8004e96:	f85d 7b04 	ldr.w	r7, [sp], #4
 8004e9a:	4770      	bx	lr

08004e9c <HAL_UART_ErrorCallback>:
 8004e9c:	b480      	push	{r7}
 8004e9e:	b083      	sub	sp, #12
 8004ea0:	af00      	add	r7, sp, #0
 8004ea2:	6078      	str	r0, [r7, #4]
 8004ea4:	bf00      	nop
 8004ea6:	370c      	adds	r7, #12
 8004ea8:	46bd      	mov	sp, r7
 8004eaa:	f85d 7b04 	ldr.w	r7, [sp], #4
 8004eae:	4770      	bx	lr

08004eb0 <HAL_UARTEx_RxEventCallback>:
 8004eb0:	b480      	push	{r7}
 8004eb2:	b083      	sub	sp, #12
 8004eb4:	af00      	add	r7, sp, #0
 8004eb6:	6078      	str	r0, [r7, #4]
 8004eb8:	460b      	mov	r3, r1
 8004eba:	807b      	strh	r3, [r7, #2]
 8004ebc:	bf00      	nop
 8004ebe:	370c      	adds	r7, #12
 8004ec0:	46bd      	mov	sp, r7
 8004ec2:	f85d 7b04 	ldr.w	r7, [sp], #4
 8004ec6:	4770      	bx	lr

08004ec8 <UART_SetConfig>:
 8004ec8:	e92d 4fb0 	stmdb	sp!, {r4, r5, r7, r8, r9, sl, fp, lr}
 8004ecc:	b08a      	sub	sp, #40	; 0x28
 8004ece:	af00      	add	r7, sp, #0
 8004ed0:	60f8      	str	r0, [r7, #12]
 8004ed2:	2300      	movs	r3, #0
 8004ed4:	f887 3022 	strb.w	r3, [r7, #34]	; 0x22
 8004ed8:	68fb      	ldr	r3, [r7, #12]
 8004eda:	689a      	ldr	r2, [r3, #8]
 8004edc:	68fb      	ldr	r3, [r7, #12]
 8004ede:	691b      	ldr	r3, [r3, #16]
 8004ee0:	431a      	orrs	r2, r3
 8004ee2:	68fb      	ldr	r3, [r7, #12]
 8004ee4:	695b      	ldr	r3, [r3, #20]
 8004ee6:	431a      	orrs	r2, r3
 8004ee8:	68fb      	ldr	r3, [r7, #12]
 8004eea:	69db      	ldr	r3, [r3, #28]
 8004eec:	4313      	orrs	r3, r2
 8004eee:	627b      	str	r3, [r7, #36]	; 0x24
 8004ef0:	68fb      	ldr	r3, [r7, #12]
 8004ef2:	681b      	ldr	r3, [r3, #0]
 8004ef4:	681a      	ldr	r2, [r3, #0]
 8004ef6:	4ba5      	ldr	r3, [pc, #660]	; (800518c <UART_SetConfig+0x2c4>)
 8004ef8:	4013      	ands	r3, r2
 8004efa:	68fa      	ldr	r2, [r7, #12]
 8004efc:	6812      	ldr	r2, [r2, #0]
 8004efe:	6a79      	ldr	r1, [r7, #36]	; 0x24
 8004f00:	430b      	orrs	r3, r1
 8004f02:	6013      	str	r3, [r2, #0]
 8004f04:	68fb      	ldr	r3, [r7, #12]
 8004f06:	681b      	ldr	r3, [r3, #0]
 8004f08:	685b      	ldr	r3, [r3, #4]
 8004f0a:	f423 5140 	bic.w	r1, r3, #12288	; 0x3000
 8004f0e:	68fb      	ldr	r3, [r7, #12]
 8004f10:	68da      	ldr	r2, [r3, #12]
 8004f12:	68fb      	ldr	r3, [r7, #12]
 8004f14:	681b      	ldr	r3, [r3, #0]
 8004f16:	430a      	orrs	r2, r1
 8004f18:	605a      	str	r2, [r3, #4]
 8004f1a:	68fb      	ldr	r3, [r7, #12]
 8004f1c:	699b      	ldr	r3, [r3, #24]
 8004f1e:	627b      	str	r3, [r7, #36]	; 0x24
 8004f20:	68fb      	ldr	r3, [r7, #12]
 8004f22:	681b      	ldr	r3, [r3, #0]
 8004f24:	4a9a      	ldr	r2, [pc, #616]	; (8005190 <UART_SetConfig+0x2c8>)
 8004f26:	4293      	cmp	r3, r2
 8004f28:	d004      	beq.n	8004f34 <UART_SetConfig+0x6c>
 8004f2a:	68fb      	ldr	r3, [r7, #12]
 8004f2c:	6a1b      	ldr	r3, [r3, #32]
 8004f2e:	6a7a      	ldr	r2, [r7, #36]	; 0x24
 8004f30:	4313      	orrs	r3, r2
 8004f32:	627b      	str	r3, [r7, #36]	; 0x24
 8004f34:	68fb      	ldr	r3, [r7, #12]
 8004f36:	681b      	ldr	r3, [r3, #0]
 8004f38:	689b      	ldr	r3, [r3, #8]
 8004f3a:	f423 6130 	bic.w	r1, r3, #2816	; 0xb00
 8004f3e:	68fb      	ldr	r3, [r7, #12]
 8004f40:	681b      	ldr	r3, [r3, #0]
 8004f42:	6a7a      	ldr	r2, [r7, #36]	; 0x24
 8004f44:	430a      	orrs	r2, r1
 8004f46:	609a      	str	r2, [r3, #8]
 8004f48:	68fb      	ldr	r3, [r7, #12]
 8004f4a:	681b      	ldr	r3, [r3, #0]
 8004f4c:	4a91      	ldr	r2, [pc, #580]	; (8005194 <UART_SetConfig+0x2cc>)
 8004f4e:	4293      	cmp	r3, r2
 8004f50:	d126      	bne.n	8004fa0 <UART_SetConfig+0xd8>
 8004f52:	4b91      	ldr	r3, [pc, #580]	; (8005198 <UART_SetConfig+0x2d0>)
 8004f54:	f8d3 3088 	ldr.w	r3, [r3, #136]	; 0x88
 8004f58:	f003 0303 	and.w	r3, r3, #3
 8004f5c:	2b03      	cmp	r3, #3
 8004f5e:	d81b      	bhi.n	8004f98 <UART_SetConfig+0xd0>
 8004f60:	a201      	add	r2, pc, #4	; (adr r2, 8004f68 <UART_SetConfig+0xa0>)
 8004f62:	f852 f023 	ldr.w	pc, [r2, r3, lsl #2]
 8004f66:	bf00      	nop
 8004f68:	08004f79 	.word	0x08004f79
 8004f6c:	08004f89 	.word	0x08004f89
 8004f70:	08004f81 	.word	0x08004f81
 8004f74:	08004f91 	.word	0x08004f91
 8004f78:	2301      	movs	r3, #1
 8004f7a:	f887 3023 	strb.w	r3, [r7, #35]	; 0x23
 8004f7e:	e0d6      	b.n	800512e <UART_SetConfig+0x266>
 8004f80:	2302      	movs	r3, #2
 8004f82:	f887 3023 	strb.w	r3, [r7, #35]	; 0x23
 8004f86:	e0d2      	b.n	800512e <UART_SetConfig+0x266>
 8004f88:	2304      	movs	r3, #4
 8004f8a:	f887 3023 	strb.w	r3, [r7, #35]	; 0x23
 8004f8e:	e0ce      	b.n	800512e <UART_SetConfig+0x266>
 8004f90:	2308      	movs	r3, #8
 8004f92:	f887 3023 	strb.w	r3, [r7, #35]	; 0x23
 8004f96:	e0ca      	b.n	800512e <UART_SetConfig+0x266>
 8004f98:	2310      	movs	r3, #16
 8004f9a:	f887 3023 	strb.w	r3, [r7, #35]	; 0x23
 8004f9e:	e0c6      	b.n	800512e <UART_SetConfig+0x266>
 8004fa0:	68fb      	ldr	r3, [r7, #12]
 8004fa2:	681b      	ldr	r3, [r3, #0]
 8004fa4:	4a7d      	ldr	r2, [pc, #500]	; (800519c <UART_SetConfig+0x2d4>)
 8004fa6:	4293      	cmp	r3, r2
 8004fa8:	d138      	bne.n	800501c <UART_SetConfig+0x154>
 8004faa:	4b7b      	ldr	r3, [pc, #492]	; (8005198 <UART_SetConfig+0x2d0>)
 8004fac:	f8d3 3088 	ldr.w	r3, [r3, #136]	; 0x88
 8004fb0:	f003 030c 	and.w	r3, r3, #12
 8004fb4:	2b0c      	cmp	r3, #12
 8004fb6:	d82d      	bhi.n	8005014 <UART_SetConfig+0x14c>
 8004fb8:	a201      	add	r2, pc, #4	; (adr r2, 8004fc0 <UART_SetConfig+0xf8>)
 8004fba:	f852 f023 	ldr.w	pc, [r2, r3, lsl #2]
 8004fbe:	bf00      	nop
 8004fc0:	08004ff5 	.word	0x08004ff5
 8004fc4:	08005015 	.word	0x08005015
 8004fc8:	08005015 	.word	0x08005015
 8004fcc:	08005015 	.word	0x08005015
 8004fd0:	08005005 	.word	0x08005005
 8004fd4:	08005015 	.word	0x08005015
 8004fd8:	08005015 	.word	0x08005015
 8004fdc:	08005015 	.word	0x08005015
 8004fe0:	08004ffd 	.word	0x08004ffd
 8004fe4:	08005015 	.word	0x08005015
 8004fe8:	08005015 	.word	0x08005015
 8004fec:	08005015 	.word	0x08005015
 8004ff0:	0800500d 	.word	0x0800500d
 8004ff4:	2300      	movs	r3, #0
 8004ff6:	f887 3023 	strb.w	r3, [r7, #35]	; 0x23
 8004ffa:	e098      	b.n	800512e <UART_SetConfig+0x266>
 8004ffc:	2302      	movs	r3, #2
 8004ffe:	f887 3023 	strb.w	r3, [r7, #35]	; 0x23
 8005002:	e094      	b.n	800512e <UART_SetConfig+0x266>
 8005004:	2304      	movs	r3, #4
 8005006:	f887 3023 	strb.w	r3, [r7, #35]	; 0x23
 800500a:	e090      	b.n	800512e <UART_SetConfig+0x266>
 800500c:	2308      	movs	r3, #8
 800500e:	f887 3023 	strb.w	r3, [r7, #35]	; 0x23
 8005012:	e08c      	b.n	800512e <UART_SetConfig+0x266>
 8005014:	2310      	movs	r3, #16
 8005016:	f887 3023 	strb.w	r3, [r7, #35]	; 0x23
 800501a:	e088      	b.n	800512e <UART_SetConfig+0x266>
 800501c:	68fb      	ldr	r3, [r7, #12]
 800501e:	681b      	ldr	r3, [r3, #0]
 8005020:	4a5f      	ldr	r2, [pc, #380]	; (80051a0 <UART_SetConfig+0x2d8>)
 8005022:	4293      	cmp	r3, r2
 8005024:	d125      	bne.n	8005072 <UART_SetConfig+0x1aa>
 8005026:	4b5c      	ldr	r3, [pc, #368]	; (8005198 <UART_SetConfig+0x2d0>)
 8005028:	f8d3 3088 	ldr.w	r3, [r3, #136]	; 0x88
 800502c:	f003 0330 	and.w	r3, r3, #48	; 0x30
 8005030:	2b30      	cmp	r3, #48	; 0x30
 8005032:	d016      	beq.n	8005062 <UART_SetConfig+0x19a>
 8005034:	2b30      	cmp	r3, #48	; 0x30
 8005036:	d818      	bhi.n	800506a <UART_SetConfig+0x1a2>
 8005038:	2b20      	cmp	r3, #32
 800503a:	d00a      	beq.n	8005052 <UART_SetConfig+0x18a>
 800503c:	2b20      	cmp	r3, #32
 800503e:	d814      	bhi.n	800506a <UART_SetConfig+0x1a2>
 8005040:	2b00      	cmp	r3, #0
 8005042:	d002      	beq.n	800504a <UART_SetConfig+0x182>
 8005044:	2b10      	cmp	r3, #16
 8005046:	d008      	beq.n	800505a <UART_SetConfig+0x192>
 8005048:	e00f      	b.n	800506a <UART_SetConfig+0x1a2>
 800504a:	2300      	movs	r3, #0
 800504c:	f887 3023 	strb.w	r3, [r7, #35]	; 0x23
 8005050:	e06d      	b.n	800512e <UART_SetConfig+0x266>
 8005052:	2302      	movs	r3, #2
 8005054:	f887 3023 	strb.w	r3, [r7, #35]	; 0x23
 8005058:	e069      	b.n	800512e <UART_SetConfig+0x266>
 800505a:	2304      	movs	r3, #4
 800505c:	f887 3023 	strb.w	r3, [r7, #35]	; 0x23
 8005060:	e065      	b.n	800512e <UART_SetConfig+0x266>
 8005062:	2308      	movs	r3, #8
 8005064:	f887 3023 	strb.w	r3, [r7, #35]	; 0x23
 8005068:	e061      	b.n	800512e <UART_SetConfig+0x266>
 800506a:	2310      	movs	r3, #16
 800506c:	f887 3023 	strb.w	r3, [r7, #35]	; 0x23
 8005070:	e05d      	b.n	800512e <UART_SetConfig+0x266>
 8005072:	68fb      	ldr	r3, [r7, #12]
 8005074:	681b      	ldr	r3, [r3, #0]
 8005076:	4a4b      	ldr	r2, [pc, #300]	; (80051a4 <UART_SetConfig+0x2dc>)
 8005078:	4293      	cmp	r3, r2
 800507a:	d125      	bne.n	80050c8 <UART_SetConfig+0x200>
 800507c:	4b46      	ldr	r3, [pc, #280]	; (8005198 <UART_SetConfig+0x2d0>)
 800507e:	f8d3 3088 	ldr.w	r3, [r3, #136]	; 0x88
 8005082:	f003 03c0 	and.w	r3, r3, #192	; 0xc0
 8005086:	2bc0      	cmp	r3, #192	; 0xc0
 8005088:	d016      	beq.n	80050b8 <UART_SetConfig+0x1f0>
 800508a:	2bc0      	cmp	r3, #192	; 0xc0
 800508c:	d818      	bhi.n	80050c0 <UART_SetConfig+0x1f8>
 800508e:	2b80      	cmp	r3, #128	; 0x80
 8005090:	d00a      	beq.n	80050a8 <UART_SetConfig+0x1e0>
 8005092:	2b80      	cmp	r3, #128	; 0x80
 8005094:	d814      	bhi.n	80050c0 <UART_SetConfig+0x1f8>
 8005096:	2b00      	cmp	r3, #0
 8005098:	d002      	beq.n	80050a0 <UART_SetConfig+0x1d8>
 800509a:	2b40      	cmp	r3, #64	; 0x40
 800509c:	d008      	beq.n	80050b0 <UART_SetConfig+0x1e8>
 800509e:	e00f      	b.n	80050c0 <UART_SetConfig+0x1f8>
 80050a0:	2300      	movs	r3, #0
 80050a2:	f887 3023 	strb.w	r3, [r7, #35]	; 0x23
 80050a6:	e042      	b.n	800512e <UART_SetConfig+0x266>
 80050a8:	2302      	movs	r3, #2
 80050aa:	f887 3023 	strb.w	r3, [r7, #35]	; 0x23
 80050ae:	e03e      	b.n	800512e <UART_SetConfig+0x266>
 80050b0:	2304      	movs	r3, #4
 80050b2:	f887 3023 	strb.w	r3, [r7, #35]	; 0x23
 80050b6:	e03a      	b.n	800512e <UART_SetConfig+0x266>
 80050b8:	2308      	movs	r3, #8
 80050ba:	f887 3023 	strb.w	r3, [r7, #35]	; 0x23
 80050be:	e036      	b.n	800512e <UART_SetConfig+0x266>
 80050c0:	2310      	movs	r3, #16
 80050c2:	f887 3023 	strb.w	r3, [r7, #35]	; 0x23
 80050c6:	e032      	b.n	800512e <UART_SetConfig+0x266>
 80050c8:	68fb      	ldr	r3, [r7, #12]
 80050ca:	681b      	ldr	r3, [r3, #0]
 80050cc:	4a30      	ldr	r2, [pc, #192]	; (8005190 <UART_SetConfig+0x2c8>)
 80050ce:	4293      	cmp	r3, r2
 80050d0:	d12a      	bne.n	8005128 <UART_SetConfig+0x260>
 80050d2:	4b31      	ldr	r3, [pc, #196]	; (8005198 <UART_SetConfig+0x2d0>)
 80050d4:	f8d3 3088 	ldr.w	r3, [r3, #136]	; 0x88
 80050d8:	f403 6340 	and.w	r3, r3, #3072	; 0xc00
 80050dc:	f5b3 6f40 	cmp.w	r3, #3072	; 0xc00
 80050e0:	d01a      	beq.n	8005118 <UART_SetConfig+0x250>
 80050e2:	f5b3 6f40 	cmp.w	r3, #3072	; 0xc00
 80050e6:	d81b      	bhi.n	8005120 <UART_SetConfig+0x258>
 80050e8:	f5b3 6f00 	cmp.w	r3, #2048	; 0x800
 80050ec:	d00c      	beq.n	8005108 <UART_SetConfig+0x240>
 80050ee:	f5b3 6f00 	cmp.w	r3, #2048	; 0x800
 80050f2:	d815      	bhi.n	8005120 <UART_SetConfig+0x258>
 80050f4:	2b00      	cmp	r3, #0
 80050f6:	d003      	beq.n	8005100 <UART_SetConfig+0x238>
 80050f8:	f5b3 6f80 	cmp.w	r3, #1024	; 0x400
 80050fc:	d008      	beq.n	8005110 <UART_SetConfig+0x248>
 80050fe:	e00f      	b.n	8005120 <UART_SetConfig+0x258>
 8005100:	2300      	movs	r3, #0
 8005102:	f887 3023 	strb.w	r3, [r7, #35]	; 0x23
 8005106:	e012      	b.n	800512e <UART_SetConfig+0x266>
 8005108:	2302      	movs	r3, #2
 800510a:	f887 3023 	strb.w	r3, [r7, #35]	; 0x23
 800510e:	e00e      	b.n	800512e <UART_SetConfig+0x266>
 8005110:	2304      	movs	r3, #4
 8005112:	f887 3023 	strb.w	r3, [r7, #35]	; 0x23
 8005116:	e00a      	b.n	800512e <UART_SetConfig+0x266>
 8005118:	2308      	movs	r3, #8
 800511a:	f887 3023 	strb.w	r3, [r7, #35]	; 0x23
 800511e:	e006      	b.n	800512e <UART_SetConfig+0x266>
 8005120:	2310      	movs	r3, #16
 8005122:	f887 3023 	strb.w	r3, [r7, #35]	; 0x23
 8005126:	e002      	b.n	800512e <UART_SetConfig+0x266>
 8005128:	2310      	movs	r3, #16
 800512a:	f887 3023 	strb.w	r3, [r7, #35]	; 0x23
 800512e:	68fb      	ldr	r3, [r7, #12]
 8005130:	681b      	ldr	r3, [r3, #0]
 8005132:	4a17      	ldr	r2, [pc, #92]	; (8005190 <UART_SetConfig+0x2c8>)
 8005134:	4293      	cmp	r3, r2
 8005136:	f040 808b 	bne.w	8005250 <UART_SetConfig+0x388>
 800513a:	f897 3023 	ldrb.w	r3, [r7, #35]	; 0x23
 800513e:	2b08      	cmp	r3, #8
 8005140:	d834      	bhi.n	80051ac <UART_SetConfig+0x2e4>
 8005142:	a201      	add	r2, pc, #4	; (adr r2, 8005148 <UART_SetConfig+0x280>)
 8005144:	f852 f023 	ldr.w	pc, [r2, r3, lsl #2]
 8005148:	0800516d 	.word	0x0800516d
 800514c:	080051ad 	.word	0x080051ad
 8005150:	08005175 	.word	0x08005175
 8005154:	080051ad 	.word	0x080051ad
 8005158:	0800517b 	.word	0x0800517b
 800515c:	080051ad 	.word	0x080051ad
 8005160:	080051ad 	.word	0x080051ad
 8005164:	080051ad 	.word	0x080051ad
 8005168:	08005183 	.word	0x08005183
 800516c:	f7fe fad8 	bl	8003720 <HAL_RCC_GetPCLK1Freq>
 8005170:	61f8      	str	r0, [r7, #28]
 8005172:	e021      	b.n	80051b8 <UART_SetConfig+0x2f0>
 8005174:	4b0c      	ldr	r3, [pc, #48]	; (80051a8 <UART_SetConfig+0x2e0>)
 8005176:	61fb      	str	r3, [r7, #28]
 8005178:	e01e      	b.n	80051b8 <UART_SetConfig+0x2f0>
 800517a:	f7fe fa39 	bl	80035f0 <HAL_RCC_GetSysClockFreq>
 800517e:	61f8      	str	r0, [r7, #28]
 8005180:	e01a      	b.n	80051b8 <UART_SetConfig+0x2f0>
 8005182:	f44f 4300 	mov.w	r3, #32768	; 0x8000
 8005186:	61fb      	str	r3, [r7, #28]
 8005188:	e016      	b.n	80051b8 <UART_SetConfig+0x2f0>
 800518a:	bf00      	nop
 800518c:	efff69f3 	.word	0xefff69f3
 8005190:	40008000 	.word	0x40008000
 8005194:	40013800 	.word	0x40013800
 8005198:	40021000 	.word	0x40021000
 800519c:	40004400 	.word	0x40004400
 80051a0:	40004800 	.word	0x40004800
 80051a4:	40004c00 	.word	0x40004c00
 80051a8:	00f42400 	.word	0x00f42400
 80051ac:	2300      	movs	r3, #0
 80051ae:	61fb      	str	r3, [r7, #28]
 80051b0:	2301      	movs	r3, #1
 80051b2:	f887 3022 	strb.w	r3, [r7, #34]	; 0x22
 80051b6:	bf00      	nop
 80051b8:	69fb      	ldr	r3, [r7, #28]
 80051ba:	2b00      	cmp	r3, #0
 80051bc:	f000 80fa 	beq.w	80053b4 <UART_SetConfig+0x4ec>
 80051c0:	68fb      	ldr	r3, [r7, #12]
 80051c2:	685a      	ldr	r2, [r3, #4]
 80051c4:	4613      	mov	r3, r2
 80051c6:	005b      	lsls	r3, r3, #1
 80051c8:	4413      	add	r3, r2
 80051ca:	69fa      	ldr	r2, [r7, #28]
 80051cc:	429a      	cmp	r2, r3
 80051ce:	d305      	bcc.n	80051dc <UART_SetConfig+0x314>
 80051d0:	68fb      	ldr	r3, [r7, #12]
 80051d2:	685b      	ldr	r3, [r3, #4]
 80051d4:	031b      	lsls	r3, r3, #12
 80051d6:	69fa      	ldr	r2, [r7, #28]
 80051d8:	429a      	cmp	r2, r3
 80051da:	d903      	bls.n	80051e4 <UART_SetConfig+0x31c>
 80051dc:	2301      	movs	r3, #1
 80051de:	f887 3022 	strb.w	r3, [r7, #34]	; 0x22
 80051e2:	e0e7      	b.n	80053b4 <UART_SetConfig+0x4ec>
 80051e4:	69fb      	ldr	r3, [r7, #28]
 80051e6:	2200      	movs	r2, #0
 80051e8:	461c      	mov	r4, r3
 80051ea:	4615      	mov	r5, r2
 80051ec:	f04f 0200 	mov.w	r2, #0
 80051f0:	f04f 0300 	mov.w	r3, #0
 80051f4:	022b      	lsls	r3, r5, #8
 80051f6:	ea43 6314 	orr.w	r3, r3, r4, lsr #24
 80051fa:	0222      	lsls	r2, r4, #8
 80051fc:	68f9      	ldr	r1, [r7, #12]
 80051fe:	6849      	ldr	r1, [r1, #4]
 8005200:	0849      	lsrs	r1, r1, #1
 8005202:	2000      	movs	r0, #0
 8005204:	4688      	mov	r8, r1
 8005206:	4681      	mov	r9, r0
 8005208:	eb12 0a08 	adds.w	sl, r2, r8
 800520c:	eb43 0b09 	adc.w	fp, r3, r9
 8005210:	68fb      	ldr	r3, [r7, #12]
 8005212:	685b      	ldr	r3, [r3, #4]
 8005214:	2200      	movs	r2, #0
 8005216:	603b      	str	r3, [r7, #0]
 8005218:	607a      	str	r2, [r7, #4]
 800521a:	e9d7 2300 	ldrd	r2, r3, [r7]
 800521e:	4650      	mov	r0, sl
 8005220:	4659      	mov	r1, fp
 8005222:	f7fb f835 	bl	8000290 <__aeabi_uldivmod>
 8005226:	4602      	mov	r2, r0
 8005228:	460b      	mov	r3, r1
 800522a:	4613      	mov	r3, r2
 800522c:	61bb      	str	r3, [r7, #24]
 800522e:	69bb      	ldr	r3, [r7, #24]
 8005230:	f5b3 7f40 	cmp.w	r3, #768	; 0x300
 8005234:	d308      	bcc.n	8005248 <UART_SetConfig+0x380>
 8005236:	69bb      	ldr	r3, [r7, #24]
 8005238:	f5b3 1f80 	cmp.w	r3, #1048576	; 0x100000
 800523c:	d204      	bcs.n	8005248 <UART_SetConfig+0x380>
 800523e:	68fb      	ldr	r3, [r7, #12]
 8005240:	681b      	ldr	r3, [r3, #0]
 8005242:	69ba      	ldr	r2, [r7, #24]
 8005244:	60da      	str	r2, [r3, #12]
 8005246:	e0b5      	b.n	80053b4 <UART_SetConfig+0x4ec>
 8005248:	2301      	movs	r3, #1
 800524a:	f887 3022 	strb.w	r3, [r7, #34]	; 0x22
 800524e:	e0b1      	b.n	80053b4 <UART_SetConfig+0x4ec>
 8005250:	68fb      	ldr	r3, [r7, #12]
 8005252:	69db      	ldr	r3, [r3, #28]
 8005254:	f5b3 4f00 	cmp.w	r3, #32768	; 0x8000
 8005258:	d15d      	bne.n	8005316 <UART_SetConfig+0x44e>
 800525a:	f897 3023 	ldrb.w	r3, [r7, #35]	; 0x23
 800525e:	2b08      	cmp	r3, #8
 8005260:	d827      	bhi.n	80052b2 <UART_SetConfig+0x3ea>
 8005262:	a201      	add	r2, pc, #4	; (adr r2, 8005268 <UART_SetConfig+0x3a0>)
 8005264:	f852 f023 	ldr.w	pc, [r2, r3, lsl #2]
 8005268:	0800528d 	.word	0x0800528d
 800526c:	08005295 	.word	0x08005295
 8005270:	0800529d 	.word	0x0800529d
 8005274:	080052b3 	.word	0x080052b3
 8005278:	080052a3 	.word	0x080052a3
 800527c:	080052b3 	.word	0x080052b3
 8005280:	080052b3 	.word	0x080052b3
 8005284:	080052b3 	.word	0x080052b3
 8005288:	080052ab 	.word	0x080052ab
 800528c:	f7fe fa48 	bl	8003720 <HAL_RCC_GetPCLK1Freq>
 8005290:	61f8      	str	r0, [r7, #28]
 8005292:	e014      	b.n	80052be <UART_SetConfig+0x3f6>
 8005294:	f7fe fa5a 	bl	800374c <HAL_RCC_GetPCLK2Freq>
 8005298:	61f8      	str	r0, [r7, #28]
 800529a:	e010      	b.n	80052be <UART_SetConfig+0x3f6>
 800529c:	4b4c      	ldr	r3, [pc, #304]	; (80053d0 <UART_SetConfig+0x508>)
 800529e:	61fb      	str	r3, [r7, #28]
 80052a0:	e00d      	b.n	80052be <UART_SetConfig+0x3f6>
 80052a2:	f7fe f9a5 	bl	80035f0 <HAL_RCC_GetSysClockFreq>
 80052a6:	61f8      	str	r0, [r7, #28]
 80052a8:	e009      	b.n	80052be <UART_SetConfig+0x3f6>
 80052aa:	f44f 4300 	mov.w	r3, #32768	; 0x8000
 80052ae:	61fb      	str	r3, [r7, #28]
 80052b0:	e005      	b.n	80052be <UART_SetConfig+0x3f6>
 80052b2:	2300      	movs	r3, #0
 80052b4:	61fb      	str	r3, [r7, #28]
 80052b6:	2301      	movs	r3, #1
 80052b8:	f887 3022 	strb.w	r3, [r7, #34]	; 0x22
 80052bc:	bf00      	nop
 80052be:	69fb      	ldr	r3, [r7, #28]
 80052c0:	2b00      	cmp	r3, #0
 80052c2:	d077      	beq.n	80053b4 <UART_SetConfig+0x4ec>
 80052c4:	69fb      	ldr	r3, [r7, #28]
 80052c6:	005a      	lsls	r2, r3, #1
 80052c8:	68fb      	ldr	r3, [r7, #12]
 80052ca:	685b      	ldr	r3, [r3, #4]
 80052cc:	085b      	lsrs	r3, r3, #1
 80052ce:	441a      	add	r2, r3
 80052d0:	68fb      	ldr	r3, [r7, #12]
 80052d2:	685b      	ldr	r3, [r3, #4]
 80052d4:	fbb2 f3f3 	udiv	r3, r2, r3
 80052d8:	61bb      	str	r3, [r7, #24]
 80052da:	69bb      	ldr	r3, [r7, #24]
 80052dc:	2b0f      	cmp	r3, #15
 80052de:	d916      	bls.n	800530e <UART_SetConfig+0x446>
 80052e0:	69bb      	ldr	r3, [r7, #24]
 80052e2:	f5b3 3f80 	cmp.w	r3, #65536	; 0x10000
 80052e6:	d212      	bcs.n	800530e <UART_SetConfig+0x446>
 80052e8:	69bb      	ldr	r3, [r7, #24]
 80052ea:	b29b      	uxth	r3, r3
 80052ec:	f023 030f 	bic.w	r3, r3, #15
 80052f0:	82fb      	strh	r3, [r7, #22]
 80052f2:	69bb      	ldr	r3, [r7, #24]
 80052f4:	085b      	lsrs	r3, r3, #1
 80052f6:	b29b      	uxth	r3, r3
 80052f8:	f003 0307 	and.w	r3, r3, #7
 80052fc:	b29a      	uxth	r2, r3
 80052fe:	8afb      	ldrh	r3, [r7, #22]
 8005300:	4313      	orrs	r3, r2
 8005302:	82fb      	strh	r3, [r7, #22]
 8005304:	68fb      	ldr	r3, [r7, #12]
 8005306:	681b      	ldr	r3, [r3, #0]
 8005308:	8afa      	ldrh	r2, [r7, #22]
 800530a:	60da      	str	r2, [r3, #12]
 800530c:	e052      	b.n	80053b4 <UART_SetConfig+0x4ec>
 800530e:	2301      	movs	r3, #1
 8005310:	f887 3022 	strb.w	r3, [r7, #34]	; 0x22
 8005314:	e04e      	b.n	80053b4 <UART_SetConfig+0x4ec>
 8005316:	f897 3023 	ldrb.w	r3, [r7, #35]	; 0x23
 800531a:	2b08      	cmp	r3, #8
 800531c:	d827      	bhi.n	800536e <UART_SetConfig+0x4a6>
 800531e:	a201      	add	r2, pc, #4	; (adr r2, 8005324 <UART_SetConfig+0x45c>)
 8005320:	f852 f023 	ldr.w	pc, [r2, r3, lsl #2]
 8005324:	08005349 	.word	0x08005349
 8005328:	08005351 	.word	0x08005351
 800532c:	08005359 	.word	0x08005359
 8005330:	0800536f 	.word	0x0800536f
 8005334:	0800535f 	.word	0x0800535f
 8005338:	0800536f 	.word	0x0800536f
 800533c:	0800536f 	.word	0x0800536f
 8005340:	0800536f 	.word	0x0800536f
 8005344:	08005367 	.word	0x08005367
 8005348:	f7fe f9ea 	bl	8003720 <HAL_RCC_GetPCLK1Freq>
 800534c:	61f8      	str	r0, [r7, #28]
 800534e:	e014      	b.n	800537a <UART_SetConfig+0x4b2>
 8005350:	f7fe f9fc 	bl	800374c <HAL_RCC_GetPCLK2Freq>
 8005354:	61f8      	str	r0, [r7, #28]
 8005356:	e010      	b.n	800537a <UART_SetConfig+0x4b2>
 8005358:	4b1d      	ldr	r3, [pc, #116]	; (80053d0 <UART_SetConfig+0x508>)
 800535a:	61fb      	str	r3, [r7, #28]
 800535c:	e00d      	b.n	800537a <UART_SetConfig+0x4b2>
 800535e:	f7fe f947 	bl	80035f0 <HAL_RCC_GetSysClockFreq>
 8005362:	61f8      	str	r0, [r7, #28]
 8005364:	e009      	b.n	800537a <UART_SetConfig+0x4b2>
 8005366:	f44f 4300 	mov.w	r3, #32768	; 0x8000
 800536a:	61fb      	str	r3, [r7, #28]
 800536c:	e005      	b.n	800537a <UART_SetConfig+0x4b2>
 800536e:	2300      	movs	r3, #0
 8005370:	61fb      	str	r3, [r7, #28]
 8005372:	2301      	movs	r3, #1
 8005374:	f887 3022 	strb.w	r3, [r7, #34]	; 0x22
 8005378:	bf00      	nop
 800537a:	69fb      	ldr	r3, [r7, #28]
 800537c:	2b00      	cmp	r3, #0
 800537e:	d019      	beq.n	80053b4 <UART_SetConfig+0x4ec>
 8005380:	68fb      	ldr	r3, [r7, #12]
 8005382:	685b      	ldr	r3, [r3, #4]
 8005384:	085a      	lsrs	r2, r3, #1
 8005386:	69fb      	ldr	r3, [r7, #28]
 8005388:	441a      	add	r2, r3
 800538a:	68fb      	ldr	r3, [r7, #12]
 800538c:	685b      	ldr	r3, [r3, #4]
 800538e:	fbb2 f3f3 	udiv	r3, r2, r3
 8005392:	61bb      	str	r3, [r7, #24]
 8005394:	69bb      	ldr	r3, [r7, #24]
 8005396:	2b0f      	cmp	r3, #15
 8005398:	d909      	bls.n	80053ae <UART_SetConfig+0x4e6>
 800539a:	69bb      	ldr	r3, [r7, #24]
 800539c:	f5b3 3f80 	cmp.w	r3, #65536	; 0x10000
 80053a0:	d205      	bcs.n	80053ae <UART_SetConfig+0x4e6>
 80053a2:	69bb      	ldr	r3, [r7, #24]
 80053a4:	b29a      	uxth	r2, r3
 80053a6:	68fb      	ldr	r3, [r7, #12]
 80053a8:	681b      	ldr	r3, [r3, #0]
 80053aa:	60da      	str	r2, [r3, #12]
 80053ac:	e002      	b.n	80053b4 <UART_SetConfig+0x4ec>
 80053ae:	2301      	movs	r3, #1
 80053b0:	f887 3022 	strb.w	r3, [r7, #34]	; 0x22
 80053b4:	68fb      	ldr	r3, [r7, #12]
 80053b6:	2200      	movs	r2, #0
 80053b8:	669a      	str	r2, [r3, #104]	; 0x68
 80053ba:	68fb      	ldr	r3, [r7, #12]
 80053bc:	2200      	movs	r2, #0
 80053be:	66da      	str	r2, [r3, #108]	; 0x6c
 80053c0:	f897 3022 	ldrb.w	r3, [r7, #34]	; 0x22
 80053c4:	4618      	mov	r0, r3
 80053c6:	3728      	adds	r7, #40	; 0x28
 80053c8:	46bd      	mov	sp, r7
 80053ca:	e8bd 8fb0 	ldmia.w	sp!, {r4, r5, r7, r8, r9, sl, fp, pc}
 80053ce:	bf00      	nop
 80053d0:	00f42400 	.word	0x00f42400

080053d4 <UART_AdvFeatureConfig>:
 80053d4:	b480      	push	{r7}
 80053d6:	b083      	sub	sp, #12
 80053d8:	af00      	add	r7, sp, #0
 80053da:	6078      	str	r0, [r7, #4]
 80053dc:	687b      	ldr	r3, [r7, #4]
 80053de:	6a5b      	ldr	r3, [r3, #36]	; 0x24
 80053e0:	f003 0308 	and.w	r3, r3, #8
 80053e4:	2b00      	cmp	r3, #0
 80053e6:	d00a      	beq.n	80053fe <UART_AdvFeatureConfig+0x2a>
 80053e8:	687b      	ldr	r3, [r7, #4]
 80053ea:	681b      	ldr	r3, [r3, #0]
 80053ec:	685b      	ldr	r3, [r3, #4]
 80053ee:	f423 4100 	bic.w	r1, r3, #32768	; 0x8000
 80053f2:	687b      	ldr	r3, [r7, #4]
 80053f4:	6b5a      	ldr	r2, [r3, #52]	; 0x34
 80053f6:	687b      	ldr	r3, [r7, #4]
 80053f8:	681b      	ldr	r3, [r3, #0]
 80053fa:	430a      	orrs	r2, r1
 80053fc:	605a      	str	r2, [r3, #4]
 80053fe:	687b      	ldr	r3, [r7, #4]
 8005400:	6a5b      	ldr	r3, [r3, #36]	; 0x24
 8005402:	f003 0301 	and.w	r3, r3, #1
 8005406:	2b00      	cmp	r3, #0
 8005408:	d00a      	beq.n	8005420 <UART_AdvFeatureConfig+0x4c>
 800540a:	687b      	ldr	r3, [r7, #4]
 800540c:	681b      	ldr	r3, [r3, #0]
 800540e:	685b      	ldr	r3, [r3, #4]
 8005410:	f423 3100 	bic.w	r1, r3, #131072	; 0x20000
 8005414:	687b      	ldr	r3, [r7, #4]
 8005416:	6a9a      	ldr	r2, [r3, #40]	; 0x28
 8005418:	687b      	ldr	r3, [r7, #4]
 800541a:	681b      	ldr	r3, [r3, #0]
 800541c:	430a      	orrs	r2, r1
 800541e:	605a      	str	r2, [r3, #4]
 8005420:	687b      	ldr	r3, [r7, #4]
 8005422:	6a5b      	ldr	r3, [r3, #36]	; 0x24
 8005424:	f003 0302 	and.w	r3, r3, #2
 8005428:	2b00      	cmp	r3, #0
 800542a:	d00a      	beq.n	8005442 <UART_AdvFeatureConfig+0x6e>
 800542c:	687b      	ldr	r3, [r7, #4]
 800542e:	681b      	ldr	r3, [r3, #0]
 8005430:	685b      	ldr	r3, [r3, #4]
 8005432:	f423 3180 	bic.w	r1, r3, #65536	; 0x10000
 8005436:	687b      	ldr	r3, [r7, #4]
 8005438:	6ada      	ldr	r2, [r3, #44]	; 0x2c
 800543a:	687b      	ldr	r3, [r7, #4]
 800543c:	681b      	ldr	r3, [r3, #0]
 800543e:	430a      	orrs	r2, r1
 8005440:	605a      	str	r2, [r3, #4]
 8005442:	687b      	ldr	r3, [r7, #4]
 8005444:	6a5b      	ldr	r3, [r3, #36]	; 0x24
 8005446:	f003 0304 	and.w	r3, r3, #4
 800544a:	2b00      	cmp	r3, #0
 800544c:	d00a      	beq.n	8005464 <UART_AdvFeatureConfig+0x90>
 800544e:	687b      	ldr	r3, [r7, #4]
 8005450:	681b      	ldr	r3, [r3, #0]
 8005452:	685b      	ldr	r3, [r3, #4]
 8005454:	f423 2180 	bic.w	r1, r3, #262144	; 0x40000
 8005458:	687b      	ldr	r3, [r7, #4]
 800545a:	6b1a      	ldr	r2, [r3, #48]	; 0x30
 800545c:	687b      	ldr	r3, [r7, #4]
 800545e:	681b      	ldr	r3, [r3, #0]
 8005460:	430a      	orrs	r2, r1
 8005462:	605a      	str	r2, [r3, #4]
 8005464:	687b      	ldr	r3, [r7, #4]
 8005466:	6a5b      	ldr	r3, [r3, #36]	; 0x24
 8005468:	f003 0310 	and.w	r3, r3, #16
 800546c:	2b00      	cmp	r3, #0
 800546e:	d00a      	beq.n	8005486 <UART_AdvFeatureConfig+0xb2>
 8005470:	687b      	ldr	r3, [r7, #4]
 8005472:	681b      	ldr	r3, [r3, #0]
 8005474:	689b      	ldr	r3, [r3, #8]
 8005476:	f423 5180 	bic.w	r1, r3, #4096	; 0x1000
 800547a:	687b      	ldr	r3, [r7, #4]
 800547c:	6b9a      	ldr	r2, [r3, #56]	; 0x38
 800547e:	687b      	ldr	r3, [r7, #4]
 8005480:	681b      	ldr	r3, [r3, #0]
 8005482:	430a      	orrs	r2, r1
 8005484:	609a      	str	r2, [r3, #8]
 8005486:	687b      	ldr	r3, [r7, #4]
 8005488:	6a5b      	ldr	r3, [r3, #36]	; 0x24
 800548a:	f003 0320 	and.w	r3, r3, #32
 800548e:	2b00      	cmp	r3, #0
 8005490:	d00a      	beq.n	80054a8 <UART_AdvFeatureConfig+0xd4>
 8005492:	687b      	ldr	r3, [r7, #4]
 8005494:	681b      	ldr	r3, [r3, #0]
 8005496:	689b      	ldr	r3, [r3, #8]
 8005498:	f423 5100 	bic.w	r1, r3, #8192	; 0x2000
 800549c:	687b      	ldr	r3, [r7, #4]
 800549e:	6bda      	ldr	r2, [r3, #60]	; 0x3c
 80054a0:	687b      	ldr	r3, [r7, #4]
 80054a2:	681b      	ldr	r3, [r3, #0]
 80054a4:	430a      	orrs	r2, r1
 80054a6:	609a      	str	r2, [r3, #8]
 80054a8:	687b      	ldr	r3, [r7, #4]
 80054aa:	6a5b      	ldr	r3, [r3, #36]	; 0x24
 80054ac:	f003 0340 	and.w	r3, r3, #64	; 0x40
 80054b0:	2b00      	cmp	r3, #0
 80054b2:	d01a      	beq.n	80054ea <UART_AdvFeatureConfig+0x116>
 80054b4:	687b      	ldr	r3, [r7, #4]
 80054b6:	681b      	ldr	r3, [r3, #0]
 80054b8:	685b      	ldr	r3, [r3, #4]
 80054ba:	f423 1180 	bic.w	r1, r3, #1048576	; 0x100000
 80054be:	687b      	ldr	r3, [r7, #4]
 80054c0:	6c1a      	ldr	r2, [r3, #64]	; 0x40
 80054c2:	687b      	ldr	r3, [r7, #4]
 80054c4:	681b      	ldr	r3, [r3, #0]
 80054c6:	430a      	orrs	r2, r1
 80054c8:	605a      	str	r2, [r3, #4]
 80054ca:	687b      	ldr	r3, [r7, #4]
 80054cc:	6c1b      	ldr	r3, [r3, #64]	; 0x40
 80054ce:	f5b3 1f80 	cmp.w	r3, #1048576	; 0x100000
 80054d2:	d10a      	bne.n	80054ea <UART_AdvFeatureConfig+0x116>
 80054d4:	687b      	ldr	r3, [r7, #4]
 80054d6:	681b      	ldr	r3, [r3, #0]
 80054d8:	685b      	ldr	r3, [r3, #4]
 80054da:	f423 01c0 	bic.w	r1, r3, #6291456	; 0x600000
 80054de:	687b      	ldr	r3, [r7, #4]
 80054e0:	6c5a      	ldr	r2, [r3, #68]	; 0x44
 80054e2:	687b      	ldr	r3, [r7, #4]
 80054e4:	681b      	ldr	r3, [r3, #0]
 80054e6:	430a      	orrs	r2, r1
 80054e8:	605a      	str	r2, [r3, #4]
 80054ea:	687b      	ldr	r3, [r7, #4]
 80054ec:	6a5b      	ldr	r3, [r3, #36]	; 0x24
 80054ee:	f003 0380 	and.w	r3, r3, #128	; 0x80
 80054f2:	2b00      	cmp	r3, #0
 80054f4:	d00a      	beq.n	800550c <UART_AdvFeatureConfig+0x138>
 80054f6:	687b      	ldr	r3, [r7, #4]
 80054f8:	681b      	ldr	r3, [r3, #0]
 80054fa:	685b      	ldr	r3, [r3, #4]
 80054fc:	f423 2100 	bic.w	r1, r3, #524288	; 0x80000
 8005500:	687b      	ldr	r3, [r7, #4]
 8005502:	6c9a      	ldr	r2, [r3, #72]	; 0x48
 8005504:	687b      	ldr	r3, [r7, #4]
 8005506:	681b      	ldr	r3, [r3, #0]
 8005508:	430a      	orrs	r2, r1
 800550a:	605a      	str	r2, [r3, #4]
 800550c:	bf00      	nop
 800550e:	370c      	adds	r7, #12
 8005510:	46bd      	mov	sp, r7
 8005512:	f85d 7b04 	ldr.w	r7, [sp], #4
 8005516:	4770      	bx	lr

08005518 <UART_CheckIdleState>:
 8005518:	b580      	push	{r7, lr}
 800551a:	b098      	sub	sp, #96	; 0x60
 800551c:	af02      	add	r7, sp, #8
 800551e:	6078      	str	r0, [r7, #4]
 8005520:	687b      	ldr	r3, [r7, #4]
 8005522:	2200      	movs	r2, #0
 8005524:	f8c3 2084 	str.w	r2, [r3, #132]	; 0x84
 8005528:	f7fc f966 	bl	80017f8 <HAL_GetTick>
 800552c:	6578      	str	r0, [r7, #84]	; 0x54
 800552e:	687b      	ldr	r3, [r7, #4]
 8005530:	681b      	ldr	r3, [r3, #0]
 8005532:	681b      	ldr	r3, [r3, #0]
 8005534:	f003 0308 	and.w	r3, r3, #8
 8005538:	2b08      	cmp	r3, #8
 800553a:	d12e      	bne.n	800559a <UART_CheckIdleState+0x82>
 800553c:	f06f 437e 	mvn.w	r3, #4261412864	; 0xfe000000
 8005540:	9300      	str	r3, [sp, #0]
 8005542:	6d7b      	ldr	r3, [r7, #84]	; 0x54
 8005544:	2200      	movs	r2, #0
 8005546:	f44f 1100 	mov.w	r1, #2097152	; 0x200000
 800554a:	6878      	ldr	r0, [r7, #4]
 800554c:	f000 f88c 	bl	8005668 <UART_WaitOnFlagUntilTimeout>
 8005550:	4603      	mov	r3, r0
 8005552:	2b00      	cmp	r3, #0
 8005554:	d021      	beq.n	800559a <UART_CheckIdleState+0x82>
 8005556:	687b      	ldr	r3, [r7, #4]
 8005558:	681b      	ldr	r3, [r3, #0]
 800555a:	63bb      	str	r3, [r7, #56]	; 0x38
 800555c:	6bbb      	ldr	r3, [r7, #56]	; 0x38
 800555e:	e853 3f00 	ldrex	r3, [r3]
 8005562:	637b      	str	r3, [r7, #52]	; 0x34
 8005564:	6b7b      	ldr	r3, [r7, #52]	; 0x34
 8005566:	f023 0380 	bic.w	r3, r3, #128	; 0x80
 800556a:	653b      	str	r3, [r7, #80]	; 0x50
 800556c:	687b      	ldr	r3, [r7, #4]
 800556e:	681b      	ldr	r3, [r3, #0]
 8005570:	461a      	mov	r2, r3
 8005572:	6d3b      	ldr	r3, [r7, #80]	; 0x50
 8005574:	647b      	str	r3, [r7, #68]	; 0x44
 8005576:	643a      	str	r2, [r7, #64]	; 0x40
 8005578:	6c39      	ldr	r1, [r7, #64]	; 0x40
 800557a:	6c7a      	ldr	r2, [r7, #68]	; 0x44
 800557c:	e841 2300 	strex	r3, r2, [r1]
 8005580:	63fb      	str	r3, [r7, #60]	; 0x3c
 8005582:	6bfb      	ldr	r3, [r7, #60]	; 0x3c
 8005584:	2b00      	cmp	r3, #0
 8005586:	d1e6      	bne.n	8005556 <UART_CheckIdleState+0x3e>
 8005588:	687b      	ldr	r3, [r7, #4]
 800558a:	2220      	movs	r2, #32
 800558c:	67da      	str	r2, [r3, #124]	; 0x7c
 800558e:	687b      	ldr	r3, [r7, #4]
 8005590:	2200      	movs	r2, #0
 8005592:	f883 2078 	strb.w	r2, [r3, #120]	; 0x78
 8005596:	2303      	movs	r3, #3
 8005598:	e062      	b.n	8005660 <UART_CheckIdleState+0x148>
 800559a:	687b      	ldr	r3, [r7, #4]
 800559c:	681b      	ldr	r3, [r3, #0]
 800559e:	681b      	ldr	r3, [r3, #0]
 80055a0:	f003 0304 	and.w	r3, r3, #4
 80055a4:	2b04      	cmp	r3, #4
 80055a6:	d149      	bne.n	800563c <UART_CheckIdleState+0x124>
 80055a8:	f06f 437e 	mvn.w	r3, #4261412864	; 0xfe000000
 80055ac:	9300      	str	r3, [sp, #0]
 80055ae:	6d7b      	ldr	r3, [r7, #84]	; 0x54
 80055b0:	2200      	movs	r2, #0
 80055b2:	f44f 0180 	mov.w	r1, #4194304	; 0x400000
 80055b6:	6878      	ldr	r0, [r7, #4]
 80055b8:	f000 f856 	bl	8005668 <UART_WaitOnFlagUntilTimeout>
 80055bc:	4603      	mov	r3, r0
 80055be:	2b00      	cmp	r3, #0
 80055c0:	d03c      	beq.n	800563c <UART_CheckIdleState+0x124>
 80055c2:	687b      	ldr	r3, [r7, #4]
 80055c4:	681b      	ldr	r3, [r3, #0]
 80055c6:	627b      	str	r3, [r7, #36]	; 0x24
 80055c8:	6a7b      	ldr	r3, [r7, #36]	; 0x24
 80055ca:	e853 3f00 	ldrex	r3, [r3]
 80055ce:	623b      	str	r3, [r7, #32]
 80055d0:	6a3b      	ldr	r3, [r7, #32]
 80055d2:	f423 7390 	bic.w	r3, r3, #288	; 0x120
 80055d6:	64fb      	str	r3, [r7, #76]	; 0x4c
 80055d8:	687b      	ldr	r3, [r7, #4]
 80055da:	681b      	ldr	r3, [r3, #0]
 80055dc:	461a      	mov	r2, r3
 80055de:	6cfb      	ldr	r3, [r7, #76]	; 0x4c
 80055e0:	633b      	str	r3, [r7, #48]	; 0x30
 80055e2:	62fa      	str	r2, [r7, #44]	; 0x2c
 80055e4:	6af9      	ldr	r1, [r7, #44]	; 0x2c
 80055e6:	6b3a      	ldr	r2, [r7, #48]	; 0x30
 80055e8:	e841 2300 	strex	r3, r2, [r1]
 80055ec:	62bb      	str	r3, [r7, #40]	; 0x28
 80055ee:	6abb      	ldr	r3, [r7, #40]	; 0x28
 80055f0:	2b00      	cmp	r3, #0
 80055f2:	d1e6      	bne.n	80055c2 <UART_CheckIdleState+0xaa>
 80055f4:	687b      	ldr	r3, [r7, #4]
 80055f6:	681b      	ldr	r3, [r3, #0]
 80055f8:	3308      	adds	r3, #8
 80055fa:	613b      	str	r3, [r7, #16]
 80055fc:	693b      	ldr	r3, [r7, #16]
 80055fe:	e853 3f00 	ldrex	r3, [r3]
 8005602:	60fb      	str	r3, [r7, #12]
 8005604:	68fb      	ldr	r3, [r7, #12]
 8005606:	f023 0301 	bic.w	r3, r3, #1
 800560a:	64bb      	str	r3, [r7, #72]	; 0x48
 800560c:	687b      	ldr	r3, [r7, #4]
 800560e:	681b      	ldr	r3, [r3, #0]
 8005610:	3308      	adds	r3, #8
 8005612:	6cba      	ldr	r2, [r7, #72]	; 0x48
 8005614:	61fa      	str	r2, [r7, #28]
 8005616:	61bb      	str	r3, [r7, #24]
 8005618:	69b9      	ldr	r1, [r7, #24]
 800561a:	69fa      	ldr	r2, [r7, #28]
 800561c:	e841 2300 	strex	r3, r2, [r1]
 8005620:	617b      	str	r3, [r7, #20]
 8005622:	697b      	ldr	r3, [r7, #20]
 8005624:	2b00      	cmp	r3, #0
 8005626:	d1e5      	bne.n	80055f4 <UART_CheckIdleState+0xdc>
 8005628:	687b      	ldr	r3, [r7, #4]
 800562a:	2220      	movs	r2, #32
 800562c:	f8c3 2080 	str.w	r2, [r3, #128]	; 0x80
 8005630:	687b      	ldr	r3, [r7, #4]
 8005632:	2200      	movs	r2, #0
 8005634:	f883 2078 	strb.w	r2, [r3, #120]	; 0x78
 8005638:	2303      	movs	r3, #3
 800563a:	e011      	b.n	8005660 <UART_CheckIdleState+0x148>
 800563c:	687b      	ldr	r3, [r7, #4]
 800563e:	2220      	movs	r2, #32
 8005640:	67da      	str	r2, [r3, #124]	; 0x7c
 8005642:	687b      	ldr	r3, [r7, #4]
 8005644:	2220      	movs	r2, #32
 8005646:	f8c3 2080 	str.w	r2, [r3, #128]	; 0x80
 800564a:	687b      	ldr	r3, [r7, #4]
 800564c:	2200      	movs	r2, #0
 800564e:	661a      	str	r2, [r3, #96]	; 0x60
 8005650:	687b      	ldr	r3, [r7, #4]
 8005652:	2200      	movs	r2, #0
 8005654:	665a      	str	r2, [r3, #100]	; 0x64
 8005656:	687b      	ldr	r3, [r7, #4]
 8005658:	2200      	movs	r2, #0
 800565a:	f883 2078 	strb.w	r2, [r3, #120]	; 0x78
 800565e:	2300      	movs	r3, #0
 8005660:	4618      	mov	r0, r3
 8005662:	3758      	adds	r7, #88	; 0x58
 8005664:	46bd      	mov	sp, r7
 8005666:	bd80      	pop	{r7, pc}

08005668 <UART_WaitOnFlagUntilTimeout>:
 8005668:	b580      	push	{r7, lr}
 800566a:	b084      	sub	sp, #16
 800566c:	af00      	add	r7, sp, #0
 800566e:	60f8      	str	r0, [r7, #12]
 8005670:	60b9      	str	r1, [r7, #8]
 8005672:	603b      	str	r3, [r7, #0]
 8005674:	4613      	mov	r3, r2
 8005676:	71fb      	strb	r3, [r7, #7]
 8005678:	e049      	b.n	800570e <UART_WaitOnFlagUntilTimeout+0xa6>
 800567a:	69bb      	ldr	r3, [r7, #24]
 800567c:	f1b3 3fff 	cmp.w	r3, #4294967295
 8005680:	d045      	beq.n	800570e <UART_WaitOnFlagUntilTimeout+0xa6>
 8005682:	f7fc f8b9 	bl	80017f8 <HAL_GetTick>
 8005686:	4602      	mov	r2, r0
 8005688:	683b      	ldr	r3, [r7, #0]
 800568a:	1ad3      	subs	r3, r2, r3
 800568c:	69ba      	ldr	r2, [r7, #24]
 800568e:	429a      	cmp	r2, r3
 8005690:	d302      	bcc.n	8005698 <UART_WaitOnFlagUntilTimeout+0x30>
 8005692:	69bb      	ldr	r3, [r7, #24]
 8005694:	2b00      	cmp	r3, #0
 8005696:	d101      	bne.n	800569c <UART_WaitOnFlagUntilTimeout+0x34>
 8005698:	2303      	movs	r3, #3
 800569a:	e048      	b.n	800572e <UART_WaitOnFlagUntilTimeout+0xc6>
 800569c:	68fb      	ldr	r3, [r7, #12]
 800569e:	681b      	ldr	r3, [r3, #0]
 80056a0:	681b      	ldr	r3, [r3, #0]
 80056a2:	f003 0304 	and.w	r3, r3, #4
 80056a6:	2b00      	cmp	r3, #0
 80056a8:	d031      	beq.n	800570e <UART_WaitOnFlagUntilTimeout+0xa6>
 80056aa:	68fb      	ldr	r3, [r7, #12]
 80056ac:	681b      	ldr	r3, [r3, #0]
 80056ae:	69db      	ldr	r3, [r3, #28]
 80056b0:	f003 0308 	and.w	r3, r3, #8
 80056b4:	2b08      	cmp	r3, #8
 80056b6:	d110      	bne.n	80056da <UART_WaitOnFlagUntilTimeout+0x72>
 80056b8:	68fb      	ldr	r3, [r7, #12]
 80056ba:	681b      	ldr	r3, [r3, #0]
 80056bc:	2208      	movs	r2, #8
 80056be:	621a      	str	r2, [r3, #32]
 80056c0:	68f8      	ldr	r0, [r7, #12]
 80056c2:	f000 f8ff 	bl	80058c4 <UART_EndRxTransfer>
 80056c6:	68fb      	ldr	r3, [r7, #12]
 80056c8:	2208      	movs	r2, #8
 80056ca:	f8c3 2084 	str.w	r2, [r3, #132]	; 0x84
 80056ce:	68fb      	ldr	r3, [r7, #12]
 80056d0:	2200      	movs	r2, #0
 80056d2:	f883 2078 	strb.w	r2, [r3, #120]	; 0x78
 80056d6:	2301      	movs	r3, #1
 80056d8:	e029      	b.n	800572e <UART_WaitOnFlagUntilTimeout+0xc6>
 80056da:	68fb      	ldr	r3, [r7, #12]
 80056dc:	681b      	ldr	r3, [r3, #0]
 80056de:	69db      	ldr	r3, [r3, #28]
 80056e0:	f403 6300 	and.w	r3, r3, #2048	; 0x800
 80056e4:	f5b3 6f00 	cmp.w	r3, #2048	; 0x800
 80056e8:	d111      	bne.n	800570e <UART_WaitOnFlagUntilTimeout+0xa6>
 80056ea:	68fb      	ldr	r3, [r7, #12]
 80056ec:	681b      	ldr	r3, [r3, #0]
 80056ee:	f44f 6200 	mov.w	r2, #2048	; 0x800
 80056f2:	621a      	str	r2, [r3, #32]
 80056f4:	68f8      	ldr	r0, [r7, #12]
 80056f6:	f000 f8e5 	bl	80058c4 <UART_EndRxTransfer>
 80056fa:	68fb      	ldr	r3, [r7, #12]
 80056fc:	2220      	movs	r2, #32
 80056fe:	f8c3 2084 	str.w	r2, [r3, #132]	; 0x84
 8005702:	68fb      	ldr	r3, [r7, #12]
 8005704:	2200      	movs	r2, #0
 8005706:	f883 2078 	strb.w	r2, [r3, #120]	; 0x78
 800570a:	2303      	movs	r3, #3
 800570c:	e00f      	b.n	800572e <UART_WaitOnFlagUntilTimeout+0xc6>
 800570e:	68fb      	ldr	r3, [r7, #12]
 8005710:	681b      	ldr	r3, [r3, #0]
 8005712:	69da      	ldr	r2, [r3, #28]
 8005714:	68bb      	ldr	r3, [r7, #8]
 8005716:	4013      	ands	r3, r2
 8005718:	68ba      	ldr	r2, [r7, #8]
 800571a:	429a      	cmp	r2, r3
 800571c:	bf0c      	ite	eq
 800571e:	2301      	moveq	r3, #1
 8005720:	2300      	movne	r3, #0
 8005722:	b2db      	uxtb	r3, r3
 8005724:	461a      	mov	r2, r3
 8005726:	79fb      	ldrb	r3, [r7, #7]
 8005728:	429a      	cmp	r2, r3
 800572a:	d0a6      	beq.n	800567a <UART_WaitOnFlagUntilTimeout+0x12>
 800572c:	2300      	movs	r3, #0
 800572e:	4618      	mov	r0, r3
 8005730:	3710      	adds	r7, #16
 8005732:	46bd      	mov	sp, r7
 8005734:	bd80      	pop	{r7, pc}
	...

08005738 <UART_Start_Receive_IT>:
 8005738:	b480      	push	{r7}
 800573a:	b097      	sub	sp, #92	; 0x5c
 800573c:	af00      	add	r7, sp, #0
 800573e:	60f8      	str	r0, [r7, #12]
 8005740:	60b9      	str	r1, [r7, #8]
 8005742:	4613      	mov	r3, r2
 8005744:	80fb      	strh	r3, [r7, #6]
 8005746:	68fb      	ldr	r3, [r7, #12]
 8005748:	68ba      	ldr	r2, [r7, #8]
 800574a:	655a      	str	r2, [r3, #84]	; 0x54
 800574c:	68fb      	ldr	r3, [r7, #12]
 800574e:	88fa      	ldrh	r2, [r7, #6]
 8005750:	f8a3 2058 	strh.w	r2, [r3, #88]	; 0x58
 8005754:	68fb      	ldr	r3, [r7, #12]
 8005756:	88fa      	ldrh	r2, [r7, #6]
 8005758:	f8a3 205a 	strh.w	r2, [r3, #90]	; 0x5a
 800575c:	68fb      	ldr	r3, [r7, #12]
 800575e:	2200      	movs	r2, #0
 8005760:	669a      	str	r2, [r3, #104]	; 0x68
 8005762:	68fb      	ldr	r3, [r7, #12]
 8005764:	689b      	ldr	r3, [r3, #8]
 8005766:	f5b3 5f80 	cmp.w	r3, #4096	; 0x1000
 800576a:	d10e      	bne.n	800578a <UART_Start_Receive_IT+0x52>
 800576c:	68fb      	ldr	r3, [r7, #12]
 800576e:	691b      	ldr	r3, [r3, #16]
 8005770:	2b00      	cmp	r3, #0
 8005772:	d105      	bne.n	8005780 <UART_Start_Receive_IT+0x48>
 8005774:	68fb      	ldr	r3, [r7, #12]
 8005776:	f240 12ff 	movw	r2, #511	; 0x1ff
 800577a:	f8a3 205c 	strh.w	r2, [r3, #92]	; 0x5c
 800577e:	e02d      	b.n	80057dc <UART_Start_Receive_IT+0xa4>
 8005780:	68fb      	ldr	r3, [r7, #12]
 8005782:	22ff      	movs	r2, #255	; 0xff
 8005784:	f8a3 205c 	strh.w	r2, [r3, #92]	; 0x5c
 8005788:	e028      	b.n	80057dc <UART_Start_Receive_IT+0xa4>
 800578a:	68fb      	ldr	r3, [r7, #12]
 800578c:	689b      	ldr	r3, [r3, #8]
 800578e:	2b00      	cmp	r3, #0
 8005790:	d10d      	bne.n	80057ae <UART_Start_Receive_IT+0x76>
 8005792:	68fb      	ldr	r3, [r7, #12]
 8005794:	691b      	ldr	r3, [r3, #16]
 8005796:	2b00      	cmp	r3, #0
 8005798:	d104      	bne.n	80057a4 <UART_Start_Receive_IT+0x6c>
 800579a:	68fb      	ldr	r3, [r7, #12]
 800579c:	22ff      	movs	r2, #255	; 0xff
 800579e:	f8a3 205c 	strh.w	r2, [r3, #92]	; 0x5c
 80057a2:	e01b      	b.n	80057dc <UART_Start_Receive_IT+0xa4>
 80057a4:	68fb      	ldr	r3, [r7, #12]
 80057a6:	227f      	movs	r2, #127	; 0x7f
 80057a8:	f8a3 205c 	strh.w	r2, [r3, #92]	; 0x5c
 80057ac:	e016      	b.n	80057dc <UART_Start_Receive_IT+0xa4>
 80057ae:	68fb      	ldr	r3, [r7, #12]
 80057b0:	689b      	ldr	r3, [r3, #8]
 80057b2:	f1b3 5f80 	cmp.w	r3, #268435456	; 0x10000000
 80057b6:	d10d      	bne.n	80057d4 <UART_Start_Receive_IT+0x9c>
 80057b8:	68fb      	ldr	r3, [r7, #12]
 80057ba:	691b      	ldr	r3, [r3, #16]
 80057bc:	2b00      	cmp	r3, #0
 80057be:	d104      	bne.n	80057ca <UART_Start_Receive_IT+0x92>
 80057c0:	68fb      	ldr	r3, [r7, #12]
 80057c2:	227f      	movs	r2, #127	; 0x7f
 80057c4:	f8a3 205c 	strh.w	r2, [r3, #92]	; 0x5c
 80057c8:	e008      	b.n	80057dc <UART_Start_Receive_IT+0xa4>
 80057ca:	68fb      	ldr	r3, [r7, #12]
 80057cc:	223f      	movs	r2, #63	; 0x3f
 80057ce:	f8a3 205c 	strh.w	r2, [r3, #92]	; 0x5c
 80057d2:	e003      	b.n	80057dc <UART_Start_Receive_IT+0xa4>
 80057d4:	68fb      	ldr	r3, [r7, #12]
 80057d6:	2200      	movs	r2, #0
 80057d8:	f8a3 205c 	strh.w	r2, [r3, #92]	; 0x5c
 80057dc:	68fb      	ldr	r3, [r7, #12]
 80057de:	2200      	movs	r2, #0
 80057e0:	f8c3 2084 	str.w	r2, [r3, #132]	; 0x84
 80057e4:	68fb      	ldr	r3, [r7, #12]
 80057e6:	2222      	movs	r2, #34	; 0x22
 80057e8:	f8c3 2080 	str.w	r2, [r3, #128]	; 0x80
 80057ec:	68fb      	ldr	r3, [r7, #12]
 80057ee:	681b      	ldr	r3, [r3, #0]
 80057f0:	3308      	adds	r3, #8
 80057f2:	63fb      	str	r3, [r7, #60]	; 0x3c
 80057f4:	6bfb      	ldr	r3, [r7, #60]	; 0x3c
 80057f6:	e853 3f00 	ldrex	r3, [r3]
 80057fa:	63bb      	str	r3, [r7, #56]	; 0x38
 80057fc:	6bbb      	ldr	r3, [r7, #56]	; 0x38
 80057fe:	f043 0301 	orr.w	r3, r3, #1
 8005802:	657b      	str	r3, [r7, #84]	; 0x54
 8005804:	68fb      	ldr	r3, [r7, #12]
 8005806:	681b      	ldr	r3, [r3, #0]
 8005808:	3308      	adds	r3, #8
 800580a:	6d7a      	ldr	r2, [r7, #84]	; 0x54
 800580c:	64ba      	str	r2, [r7, #72]	; 0x48
 800580e:	647b      	str	r3, [r7, #68]	; 0x44
 8005810:	6c79      	ldr	r1, [r7, #68]	; 0x44
 8005812:	6cba      	ldr	r2, [r7, #72]	; 0x48
 8005814:	e841 2300 	strex	r3, r2, [r1]
 8005818:	643b      	str	r3, [r7, #64]	; 0x40
 800581a:	6c3b      	ldr	r3, [r7, #64]	; 0x40
 800581c:	2b00      	cmp	r3, #0
 800581e:	d1e5      	bne.n	80057ec <UART_Start_Receive_IT+0xb4>
 8005820:	68fb      	ldr	r3, [r7, #12]
 8005822:	689b      	ldr	r3, [r3, #8]
 8005824:	f5b3 5f80 	cmp.w	r3, #4096	; 0x1000
 8005828:	d107      	bne.n	800583a <UART_Start_Receive_IT+0x102>
 800582a:	68fb      	ldr	r3, [r7, #12]
 800582c:	691b      	ldr	r3, [r3, #16]
 800582e:	2b00      	cmp	r3, #0
 8005830:	d103      	bne.n	800583a <UART_Start_Receive_IT+0x102>
 8005832:	68fb      	ldr	r3, [r7, #12]
 8005834:	4a21      	ldr	r2, [pc, #132]	; (80058bc <UART_Start_Receive_IT+0x184>)
 8005836:	669a      	str	r2, [r3, #104]	; 0x68
 8005838:	e002      	b.n	8005840 <UART_Start_Receive_IT+0x108>
 800583a:	68fb      	ldr	r3, [r7, #12]
 800583c:	4a20      	ldr	r2, [pc, #128]	; (80058c0 <UART_Start_Receive_IT+0x188>)
 800583e:	669a      	str	r2, [r3, #104]	; 0x68
 8005840:	68fb      	ldr	r3, [r7, #12]
 8005842:	691b      	ldr	r3, [r3, #16]
 8005844:	2b00      	cmp	r3, #0
 8005846:	d019      	beq.n	800587c <UART_Start_Receive_IT+0x144>
 8005848:	68fb      	ldr	r3, [r7, #12]
 800584a:	681b      	ldr	r3, [r3, #0]
 800584c:	62bb      	str	r3, [r7, #40]	; 0x28
 800584e:	6abb      	ldr	r3, [r7, #40]	; 0x28
 8005850:	e853 3f00 	ldrex	r3, [r3]
 8005854:	627b      	str	r3, [r7, #36]	; 0x24
 8005856:	6a7b      	ldr	r3, [r7, #36]	; 0x24
 8005858:	f443 7390 	orr.w	r3, r3, #288	; 0x120
 800585c:	64fb      	str	r3, [r7, #76]	; 0x4c
 800585e:	68fb      	ldr	r3, [r7, #12]
 8005860:	681b      	ldr	r3, [r3, #0]
 8005862:	461a      	mov	r2, r3
 8005864:	6cfb      	ldr	r3, [r7, #76]	; 0x4c
 8005866:	637b      	str	r3, [r7, #52]	; 0x34
 8005868:	633a      	str	r2, [r7, #48]	; 0x30
 800586a:	6b39      	ldr	r1, [r7, #48]	; 0x30
 800586c:	6b7a      	ldr	r2, [r7, #52]	; 0x34
 800586e:	e841 2300 	strex	r3, r2, [r1]
 8005872:	62fb      	str	r3, [r7, #44]	; 0x2c
 8005874:	6afb      	ldr	r3, [r7, #44]	; 0x2c
 8005876:	2b00      	cmp	r3, #0
 8005878:	d1e6      	bne.n	8005848 <UART_Start_Receive_IT+0x110>
 800587a:	e018      	b.n	80058ae <UART_Start_Receive_IT+0x176>
 800587c:	68fb      	ldr	r3, [r7, #12]
 800587e:	681b      	ldr	r3, [r3, #0]
 8005880:	617b      	str	r3, [r7, #20]
 8005882:	697b      	ldr	r3, [r7, #20]
 8005884:	e853 3f00 	ldrex	r3, [r3]
 8005888:	613b      	str	r3, [r7, #16]
 800588a:	693b      	ldr	r3, [r7, #16]
 800588c:	f043 0320 	orr.w	r3, r3, #32
 8005890:	653b      	str	r3, [r7, #80]	; 0x50
 8005892:	68fb      	ldr	r3, [r7, #12]
 8005894:	681b      	ldr	r3, [r3, #0]
 8005896:	461a      	mov	r2, r3
 8005898:	6d3b      	ldr	r3, [r7, #80]	; 0x50
 800589a:	623b      	str	r3, [r7, #32]
 800589c:	61fa      	str	r2, [r7, #28]
 800589e:	69f9      	ldr	r1, [r7, #28]
 80058a0:	6a3a      	ldr	r2, [r7, #32]
 80058a2:	e841 2300 	strex	r3, r2, [r1]
 80058a6:	61bb      	str	r3, [r7, #24]
 80058a8:	69bb      	ldr	r3, [r7, #24]
 80058aa:	2b00      	cmp	r3, #0
 80058ac:	d1e6      	bne.n	800587c <UART_Start_Receive_IT+0x144>
 80058ae:	2300      	movs	r3, #0
 80058b0:	4618      	mov	r0, r3
 80058b2:	375c      	adds	r7, #92	; 0x5c
 80058b4:	46bd      	mov	sp, r7
 80058b6:	f85d 7b04 	ldr.w	r7, [sp], #4
 80058ba:	4770      	bx	lr
 80058bc:	08005d41 	.word	0x08005d41
 80058c0:	08005b85 	.word	0x08005b85

080058c4 <UART_EndRxTransfer>:
 80058c4:	b480      	push	{r7}
 80058c6:	b095      	sub	sp, #84	; 0x54
 80058c8:	af00      	add	r7, sp, #0
 80058ca:	6078      	str	r0, [r7, #4]
 80058cc:	687b      	ldr	r3, [r7, #4]
 80058ce:	681b      	ldr	r3, [r3, #0]
 80058d0:	637b      	str	r3, [r7, #52]	; 0x34
 80058d2:	6b7b      	ldr	r3, [r7, #52]	; 0x34
 80058d4:	e853 3f00 	ldrex	r3, [r3]
 80058d8:	633b      	str	r3, [r7, #48]	; 0x30
 80058da:	6b3b      	ldr	r3, [r7, #48]	; 0x30
 80058dc:	f423 7390 	bic.w	r3, r3, #288	; 0x120
 80058e0:	64fb      	str	r3, [r7, #76]	; 0x4c
 80058e2:	687b      	ldr	r3, [r7, #4]
 80058e4:	681b      	ldr	r3, [r3, #0]
 80058e6:	461a      	mov	r2, r3
 80058e8:	6cfb      	ldr	r3, [r7, #76]	; 0x4c
 80058ea:	643b      	str	r3, [r7, #64]	; 0x40
 80058ec:	63fa      	str	r2, [r7, #60]	; 0x3c
 80058ee:	6bf9      	ldr	r1, [r7, #60]	; 0x3c
 80058f0:	6c3a      	ldr	r2, [r7, #64]	; 0x40
 80058f2:	e841 2300 	strex	r3, r2, [r1]
 80058f6:	63bb      	str	r3, [r7, #56]	; 0x38
 80058f8:	6bbb      	ldr	r3, [r7, #56]	; 0x38
 80058fa:	2b00      	cmp	r3, #0
 80058fc:	d1e6      	bne.n	80058cc <UART_EndRxTransfer+0x8>
 80058fe:	687b      	ldr	r3, [r7, #4]
 8005900:	681b      	ldr	r3, [r3, #0]
 8005902:	3308      	adds	r3, #8
 8005904:	623b      	str	r3, [r7, #32]
 8005906:	6a3b      	ldr	r3, [r7, #32]
 8005908:	e853 3f00 	ldrex	r3, [r3]
 800590c:	61fb      	str	r3, [r7, #28]
 800590e:	69fb      	ldr	r3, [r7, #28]
 8005910:	f023 0301 	bic.w	r3, r3, #1
 8005914:	64bb      	str	r3, [r7, #72]	; 0x48
 8005916:	687b      	ldr	r3, [r7, #4]
 8005918:	681b      	ldr	r3, [r3, #0]
 800591a:	3308      	adds	r3, #8
 800591c:	6cba      	ldr	r2, [r7, #72]	; 0x48
 800591e:	62fa      	str	r2, [r7, #44]	; 0x2c
 8005920:	62bb      	str	r3, [r7, #40]	; 0x28
 8005922:	6ab9      	ldr	r1, [r7, #40]	; 0x28
 8005924:	6afa      	ldr	r2, [r7, #44]	; 0x2c
 8005926:	e841 2300 	strex	r3, r2, [r1]
 800592a:	627b      	str	r3, [r7, #36]	; 0x24
 800592c:	6a7b      	ldr	r3, [r7, #36]	; 0x24
 800592e:	2b00      	cmp	r3, #0
 8005930:	d1e5      	bne.n	80058fe <UART_EndRxTransfer+0x3a>
 8005932:	687b      	ldr	r3, [r7, #4]
 8005934:	6e1b      	ldr	r3, [r3, #96]	; 0x60
 8005936:	2b01      	cmp	r3, #1
 8005938:	d118      	bne.n	800596c <UART_EndRxTransfer+0xa8>
 800593a:	687b      	ldr	r3, [r7, #4]
 800593c:	681b      	ldr	r3, [r3, #0]
 800593e:	60fb      	str	r3, [r7, #12]
 8005940:	68fb      	ldr	r3, [r7, #12]
 8005942:	e853 3f00 	ldrex	r3, [r3]
 8005946:	60bb      	str	r3, [r7, #8]
 8005948:	68bb      	ldr	r3, [r7, #8]
 800594a:	f023 0310 	bic.w	r3, r3, #16
 800594e:	647b      	str	r3, [r7, #68]	; 0x44
 8005950:	687b      	ldr	r3, [r7, #4]
 8005952:	681b      	ldr	r3, [r3, #0]
 8005954:	461a      	mov	r2, r3
 8005956:	6c7b      	ldr	r3, [r7, #68]	; 0x44
 8005958:	61bb      	str	r3, [r7, #24]
 800595a:	617a      	str	r2, [r7, #20]
 800595c:	6979      	ldr	r1, [r7, #20]
 800595e:	69ba      	ldr	r2, [r7, #24]
 8005960:	e841 2300 	strex	r3, r2, [r1]
 8005964:	613b      	str	r3, [r7, #16]
 8005966:	693b      	ldr	r3, [r7, #16]
 8005968:	2b00      	cmp	r3, #0
 800596a:	d1e6      	bne.n	800593a <UART_EndRxTransfer+0x76>
 800596c:	687b      	ldr	r3, [r7, #4]
 800596e:	2220      	movs	r2, #32
 8005970:	f8c3 2080 	str.w	r2, [r3, #128]	; 0x80
 8005974:	687b      	ldr	r3, [r7, #4]
 8005976:	2200      	movs	r2, #0
 8005978:	661a      	str	r2, [r3, #96]	; 0x60
 800597a:	687b      	ldr	r3, [r7, #4]
 800597c:	2200      	movs	r2, #0
 800597e:	669a      	str	r2, [r3, #104]	; 0x68
 8005980:	bf00      	nop
 8005982:	3754      	adds	r7, #84	; 0x54
 8005984:	46bd      	mov	sp, r7
 8005986:	f85d 7b04 	ldr.w	r7, [sp], #4
 800598a:	4770      	bx	lr

0800598c <UART_DMAAbortOnError>:
 800598c:	b580      	push	{r7, lr}
 800598e:	b084      	sub	sp, #16
 8005990:	af00      	add	r7, sp, #0
 8005992:	6078      	str	r0, [r7, #4]
 8005994:	687b      	ldr	r3, [r7, #4]
 8005996:	6a9b      	ldr	r3, [r3, #40]	; 0x28
 8005998:	60fb      	str	r3, [r7, #12]
 800599a:	68fb      	ldr	r3, [r7, #12]
 800599c:	2200      	movs	r2, #0
 800599e:	f8a3 205a 	strh.w	r2, [r3, #90]	; 0x5a
 80059a2:	68fb      	ldr	r3, [r7, #12]
 80059a4:	2200      	movs	r2, #0
 80059a6:	f8a3 2052 	strh.w	r2, [r3, #82]	; 0x52
 80059aa:	68f8      	ldr	r0, [r7, #12]
 80059ac:	f7ff fa76 	bl	8004e9c <HAL_UART_ErrorCallback>
 80059b0:	bf00      	nop
 80059b2:	3710      	adds	r7, #16
 80059b4:	46bd      	mov	sp, r7
 80059b6:	bd80      	pop	{r7, pc}

080059b8 <UART_TxISR_8BIT>:
 80059b8:	b480      	push	{r7}
 80059ba:	b08f      	sub	sp, #60	; 0x3c
 80059bc:	af00      	add	r7, sp, #0
 80059be:	6078      	str	r0, [r7, #4]
 80059c0:	687b      	ldr	r3, [r7, #4]
 80059c2:	6fdb      	ldr	r3, [r3, #124]	; 0x7c
 80059c4:	2b21      	cmp	r3, #33	; 0x21
 80059c6:	d14d      	bne.n	8005a64 <UART_TxISR_8BIT+0xac>
 80059c8:	687b      	ldr	r3, [r7, #4]
 80059ca:	f8b3 3052 	ldrh.w	r3, [r3, #82]	; 0x52
 80059ce:	b29b      	uxth	r3, r3
 80059d0:	2b00      	cmp	r3, #0
 80059d2:	d132      	bne.n	8005a3a <UART_TxISR_8BIT+0x82>
 80059d4:	687b      	ldr	r3, [r7, #4]
 80059d6:	681b      	ldr	r3, [r3, #0]
 80059d8:	623b      	str	r3, [r7, #32]
 80059da:	6a3b      	ldr	r3, [r7, #32]
 80059dc:	e853 3f00 	ldrex	r3, [r3]
 80059e0:	61fb      	str	r3, [r7, #28]
 80059e2:	69fb      	ldr	r3, [r7, #28]
 80059e4:	f023 0380 	bic.w	r3, r3, #128	; 0x80
 80059e8:	637b      	str	r3, [r7, #52]	; 0x34
 80059ea:	687b      	ldr	r3, [r7, #4]
 80059ec:	681b      	ldr	r3, [r3, #0]
 80059ee:	461a      	mov	r2, r3
 80059f0:	6b7b      	ldr	r3, [r7, #52]	; 0x34
 80059f2:	62fb      	str	r3, [r7, #44]	; 0x2c
 80059f4:	62ba      	str	r2, [r7, #40]	; 0x28
 80059f6:	6ab9      	ldr	r1, [r7, #40]	; 0x28
 80059f8:	6afa      	ldr	r2, [r7, #44]	; 0x2c
 80059fa:	e841 2300 	strex	r3, r2, [r1]
 80059fe:	627b      	str	r3, [r7, #36]	; 0x24
 8005a00:	6a7b      	ldr	r3, [r7, #36]	; 0x24
 8005a02:	2b00      	cmp	r3, #0
 8005a04:	d1e6      	bne.n	80059d4 <UART_TxISR_8BIT+0x1c>
 8005a06:	687b      	ldr	r3, [r7, #4]
 8005a08:	681b      	ldr	r3, [r3, #0]
 8005a0a:	60fb      	str	r3, [r7, #12]
 8005a0c:	68fb      	ldr	r3, [r7, #12]
 8005a0e:	e853 3f00 	ldrex	r3, [r3]
 8005a12:	60bb      	str	r3, [r7, #8]
 8005a14:	68bb      	ldr	r3, [r7, #8]
 8005a16:	f043 0340 	orr.w	r3, r3, #64	; 0x40
 8005a1a:	633b      	str	r3, [r7, #48]	; 0x30
 8005a1c:	687b      	ldr	r3, [r7, #4]
 8005a1e:	681b      	ldr	r3, [r3, #0]
 8005a20:	461a      	mov	r2, r3
 8005a22:	6b3b      	ldr	r3, [r7, #48]	; 0x30
 8005a24:	61bb      	str	r3, [r7, #24]
 8005a26:	617a      	str	r2, [r7, #20]
 8005a28:	6979      	ldr	r1, [r7, #20]
 8005a2a:	69ba      	ldr	r2, [r7, #24]
 8005a2c:	e841 2300 	strex	r3, r2, [r1]
 8005a30:	613b      	str	r3, [r7, #16]
 8005a32:	693b      	ldr	r3, [r7, #16]
 8005a34:	2b00      	cmp	r3, #0
 8005a36:	d1e6      	bne.n	8005a06 <UART_TxISR_8BIT+0x4e>
 8005a38:	e014      	b.n	8005a64 <UART_TxISR_8BIT+0xac>
 8005a3a:	687b      	ldr	r3, [r7, #4]
 8005a3c:	6cdb      	ldr	r3, [r3, #76]	; 0x4c
 8005a3e:	781a      	ldrb	r2, [r3, #0]
 8005a40:	687b      	ldr	r3, [r7, #4]
 8005a42:	681b      	ldr	r3, [r3, #0]
 8005a44:	b292      	uxth	r2, r2
 8005a46:	851a      	strh	r2, [r3, #40]	; 0x28
 8005a48:	687b      	ldr	r3, [r7, #4]
 8005a4a:	6cdb      	ldr	r3, [r3, #76]	; 0x4c
 8005a4c:	1c5a      	adds	r2, r3, #1
 8005a4e:	687b      	ldr	r3, [r7, #4]
 8005a50:	64da      	str	r2, [r3, #76]	; 0x4c
 8005a52:	687b      	ldr	r3, [r7, #4]
 8005a54:	f8b3 3052 	ldrh.w	r3, [r3, #82]	; 0x52
 8005a58:	b29b      	uxth	r3, r3
 8005a5a:	3b01      	subs	r3, #1
 8005a5c:	b29a      	uxth	r2, r3
 8005a5e:	687b      	ldr	r3, [r7, #4]
 8005a60:	f8a3 2052 	strh.w	r2, [r3, #82]	; 0x52
 8005a64:	bf00      	nop
 8005a66:	373c      	adds	r7, #60	; 0x3c
 8005a68:	46bd      	mov	sp, r7
 8005a6a:	f85d 7b04 	ldr.w	r7, [sp], #4
 8005a6e:	4770      	bx	lr

08005a70 <UART_TxISR_16BIT>:
 8005a70:	b480      	push	{r7}
 8005a72:	b091      	sub	sp, #68	; 0x44
 8005a74:	af00      	add	r7, sp, #0
 8005a76:	6078      	str	r0, [r7, #4]
 8005a78:	687b      	ldr	r3, [r7, #4]
 8005a7a:	6fdb      	ldr	r3, [r3, #124]	; 0x7c
 8005a7c:	2b21      	cmp	r3, #33	; 0x21
 8005a7e:	d151      	bne.n	8005b24 <UART_TxISR_16BIT+0xb4>
 8005a80:	687b      	ldr	r3, [r7, #4]
 8005a82:	f8b3 3052 	ldrh.w	r3, [r3, #82]	; 0x52
 8005a86:	b29b      	uxth	r3, r3
 8005a88:	2b00      	cmp	r3, #0
 8005a8a:	d132      	bne.n	8005af2 <UART_TxISR_16BIT+0x82>
 8005a8c:	687b      	ldr	r3, [r7, #4]
 8005a8e:	681b      	ldr	r3, [r3, #0]
 8005a90:	627b      	str	r3, [r7, #36]	; 0x24
 8005a92:	6a7b      	ldr	r3, [r7, #36]	; 0x24
 8005a94:	e853 3f00 	ldrex	r3, [r3]
 8005a98:	623b      	str	r3, [r7, #32]
 8005a9a:	6a3b      	ldr	r3, [r7, #32]
 8005a9c:	f023 0380 	bic.w	r3, r3, #128	; 0x80
 8005aa0:	63bb      	str	r3, [r7, #56]	; 0x38
 8005aa2:	687b      	ldr	r3, [r7, #4]
 8005aa4:	681b      	ldr	r3, [r3, #0]
 8005aa6:	461a      	mov	r2, r3
 8005aa8:	6bbb      	ldr	r3, [r7, #56]	; 0x38
 8005aaa:	633b      	str	r3, [r7, #48]	; 0x30
 8005aac:	62fa      	str	r2, [r7, #44]	; 0x2c
 8005aae:	6af9      	ldr	r1, [r7, #44]	; 0x2c
 8005ab0:	6b3a      	ldr	r2, [r7, #48]	; 0x30
 8005ab2:	e841 2300 	strex	r3, r2, [r1]
 8005ab6:	62bb      	str	r3, [r7, #40]	; 0x28
 8005ab8:	6abb      	ldr	r3, [r7, #40]	; 0x28
 8005aba:	2b00      	cmp	r3, #0
 8005abc:	d1e6      	bne.n	8005a8c <UART_TxISR_16BIT+0x1c>
 8005abe:	687b      	ldr	r3, [r7, #4]
 8005ac0:	681b      	ldr	r3, [r3, #0]
 8005ac2:	613b      	str	r3, [r7, #16]
 8005ac4:	693b      	ldr	r3, [r7, #16]
 8005ac6:	e853 3f00 	ldrex	r3, [r3]
 8005aca:	60fb      	str	r3, [r7, #12]
 8005acc:	68fb      	ldr	r3, [r7, #12]
 8005ace:	f043 0340 	orr.w	r3, r3, #64	; 0x40
 8005ad2:	637b      	str	r3, [r7, #52]	; 0x34
 8005ad4:	687b      	ldr	r3, [r7, #4]
 8005ad6:	681b      	ldr	r3, [r3, #0]
 8005ad8:	461a      	mov	r2, r3
 8005ada:	6b7b      	ldr	r3, [r7, #52]	; 0x34
 8005adc:	61fb      	str	r3, [r7, #28]
 8005ade:	61ba      	str	r2, [r7, #24]
 8005ae0:	69b9      	ldr	r1, [r7, #24]
 8005ae2:	69fa      	ldr	r2, [r7, #28]
 8005ae4:	e841 2300 	strex	r3, r2, [r1]
 8005ae8:	617b      	str	r3, [r7, #20]
 8005aea:	697b      	ldr	r3, [r7, #20]
 8005aec:	2b00      	cmp	r3, #0
 8005aee:	d1e6      	bne.n	8005abe <UART_TxISR_16BIT+0x4e>
 8005af0:	e018      	b.n	8005b24 <UART_TxISR_16BIT+0xb4>
 8005af2:	687b      	ldr	r3, [r7, #4]
 8005af4:	6cdb      	ldr	r3, [r3, #76]	; 0x4c
 8005af6:	63fb      	str	r3, [r7, #60]	; 0x3c
 8005af8:	6bfb      	ldr	r3, [r7, #60]	; 0x3c
 8005afa:	881a      	ldrh	r2, [r3, #0]
 8005afc:	687b      	ldr	r3, [r7, #4]
 8005afe:	681b      	ldr	r3, [r3, #0]
 8005b00:	f3c2 0208 	ubfx	r2, r2, #0, #9
 8005b04:	b292      	uxth	r2, r2
 8005b06:	851a      	strh	r2, [r3, #40]	; 0x28
 8005b08:	687b      	ldr	r3, [r7, #4]
 8005b0a:	6cdb      	ldr	r3, [r3, #76]	; 0x4c
 8005b0c:	1c9a      	adds	r2, r3, #2
 8005b0e:	687b      	ldr	r3, [r7, #4]
 8005b10:	64da      	str	r2, [r3, #76]	; 0x4c
 8005b12:	687b      	ldr	r3, [r7, #4]
 8005b14:	f8b3 3052 	ldrh.w	r3, [r3, #82]	; 0x52
 8005b18:	b29b      	uxth	r3, r3
 8005b1a:	3b01      	subs	r3, #1
 8005b1c:	b29a      	uxth	r2, r3
 8005b1e:	687b      	ldr	r3, [r7, #4]
 8005b20:	f8a3 2052 	strh.w	r2, [r3, #82]	; 0x52
 8005b24:	bf00      	nop
 8005b26:	3744      	adds	r7, #68	; 0x44
 8005b28:	46bd      	mov	sp, r7
 8005b2a:	f85d 7b04 	ldr.w	r7, [sp], #4
 8005b2e:	4770      	bx	lr

08005b30 <UART_EndTransmit_IT>:
 8005b30:	b580      	push	{r7, lr}
 8005b32:	b088      	sub	sp, #32
 8005b34:	af00      	add	r7, sp, #0
 8005b36:	6078      	str	r0, [r7, #4]
 8005b38:	687b      	ldr	r3, [r7, #4]
 8005b3a:	681b      	ldr	r3, [r3, #0]
 8005b3c:	60fb      	str	r3, [r7, #12]
 8005b3e:	68fb      	ldr	r3, [r7, #12]
 8005b40:	e853 3f00 	ldrex	r3, [r3]
 8005b44:	60bb      	str	r3, [r7, #8]
 8005b46:	68bb      	ldr	r3, [r7, #8]
 8005b48:	f023 0340 	bic.w	r3, r3, #64	; 0x40
 8005b4c:	61fb      	str	r3, [r7, #28]
 8005b4e:	687b      	ldr	r3, [r7, #4]
 8005b50:	681b      	ldr	r3, [r3, #0]
 8005b52:	461a      	mov	r2, r3
 8005b54:	69fb      	ldr	r3, [r7, #28]
 8005b56:	61bb      	str	r3, [r7, #24]
 8005b58:	617a      	str	r2, [r7, #20]
 8005b5a:	6979      	ldr	r1, [r7, #20]
 8005b5c:	69ba      	ldr	r2, [r7, #24]
 8005b5e:	e841 2300 	strex	r3, r2, [r1]
 8005b62:	613b      	str	r3, [r7, #16]
 8005b64:	693b      	ldr	r3, [r7, #16]
 8005b66:	2b00      	cmp	r3, #0
 8005b68:	d1e6      	bne.n	8005b38 <UART_EndTransmit_IT+0x8>
 8005b6a:	687b      	ldr	r3, [r7, #4]
 8005b6c:	2220      	movs	r2, #32
 8005b6e:	67da      	str	r2, [r3, #124]	; 0x7c
 8005b70:	687b      	ldr	r3, [r7, #4]
 8005b72:	2200      	movs	r2, #0
 8005b74:	66da      	str	r2, [r3, #108]	; 0x6c
 8005b76:	6878      	ldr	r0, [r7, #4]
 8005b78:	f7ff f986 	bl	8004e88 <HAL_UART_TxCpltCallback>
 8005b7c:	bf00      	nop
 8005b7e:	3720      	adds	r7, #32
 8005b80:	46bd      	mov	sp, r7
 8005b82:	bd80      	pop	{r7, pc}

08005b84 <UART_RxISR_8BIT>:
 8005b84:	b580      	push	{r7, lr}
 8005b86:	b09c      	sub	sp, #112	; 0x70
 8005b88:	af00      	add	r7, sp, #0
 8005b8a:	6078      	str	r0, [r7, #4]
 8005b8c:	687b      	ldr	r3, [r7, #4]
 8005b8e:	f8b3 305c 	ldrh.w	r3, [r3, #92]	; 0x5c
 8005b92:	f8a7 306e 	strh.w	r3, [r7, #110]	; 0x6e
 8005b96:	687b      	ldr	r3, [r7, #4]
 8005b98:	f8d3 3080 	ldr.w	r3, [r3, #128]	; 0x80
 8005b9c:	2b22      	cmp	r3, #34	; 0x22
 8005b9e:	f040 80be 	bne.w	8005d1e <UART_RxISR_8BIT+0x19a>
 8005ba2:	687b      	ldr	r3, [r7, #4]
 8005ba4:	681b      	ldr	r3, [r3, #0]
 8005ba6:	8c9b      	ldrh	r3, [r3, #36]	; 0x24
 8005ba8:	f8a7 306c 	strh.w	r3, [r7, #108]	; 0x6c
 8005bac:	f8b7 306c 	ldrh.w	r3, [r7, #108]	; 0x6c
 8005bb0:	b2d9      	uxtb	r1, r3
 8005bb2:	f8b7 306e 	ldrh.w	r3, [r7, #110]	; 0x6e
 8005bb6:	b2da      	uxtb	r2, r3
 8005bb8:	687b      	ldr	r3, [r7, #4]
 8005bba:	6d5b      	ldr	r3, [r3, #84]	; 0x54
 8005bbc:	400a      	ands	r2, r1
 8005bbe:	b2d2      	uxtb	r2, r2
 8005bc0:	701a      	strb	r2, [r3, #0]
 8005bc2:	687b      	ldr	r3, [r7, #4]
 8005bc4:	6d5b      	ldr	r3, [r3, #84]	; 0x54
 8005bc6:	1c5a      	adds	r2, r3, #1
 8005bc8:	687b      	ldr	r3, [r7, #4]
 8005bca:	655a      	str	r2, [r3, #84]	; 0x54
 8005bcc:	687b      	ldr	r3, [r7, #4]
 8005bce:	f8b3 305a 	ldrh.w	r3, [r3, #90]	; 0x5a
 8005bd2:	b29b      	uxth	r3, r3
 8005bd4:	3b01      	subs	r3, #1
 8005bd6:	b29a      	uxth	r2, r3
 8005bd8:	687b      	ldr	r3, [r7, #4]
 8005bda:	f8a3 205a 	strh.w	r2, [r3, #90]	; 0x5a
 8005bde:	687b      	ldr	r3, [r7, #4]
 8005be0:	f8b3 305a 	ldrh.w	r3, [r3, #90]	; 0x5a
 8005be4:	b29b      	uxth	r3, r3
 8005be6:	2b00      	cmp	r3, #0
 8005be8:	f040 80a3 	bne.w	8005d32 <UART_RxISR_8BIT+0x1ae>
 8005bec:	687b      	ldr	r3, [r7, #4]
 8005bee:	681b      	ldr	r3, [r3, #0]
 8005bf0:	64fb      	str	r3, [r7, #76]	; 0x4c
 8005bf2:	6cfb      	ldr	r3, [r7, #76]	; 0x4c
 8005bf4:	e853 3f00 	ldrex	r3, [r3]
 8005bf8:	64bb      	str	r3, [r7, #72]	; 0x48
 8005bfa:	6cbb      	ldr	r3, [r7, #72]	; 0x48
 8005bfc:	f423 7390 	bic.w	r3, r3, #288	; 0x120
 8005c00:	66bb      	str	r3, [r7, #104]	; 0x68
 8005c02:	687b      	ldr	r3, [r7, #4]
 8005c04:	681b      	ldr	r3, [r3, #0]
 8005c06:	461a      	mov	r2, r3
 8005c08:	6ebb      	ldr	r3, [r7, #104]	; 0x68
 8005c0a:	65bb      	str	r3, [r7, #88]	; 0x58
 8005c0c:	657a      	str	r2, [r7, #84]	; 0x54
 8005c0e:	6d79      	ldr	r1, [r7, #84]	; 0x54
 8005c10:	6dba      	ldr	r2, [r7, #88]	; 0x58
 8005c12:	e841 2300 	strex	r3, r2, [r1]
 8005c16:	653b      	str	r3, [r7, #80]	; 0x50
 8005c18:	6d3b      	ldr	r3, [r7, #80]	; 0x50
 8005c1a:	2b00      	cmp	r3, #0
 8005c1c:	d1e6      	bne.n	8005bec <UART_RxISR_8BIT+0x68>
 8005c1e:	687b      	ldr	r3, [r7, #4]
 8005c20:	681b      	ldr	r3, [r3, #0]
 8005c22:	3308      	adds	r3, #8
 8005c24:	63bb      	str	r3, [r7, #56]	; 0x38
 8005c26:	6bbb      	ldr	r3, [r7, #56]	; 0x38
 8005c28:	e853 3f00 	ldrex	r3, [r3]
 8005c2c:	637b      	str	r3, [r7, #52]	; 0x34
 8005c2e:	6b7b      	ldr	r3, [r7, #52]	; 0x34
 8005c30:	f023 0301 	bic.w	r3, r3, #1
 8005c34:	667b      	str	r3, [r7, #100]	; 0x64
 8005c36:	687b      	ldr	r3, [r7, #4]
 8005c38:	681b      	ldr	r3, [r3, #0]
 8005c3a:	3308      	adds	r3, #8
 8005c3c:	6e7a      	ldr	r2, [r7, #100]	; 0x64
 8005c3e:	647a      	str	r2, [r7, #68]	; 0x44
 8005c40:	643b      	str	r3, [r7, #64]	; 0x40
 8005c42:	6c39      	ldr	r1, [r7, #64]	; 0x40
 8005c44:	6c7a      	ldr	r2, [r7, #68]	; 0x44
 8005c46:	e841 2300 	strex	r3, r2, [r1]
 8005c4a:	63fb      	str	r3, [r7, #60]	; 0x3c
 8005c4c:	6bfb      	ldr	r3, [r7, #60]	; 0x3c
 8005c4e:	2b00      	cmp	r3, #0
 8005c50:	d1e5      	bne.n	8005c1e <UART_RxISR_8BIT+0x9a>
 8005c52:	687b      	ldr	r3, [r7, #4]
 8005c54:	2220      	movs	r2, #32
 8005c56:	f8c3 2080 	str.w	r2, [r3, #128]	; 0x80
 8005c5a:	687b      	ldr	r3, [r7, #4]
 8005c5c:	2200      	movs	r2, #0
 8005c5e:	669a      	str	r2, [r3, #104]	; 0x68
 8005c60:	687b      	ldr	r3, [r7, #4]
 8005c62:	2200      	movs	r2, #0
 8005c64:	665a      	str	r2, [r3, #100]	; 0x64
 8005c66:	687b      	ldr	r3, [r7, #4]
 8005c68:	681b      	ldr	r3, [r3, #0]
 8005c6a:	4a34      	ldr	r2, [pc, #208]	; (8005d3c <UART_RxISR_8BIT+0x1b8>)
 8005c6c:	4293      	cmp	r3, r2
 8005c6e:	d01f      	beq.n	8005cb0 <UART_RxISR_8BIT+0x12c>
 8005c70:	687b      	ldr	r3, [r7, #4]
 8005c72:	681b      	ldr	r3, [r3, #0]
 8005c74:	685b      	ldr	r3, [r3, #4]
 8005c76:	f403 0300 	and.w	r3, r3, #8388608	; 0x800000
 8005c7a:	2b00      	cmp	r3, #0
 8005c7c:	d018      	beq.n	8005cb0 <UART_RxISR_8BIT+0x12c>
 8005c7e:	687b      	ldr	r3, [r7, #4]
 8005c80:	681b      	ldr	r3, [r3, #0]
 8005c82:	627b      	str	r3, [r7, #36]	; 0x24
 8005c84:	6a7b      	ldr	r3, [r7, #36]	; 0x24
 8005c86:	e853 3f00 	ldrex	r3, [r3]
 8005c8a:	623b      	str	r3, [r7, #32]
 8005c8c:	6a3b      	ldr	r3, [r7, #32]
 8005c8e:	f023 6380 	bic.w	r3, r3, #67108864	; 0x4000000
 8005c92:	663b      	str	r3, [r7, #96]	; 0x60
 8005c94:	687b      	ldr	r3, [r7, #4]
 8005c96:	681b      	ldr	r3, [r3, #0]
 8005c98:	461a      	mov	r2, r3
 8005c9a:	6e3b      	ldr	r3, [r7, #96]	; 0x60
 8005c9c:	633b      	str	r3, [r7, #48]	; 0x30
 8005c9e:	62fa      	str	r2, [r7, #44]	; 0x2c
 8005ca0:	6af9      	ldr	r1, [r7, #44]	; 0x2c
 8005ca2:	6b3a      	ldr	r2, [r7, #48]	; 0x30
 8005ca4:	e841 2300 	strex	r3, r2, [r1]
 8005ca8:	62bb      	str	r3, [r7, #40]	; 0x28
 8005caa:	6abb      	ldr	r3, [r7, #40]	; 0x28
 8005cac:	2b00      	cmp	r3, #0
 8005cae:	d1e6      	bne.n	8005c7e <UART_RxISR_8BIT+0xfa>
 8005cb0:	687b      	ldr	r3, [r7, #4]
 8005cb2:	6e1b      	ldr	r3, [r3, #96]	; 0x60
 8005cb4:	2b01      	cmp	r3, #1
 8005cb6:	d12e      	bne.n	8005d16 <UART_RxISR_8BIT+0x192>
 8005cb8:	687b      	ldr	r3, [r7, #4]
 8005cba:	2200      	movs	r2, #0
 8005cbc:	661a      	str	r2, [r3, #96]	; 0x60
 8005cbe:	687b      	ldr	r3, [r7, #4]
 8005cc0:	681b      	ldr	r3, [r3, #0]
 8005cc2:	613b      	str	r3, [r7, #16]
 8005cc4:	693b      	ldr	r3, [r7, #16]
 8005cc6:	e853 3f00 	ldrex	r3, [r3]
 8005cca:	60fb      	str	r3, [r7, #12]
 8005ccc:	68fb      	ldr	r3, [r7, #12]
 8005cce:	f023 0310 	bic.w	r3, r3, #16
 8005cd2:	65fb      	str	r3, [r7, #92]	; 0x5c
 8005cd4:	687b      	ldr	r3, [r7, #4]
 8005cd6:	681b      	ldr	r3, [r3, #0]
 8005cd8:	461a      	mov	r2, r3
 8005cda:	6dfb      	ldr	r3, [r7, #92]	; 0x5c
 8005cdc:	61fb      	str	r3, [r7, #28]
 8005cde:	61ba      	str	r2, [r7, #24]
 8005ce0:	69b9      	ldr	r1, [r7, #24]
 8005ce2:	69fa      	ldr	r2, [r7, #28]
 8005ce4:	e841 2300 	strex	r3, r2, [r1]
 8005ce8:	617b      	str	r3, [r7, #20]
 8005cea:	697b      	ldr	r3, [r7, #20]
 8005cec:	2b00      	cmp	r3, #0
 8005cee:	d1e6      	bne.n	8005cbe <UART_RxISR_8BIT+0x13a>
 8005cf0:	687b      	ldr	r3, [r7, #4]
 8005cf2:	681b      	ldr	r3, [r3, #0]
 8005cf4:	69db      	ldr	r3, [r3, #28]
 8005cf6:	f003 0310 	and.w	r3, r3, #16
 8005cfa:	2b10      	cmp	r3, #16
 8005cfc:	d103      	bne.n	8005d06 <UART_RxISR_8BIT+0x182>
 8005cfe:	687b      	ldr	r3, [r7, #4]
 8005d00:	681b      	ldr	r3, [r3, #0]
 8005d02:	2210      	movs	r2, #16
 8005d04:	621a      	str	r2, [r3, #32]
 8005d06:	687b      	ldr	r3, [r7, #4]
 8005d08:	f8b3 3058 	ldrh.w	r3, [r3, #88]	; 0x58
 8005d0c:	4619      	mov	r1, r3
 8005d0e:	6878      	ldr	r0, [r7, #4]
 8005d10:	f7ff f8ce 	bl	8004eb0 <HAL_UARTEx_RxEventCallback>
 8005d14:	e00d      	b.n	8005d32 <UART_RxISR_8BIT+0x1ae>
 8005d16:	6878      	ldr	r0, [r7, #4]
 8005d18:	f7fb f876 	bl	8000e08 <HAL_UART_RxCpltCallback>
 8005d1c:	e009      	b.n	8005d32 <UART_RxISR_8BIT+0x1ae>
 8005d1e:	687b      	ldr	r3, [r7, #4]
 8005d20:	681b      	ldr	r3, [r3, #0]
 8005d22:	8b1b      	ldrh	r3, [r3, #24]
 8005d24:	b29a      	uxth	r2, r3
 8005d26:	687b      	ldr	r3, [r7, #4]
 8005d28:	681b      	ldr	r3, [r3, #0]
 8005d2a:	f042 0208 	orr.w	r2, r2, #8
 8005d2e:	b292      	uxth	r2, r2
 8005d30:	831a      	strh	r2, [r3, #24]
 8005d32:	bf00      	nop
 8005d34:	3770      	adds	r7, #112	; 0x70
 8005d36:	46bd      	mov	sp, r7
 8005d38:	bd80      	pop	{r7, pc}
 8005d3a:	bf00      	nop
 8005d3c:	40008000 	.word	0x40008000

08005d40 <UART_RxISR_16BIT>:
 8005d40:	b580      	push	{r7, lr}
 8005d42:	b09c      	sub	sp, #112	; 0x70
 8005d44:	af00      	add	r7, sp, #0
 8005d46:	6078      	str	r0, [r7, #4]
 8005d48:	687b      	ldr	r3, [r7, #4]
 8005d4a:	f8b3 305c 	ldrh.w	r3, [r3, #92]	; 0x5c
 8005d4e:	f8a7 306e 	strh.w	r3, [r7, #110]	; 0x6e
 8005d52:	687b      	ldr	r3, [r7, #4]
 8005d54:	f8d3 3080 	ldr.w	r3, [r3, #128]	; 0x80
 8005d58:	2b22      	cmp	r3, #34	; 0x22
 8005d5a:	f040 80be 	bne.w	8005eda <UART_RxISR_16BIT+0x19a>
 8005d5e:	687b      	ldr	r3, [r7, #4]
 8005d60:	681b      	ldr	r3, [r3, #0]
 8005d62:	8c9b      	ldrh	r3, [r3, #36]	; 0x24
 8005d64:	f8a7 306c 	strh.w	r3, [r7, #108]	; 0x6c
 8005d68:	687b      	ldr	r3, [r7, #4]
 8005d6a:	6d5b      	ldr	r3, [r3, #84]	; 0x54
 8005d6c:	66bb      	str	r3, [r7, #104]	; 0x68
 8005d6e:	f8b7 206c 	ldrh.w	r2, [r7, #108]	; 0x6c
 8005d72:	f8b7 306e 	ldrh.w	r3, [r7, #110]	; 0x6e
 8005d76:	4013      	ands	r3, r2
 8005d78:	b29a      	uxth	r2, r3
 8005d7a:	6ebb      	ldr	r3, [r7, #104]	; 0x68
 8005d7c:	801a      	strh	r2, [r3, #0]
 8005d7e:	687b      	ldr	r3, [r7, #4]
 8005d80:	6d5b      	ldr	r3, [r3, #84]	; 0x54
 8005d82:	1c9a      	adds	r2, r3, #2
 8005d84:	687b      	ldr	r3, [r7, #4]
 8005d86:	655a      	str	r2, [r3, #84]	; 0x54
 8005d88:	687b      	ldr	r3, [r7, #4]
 8005d8a:	f8b3 305a 	ldrh.w	r3, [r3, #90]	; 0x5a
 8005d8e:	b29b      	uxth	r3, r3
 8005d90:	3b01      	subs	r3, #1
 8005d92:	b29a      	uxth	r2, r3
 8005d94:	687b      	ldr	r3, [r7, #4]
 8005d96:	f8a3 205a 	strh.w	r2, [r3, #90]	; 0x5a
 8005d9a:	687b      	ldr	r3, [r7, #4]
 8005d9c:	f8b3 305a 	ldrh.w	r3, [r3, #90]	; 0x5a
 8005da0:	b29b      	uxth	r3, r3
 8005da2:	2b00      	cmp	r3, #0
 8005da4:	f040 80a3 	bne.w	8005eee <UART_RxISR_16BIT+0x1ae>
 8005da8:	687b      	ldr	r3, [r7, #4]
 8005daa:	681b      	ldr	r3, [r3, #0]
 8005dac:	64bb      	str	r3, [r7, #72]	; 0x48
 8005dae:	6cbb      	ldr	r3, [r7, #72]	; 0x48
 8005db0:	e853 3f00 	ldrex	r3, [r3]
 8005db4:	647b      	str	r3, [r7, #68]	; 0x44
 8005db6:	6c7b      	ldr	r3, [r7, #68]	; 0x44
 8005db8:	f423 7390 	bic.w	r3, r3, #288	; 0x120
 8005dbc:	667b      	str	r3, [r7, #100]	; 0x64
 8005dbe:	687b      	ldr	r3, [r7, #4]
 8005dc0:	681b      	ldr	r3, [r3, #0]
 8005dc2:	461a      	mov	r2, r3
 8005dc4:	6e7b      	ldr	r3, [r7, #100]	; 0x64
 8005dc6:	657b      	str	r3, [r7, #84]	; 0x54
 8005dc8:	653a      	str	r2, [r7, #80]	; 0x50
 8005dca:	6d39      	ldr	r1, [r7, #80]	; 0x50
 8005dcc:	6d7a      	ldr	r2, [r7, #84]	; 0x54
 8005dce:	e841 2300 	strex	r3, r2, [r1]
 8005dd2:	64fb      	str	r3, [r7, #76]	; 0x4c
 8005dd4:	6cfb      	ldr	r3, [r7, #76]	; 0x4c
 8005dd6:	2b00      	cmp	r3, #0
 8005dd8:	d1e6      	bne.n	8005da8 <UART_RxISR_16BIT+0x68>
 8005dda:	687b      	ldr	r3, [r7, #4]
 8005ddc:	681b      	ldr	r3, [r3, #0]
 8005dde:	3308      	adds	r3, #8
 8005de0:	637b      	str	r3, [r7, #52]	; 0x34
 8005de2:	6b7b      	ldr	r3, [r7, #52]	; 0x34
 8005de4:	e853 3f00 	ldrex	r3, [r3]
 8005de8:	633b      	str	r3, [r7, #48]	; 0x30
 8005dea:	6b3b      	ldr	r3, [r7, #48]	; 0x30
 8005dec:	f023 0301 	bic.w	r3, r3, #1
 8005df0:	663b      	str	r3, [r7, #96]	; 0x60
 8005df2:	687b      	ldr	r3, [r7, #4]
 8005df4:	681b      	ldr	r3, [r3, #0]
 8005df6:	3308      	adds	r3, #8
 8005df8:	6e3a      	ldr	r2, [r7, #96]	; 0x60
 8005dfa:	643a      	str	r2, [r7, #64]	; 0x40
 8005dfc:	63fb      	str	r3, [r7, #60]	; 0x3c
 8005dfe:	6bf9      	ldr	r1, [r7, #60]	; 0x3c
 8005e00:	6c3a      	ldr	r2, [r7, #64]	; 0x40
 8005e02:	e841 2300 	strex	r3, r2, [r1]
 8005e06:	63bb      	str	r3, [r7, #56]	; 0x38
 8005e08:	6bbb      	ldr	r3, [r7, #56]	; 0x38
 8005e0a:	2b00      	cmp	r3, #0
 8005e0c:	d1e5      	bne.n	8005dda <UART_RxISR_16BIT+0x9a>
 8005e0e:	687b      	ldr	r3, [r7, #4]
 8005e10:	2220      	movs	r2, #32
 8005e12:	f8c3 2080 	str.w	r2, [r3, #128]	; 0x80
 8005e16:	687b      	ldr	r3, [r7, #4]
 8005e18:	2200      	movs	r2, #0
 8005e1a:	669a      	str	r2, [r3, #104]	; 0x68
 8005e1c:	687b      	ldr	r3, [r7, #4]
 8005e1e:	2200      	movs	r2, #0
 8005e20:	665a      	str	r2, [r3, #100]	; 0x64
 8005e22:	687b      	ldr	r3, [r7, #4]
 8005e24:	681b      	ldr	r3, [r3, #0]
 8005e26:	4a34      	ldr	r2, [pc, #208]	; (8005ef8 <UART_RxISR_16BIT+0x1b8>)
 8005e28:	4293      	cmp	r3, r2
 8005e2a:	d01f      	beq.n	8005e6c <UART_RxISR_16BIT+0x12c>
 8005e2c:	687b      	ldr	r3, [r7, #4]
 8005e2e:	681b      	ldr	r3, [r3, #0]
 8005e30:	685b      	ldr	r3, [r3, #4]
 8005e32:	f403 0300 	and.w	r3, r3, #8388608	; 0x800000
 8005e36:	2b00      	cmp	r3, #0
 8005e38:	d018      	beq.n	8005e6c <UART_RxISR_16BIT+0x12c>
 8005e3a:	687b      	ldr	r3, [r7, #4]
 8005e3c:	681b      	ldr	r3, [r3, #0]
 8005e3e:	623b      	str	r3, [r7, #32]
 8005e40:	6a3b      	ldr	r3, [r7, #32]
 8005e42:	e853 3f00 	ldrex	r3, [r3]
 8005e46:	61fb      	str	r3, [r7, #28]
 8005e48:	69fb      	ldr	r3, [r7, #28]
 8005e4a:	f023 6380 	bic.w	r3, r3, #67108864	; 0x4000000
 8005e4e:	65fb      	str	r3, [r7, #92]	; 0x5c
 8005e50:	687b      	ldr	r3, [r7, #4]
 8005e52:	681b      	ldr	r3, [r3, #0]
 8005e54:	461a      	mov	r2, r3
 8005e56:	6dfb      	ldr	r3, [r7, #92]	; 0x5c
 8005e58:	62fb      	str	r3, [r7, #44]	; 0x2c
 8005e5a:	62ba      	str	r2, [r7, #40]	; 0x28
 8005e5c:	6ab9      	ldr	r1, [r7, #40]	; 0x28
 8005e5e:	6afa      	ldr	r2, [r7, #44]	; 0x2c
 8005e60:	e841 2300 	strex	r3, r2, [r1]
 8005e64:	627b      	str	r3, [r7, #36]	; 0x24
 8005e66:	6a7b      	ldr	r3, [r7, #36]	; 0x24
 8005e68:	2b00      	cmp	r3, #0
 8005e6a:	d1e6      	bne.n	8005e3a <UART_RxISR_16BIT+0xfa>
 8005e6c:	687b      	ldr	r3, [r7, #4]
 8005e6e:	6e1b      	ldr	r3, [r3, #96]	; 0x60
 8005e70:	2b01      	cmp	r3, #1
 8005e72:	d12e      	bne.n	8005ed2 <UART_RxISR_16BIT+0x192>
 8005e74:	687b      	ldr	r3, [r7, #4]
 8005e76:	2200      	movs	r2, #0
 8005e78:	661a      	str	r2, [r3, #96]	; 0x60
 8005e7a:	687b      	ldr	r3, [r7, #4]
 8005e7c:	681b      	ldr	r3, [r3, #0]
 8005e7e:	60fb      	str	r3, [r7, #12]
 8005e80:	68fb      	ldr	r3, [r7, #12]
 8005e82:	e853 3f00 	ldrex	r3, [r3]
 8005e86:	60bb      	str	r3, [r7, #8]
 8005e88:	68bb      	ldr	r3, [r7, #8]
 8005e8a:	f023 0310 	bic.w	r3, r3, #16
 8005e8e:	65bb      	str	r3, [r7, #88]	; 0x58
 8005e90:	687b      	ldr	r3, [r7, #4]
 8005e92:	681b      	ldr	r3, [r3, #0]
 8005e94:	461a      	mov	r2, r3
 8005e96:	6dbb      	ldr	r3, [r7, #88]	; 0x58
 8005e98:	61bb      	str	r3, [r7, #24]
 8005e9a:	617a      	str	r2, [r7, #20]
 8005e9c:	6979      	ldr	r1, [r7, #20]
 8005e9e:	69ba      	ldr	r2, [r7, #24]
 8005ea0:	e841 2300 	strex	r3, r2, [r1]
 8005ea4:	613b      	str	r3, [r7, #16]
 8005ea6:	693b      	ldr	r3, [r7, #16]
 8005ea8:	2b00      	cmp	r3, #0
 8005eaa:	d1e6      	bne.n	8005e7a <UART_RxISR_16BIT+0x13a>
 8005eac:	687b      	ldr	r3, [r7, #4]
 8005eae:	681b      	ldr	r3, [r3, #0]
 8005eb0:	69db      	ldr	r3, [r3, #28]
 8005eb2:	f003 0310 	and.w	r3, r3, #16
 8005eb6:	2b10      	cmp	r3, #16
 8005eb8:	d103      	bne.n	8005ec2 <UART_RxISR_16BIT+0x182>
 8005eba:	687b      	ldr	r3, [r7, #4]
 8005ebc:	681b      	ldr	r3, [r3, #0]
 8005ebe:	2210      	movs	r2, #16
 8005ec0:	621a      	str	r2, [r3, #32]
 8005ec2:	687b      	ldr	r3, [r7, #4]
 8005ec4:	f8b3 3058 	ldrh.w	r3, [r3, #88]	; 0x58
 8005ec8:	4619      	mov	r1, r3
 8005eca:	6878      	ldr	r0, [r7, #4]
 8005ecc:	f7fe fff0 	bl	8004eb0 <HAL_UARTEx_RxEventCallback>
 8005ed0:	e00d      	b.n	8005eee <UART_RxISR_16BIT+0x1ae>
 8005ed2:	6878      	ldr	r0, [r7, #4]
 8005ed4:	f7fa ff98 	bl	8000e08 <HAL_UART_RxCpltCallback>
 8005ed8:	e009      	b.n	8005eee <UART_RxISR_16BIT+0x1ae>
 8005eda:	687b      	ldr	r3, [r7, #4]
 8005edc:	681b      	ldr	r3, [r3, #0]
 8005ede:	8b1b      	ldrh	r3, [r3, #24]
 8005ee0:	b29a      	uxth	r2, r3
 8005ee2:	687b      	ldr	r3, [r7, #4]
 8005ee4:	681b      	ldr	r3, [r3, #0]
 8005ee6:	f042 0208 	orr.w	r2, r2, #8
 8005eea:	b292      	uxth	r2, r2
 8005eec:	831a      	strh	r2, [r3, #24]
 8005eee:	bf00      	nop
 8005ef0:	3770      	adds	r7, #112	; 0x70
 8005ef2:	46bd      	mov	sp, r7
 8005ef4:	bd80      	pop	{r7, pc}
 8005ef6:	bf00      	nop
 8005ef8:	40008000 	.word	0x40008000

08005efc <HAL_UARTEx_WakeupCallback>:
 8005efc:	b480      	push	{r7}
 8005efe:	b083      	sub	sp, #12
 8005f00:	af00      	add	r7, sp, #0
 8005f02:	6078      	str	r0, [r7, #4]
 8005f04:	bf00      	nop
 8005f06:	370c      	adds	r7, #12
 8005f08:	46bd      	mov	sp, r7
 8005f0a:	f85d 7b04 	ldr.w	r7, [sp], #4
 8005f0e:	4770      	bx	lr

08005f10 <siprintf>:
 8005f10:	b40e      	push	{r1, r2, r3}
 8005f12:	b500      	push	{lr}
 8005f14:	b09c      	sub	sp, #112	; 0x70
 8005f16:	ab1d      	add	r3, sp, #116	; 0x74
 8005f18:	9002      	str	r0, [sp, #8]
 8005f1a:	9006      	str	r0, [sp, #24]
 8005f1c:	f06f 4100 	mvn.w	r1, #2147483648	; 0x80000000
 8005f20:	4809      	ldr	r0, [pc, #36]	; (8005f48 <siprintf+0x38>)
 8005f22:	9107      	str	r1, [sp, #28]
 8005f24:	9104      	str	r1, [sp, #16]
 8005f26:	4909      	ldr	r1, [pc, #36]	; (8005f4c <siprintf+0x3c>)
 8005f28:	f853 2b04 	ldr.w	r2, [r3], #4
 8005f2c:	9105      	str	r1, [sp, #20]
 8005f2e:	6800      	ldr	r0, [r0, #0]
 8005f30:	9301      	str	r3, [sp, #4]
 8005f32:	a902      	add	r1, sp, #8
 8005f34:	f000 f9a8 	bl	8006288 <_svfiprintf_r>
 8005f38:	9b02      	ldr	r3, [sp, #8]
 8005f3a:	2200      	movs	r2, #0
 8005f3c:	701a      	strb	r2, [r3, #0]
 8005f3e:	b01c      	add	sp, #112	; 0x70
 8005f40:	f85d eb04 	ldr.w	lr, [sp], #4
 8005f44:	b003      	add	sp, #12
 8005f46:	4770      	bx	lr
 8005f48:	2000005c 	.word	0x2000005c
 8005f4c:	ffff0208 	.word	0xffff0208

08005f50 <memset>:
 8005f50:	4402      	add	r2, r0
 8005f52:	4603      	mov	r3, r0
 8005f54:	4293      	cmp	r3, r2
 8005f56:	d100      	bne.n	8005f5a <memset+0xa>
 8005f58:	4770      	bx	lr
 8005f5a:	f803 1b01 	strb.w	r1, [r3], #1
 8005f5e:	e7f9      	b.n	8005f54 <memset+0x4>

08005f60 <strstr>:
 8005f60:	780a      	ldrb	r2, [r1, #0]
 8005f62:	b570      	push	{r4, r5, r6, lr}
 8005f64:	b96a      	cbnz	r2, 8005f82 <strstr+0x22>
 8005f66:	bd70      	pop	{r4, r5, r6, pc}
 8005f68:	429a      	cmp	r2, r3
 8005f6a:	d109      	bne.n	8005f80 <strstr+0x20>
 8005f6c:	460c      	mov	r4, r1
 8005f6e:	4605      	mov	r5, r0
 8005f70:	f814 3f01 	ldrb.w	r3, [r4, #1]!
 8005f74:	2b00      	cmp	r3, #0
 8005f76:	d0f6      	beq.n	8005f66 <strstr+0x6>
 8005f78:	f815 6f01 	ldrb.w	r6, [r5, #1]!
 8005f7c:	429e      	cmp	r6, r3
 8005f7e:	d0f7      	beq.n	8005f70 <strstr+0x10>
 8005f80:	3001      	adds	r0, #1
 8005f82:	7803      	ldrb	r3, [r0, #0]
 8005f84:	2b00      	cmp	r3, #0
 8005f86:	d1ef      	bne.n	8005f68 <strstr+0x8>
 8005f88:	4618      	mov	r0, r3
 8005f8a:	e7ec      	b.n	8005f66 <strstr+0x6>

08005f8c <__errno>:
 8005f8c:	4b01      	ldr	r3, [pc, #4]	; (8005f94 <__errno+0x8>)
 8005f8e:	6818      	ldr	r0, [r3, #0]
 8005f90:	4770      	bx	lr
 8005f92:	bf00      	nop
 8005f94:	2000005c 	.word	0x2000005c

08005f98 <__libc_init_array>:
 8005f98:	b570      	push	{r4, r5, r6, lr}
 8005f9a:	4d0d      	ldr	r5, [pc, #52]	; (8005fd0 <__libc_init_array+0x38>)
 8005f9c:	4c0d      	ldr	r4, [pc, #52]	; (8005fd4 <__libc_init_array+0x3c>)
 8005f9e:	1b64      	subs	r4, r4, r5
 8005fa0:	10a4      	asrs	r4, r4, #2
 8005fa2:	2600      	movs	r6, #0
 8005fa4:	42a6      	cmp	r6, r4
 8005fa6:	d109      	bne.n	8005fbc <__libc_init_array+0x24>
 8005fa8:	4d0b      	ldr	r5, [pc, #44]	; (8005fd8 <__libc_init_array+0x40>)
 8005faa:	4c0c      	ldr	r4, [pc, #48]	; (8005fdc <__libc_init_array+0x44>)
 8005fac:	f000 fc6a 	bl	8006884 <_init>
 8005fb0:	1b64      	subs	r4, r4, r5
 8005fb2:	10a4      	asrs	r4, r4, #2
 8005fb4:	2600      	movs	r6, #0
 8005fb6:	42a6      	cmp	r6, r4
 8005fb8:	d105      	bne.n	8005fc6 <__libc_init_array+0x2e>
 8005fba:	bd70      	pop	{r4, r5, r6, pc}
 8005fbc:	f855 3b04 	ldr.w	r3, [r5], #4
 8005fc0:	4798      	blx	r3
 8005fc2:	3601      	adds	r6, #1
 8005fc4:	e7ee      	b.n	8005fa4 <__libc_init_array+0xc>
 8005fc6:	f855 3b04 	ldr.w	r3, [r5], #4
 8005fca:	4798      	blx	r3
 8005fcc:	3601      	adds	r6, #1
 8005fce:	e7f2      	b.n	8005fb6 <__libc_init_array+0x1e>
 8005fd0:	080069bc 	.word	0x080069bc
 8005fd4:	080069bc 	.word	0x080069bc
 8005fd8:	080069bc 	.word	0x080069bc
 8005fdc:	080069c0 	.word	0x080069c0

08005fe0 <__retarget_lock_acquire_recursive>:
 8005fe0:	4770      	bx	lr

08005fe2 <__retarget_lock_release_recursive>:
 8005fe2:	4770      	bx	lr

08005fe4 <_free_r>:
 8005fe4:	b537      	push	{r0, r1, r2, r4, r5, lr}
 8005fe6:	2900      	cmp	r1, #0
 8005fe8:	d044      	beq.n	8006074 <_free_r+0x90>
 8005fea:	f851 3c04 	ldr.w	r3, [r1, #-4]
 8005fee:	9001      	str	r0, [sp, #4]
 8005ff0:	2b00      	cmp	r3, #0
 8005ff2:	f1a1 0404 	sub.w	r4, r1, #4
 8005ff6:	bfb8      	it	lt
 8005ff8:	18e4      	addlt	r4, r4, r3
 8005ffa:	f000 f8df 	bl	80061bc <__malloc_lock>
 8005ffe:	4a1e      	ldr	r2, [pc, #120]	; (8006078 <_free_r+0x94>)
 8006000:	9801      	ldr	r0, [sp, #4]
 8006002:	6813      	ldr	r3, [r2, #0]
 8006004:	b933      	cbnz	r3, 8006014 <_free_r+0x30>
 8006006:	6063      	str	r3, [r4, #4]
 8006008:	6014      	str	r4, [r2, #0]
 800600a:	b003      	add	sp, #12
 800600c:	e8bd 4030 	ldmia.w	sp!, {r4, r5, lr}
 8006010:	f000 b8da 	b.w	80061c8 <__malloc_unlock>
 8006014:	42a3      	cmp	r3, r4
 8006016:	d908      	bls.n	800602a <_free_r+0x46>
 8006018:	6825      	ldr	r5, [r4, #0]
 800601a:	1961      	adds	r1, r4, r5
 800601c:	428b      	cmp	r3, r1
 800601e:	bf01      	itttt	eq
 8006020:	6819      	ldreq	r1, [r3, #0]
 8006022:	685b      	ldreq	r3, [r3, #4]
 8006024:	1949      	addeq	r1, r1, r5
 8006026:	6021      	streq	r1, [r4, #0]
 8006028:	e7ed      	b.n	8006006 <_free_r+0x22>
 800602a:	461a      	mov	r2, r3
 800602c:	685b      	ldr	r3, [r3, #4]
 800602e:	b10b      	cbz	r3, 8006034 <_free_r+0x50>
 8006030:	42a3      	cmp	r3, r4
 8006032:	d9fa      	bls.n	800602a <_free_r+0x46>
 8006034:	6811      	ldr	r1, [r2, #0]
 8006036:	1855      	adds	r5, r2, r1
 8006038:	42a5      	cmp	r5, r4
 800603a:	d10b      	bne.n	8006054 <_free_r+0x70>
 800603c:	6824      	ldr	r4, [r4, #0]
 800603e:	4421      	add	r1, r4
 8006040:	1854      	adds	r4, r2, r1
 8006042:	42a3      	cmp	r3, r4
 8006044:	6011      	str	r1, [r2, #0]
 8006046:	d1e0      	bne.n	800600a <_free_r+0x26>
 8006048:	681c      	ldr	r4, [r3, #0]
 800604a:	685b      	ldr	r3, [r3, #4]
 800604c:	6053      	str	r3, [r2, #4]
 800604e:	440c      	add	r4, r1
 8006050:	6014      	str	r4, [r2, #0]
 8006052:	e7da      	b.n	800600a <_free_r+0x26>
 8006054:	d902      	bls.n	800605c <_free_r+0x78>
 8006056:	230c      	movs	r3, #12
 8006058:	6003      	str	r3, [r0, #0]
 800605a:	e7d6      	b.n	800600a <_free_r+0x26>
 800605c:	6825      	ldr	r5, [r4, #0]
 800605e:	1961      	adds	r1, r4, r5
 8006060:	428b      	cmp	r3, r1
 8006062:	bf04      	itt	eq
 8006064:	6819      	ldreq	r1, [r3, #0]
 8006066:	685b      	ldreq	r3, [r3, #4]
 8006068:	6063      	str	r3, [r4, #4]
 800606a:	bf04      	itt	eq
 800606c:	1949      	addeq	r1, r1, r5
 800606e:	6021      	streq	r1, [r4, #0]
 8006070:	6054      	str	r4, [r2, #4]
 8006072:	e7ca      	b.n	800600a <_free_r+0x26>
 8006074:	b003      	add	sp, #12
 8006076:	bd30      	pop	{r4, r5, pc}
 8006078:	200005cc 	.word	0x200005cc

0800607c <sbrk_aligned>:
 800607c:	b570      	push	{r4, r5, r6, lr}
 800607e:	4e0e      	ldr	r6, [pc, #56]	; (80060b8 <sbrk_aligned+0x3c>)
 8006080:	460c      	mov	r4, r1
 8006082:	6831      	ldr	r1, [r6, #0]
 8006084:	4605      	mov	r5, r0
 8006086:	b911      	cbnz	r1, 800608e <sbrk_aligned+0x12>
 8006088:	f000 fba6 	bl	80067d8 <_sbrk_r>
 800608c:	6030      	str	r0, [r6, #0]
 800608e:	4621      	mov	r1, r4
 8006090:	4628      	mov	r0, r5
 8006092:	f000 fba1 	bl	80067d8 <_sbrk_r>
 8006096:	1c43      	adds	r3, r0, #1
 8006098:	d00a      	beq.n	80060b0 <sbrk_aligned+0x34>
 800609a:	1cc4      	adds	r4, r0, #3
 800609c:	f024 0403 	bic.w	r4, r4, #3
 80060a0:	42a0      	cmp	r0, r4
 80060a2:	d007      	beq.n	80060b4 <sbrk_aligned+0x38>
 80060a4:	1a21      	subs	r1, r4, r0
 80060a6:	4628      	mov	r0, r5
 80060a8:	f000 fb96 	bl	80067d8 <_sbrk_r>
 80060ac:	3001      	adds	r0, #1
 80060ae:	d101      	bne.n	80060b4 <sbrk_aligned+0x38>
 80060b0:	f04f 34ff 	mov.w	r4, #4294967295
 80060b4:	4620      	mov	r0, r4
 80060b6:	bd70      	pop	{r4, r5, r6, pc}
 80060b8:	200005d0 	.word	0x200005d0

080060bc <_malloc_r>:
 80060bc:	e92d 43f8 	stmdb	sp!, {r3, r4, r5, r6, r7, r8, r9, lr}
 80060c0:	1ccd      	adds	r5, r1, #3
 80060c2:	f025 0503 	bic.w	r5, r5, #3
 80060c6:	3508      	adds	r5, #8
 80060c8:	2d0c      	cmp	r5, #12
 80060ca:	bf38      	it	cc
 80060cc:	250c      	movcc	r5, #12
 80060ce:	2d00      	cmp	r5, #0
 80060d0:	4607      	mov	r7, r0
 80060d2:	db01      	blt.n	80060d8 <_malloc_r+0x1c>
 80060d4:	42a9      	cmp	r1, r5
 80060d6:	d905      	bls.n	80060e4 <_malloc_r+0x28>
 80060d8:	230c      	movs	r3, #12
 80060da:	603b      	str	r3, [r7, #0]
 80060dc:	2600      	movs	r6, #0
 80060de:	4630      	mov	r0, r6
 80060e0:	e8bd 83f8 	ldmia.w	sp!, {r3, r4, r5, r6, r7, r8, r9, pc}
 80060e4:	f8df 80d0 	ldr.w	r8, [pc, #208]	; 80061b8 <_malloc_r+0xfc>
 80060e8:	f000 f868 	bl	80061bc <__malloc_lock>
 80060ec:	f8d8 3000 	ldr.w	r3, [r8]
 80060f0:	461c      	mov	r4, r3
 80060f2:	bb5c      	cbnz	r4, 800614c <_malloc_r+0x90>
 80060f4:	4629      	mov	r1, r5
 80060f6:	4638      	mov	r0, r7
 80060f8:	f7ff ffc0 	bl	800607c <sbrk_aligned>
 80060fc:	1c43      	adds	r3, r0, #1
 80060fe:	4604      	mov	r4, r0
 8006100:	d155      	bne.n	80061ae <_malloc_r+0xf2>
 8006102:	f8d8 4000 	ldr.w	r4, [r8]
 8006106:	4626      	mov	r6, r4
 8006108:	2e00      	cmp	r6, #0
 800610a:	d145      	bne.n	8006198 <_malloc_r+0xdc>
 800610c:	2c00      	cmp	r4, #0
 800610e:	d048      	beq.n	80061a2 <_malloc_r+0xe6>
 8006110:	6823      	ldr	r3, [r4, #0]
 8006112:	4631      	mov	r1, r6
 8006114:	4638      	mov	r0, r7
 8006116:	eb04 0903 	add.w	r9, r4, r3
 800611a:	f000 fb5d 	bl	80067d8 <_sbrk_r>
 800611e:	4581      	cmp	r9, r0
 8006120:	d13f      	bne.n	80061a2 <_malloc_r+0xe6>
 8006122:	6821      	ldr	r1, [r4, #0]
 8006124:	1a6d      	subs	r5, r5, r1
 8006126:	4629      	mov	r1, r5
 8006128:	4638      	mov	r0, r7
 800612a:	f7ff ffa7 	bl	800607c <sbrk_aligned>
 800612e:	3001      	adds	r0, #1
 8006130:	d037      	beq.n	80061a2 <_malloc_r+0xe6>
 8006132:	6823      	ldr	r3, [r4, #0]
 8006134:	442b      	add	r3, r5
 8006136:	6023      	str	r3, [r4, #0]
 8006138:	f8d8 3000 	ldr.w	r3, [r8]
 800613c:	2b00      	cmp	r3, #0
 800613e:	d038      	beq.n	80061b2 <_malloc_r+0xf6>
 8006140:	685a      	ldr	r2, [r3, #4]
 8006142:	42a2      	cmp	r2, r4
 8006144:	d12b      	bne.n	800619e <_malloc_r+0xe2>
 8006146:	2200      	movs	r2, #0
 8006148:	605a      	str	r2, [r3, #4]
 800614a:	e00f      	b.n	800616c <_malloc_r+0xb0>
 800614c:	6822      	ldr	r2, [r4, #0]
 800614e:	1b52      	subs	r2, r2, r5
 8006150:	d41f      	bmi.n	8006192 <_malloc_r+0xd6>
 8006152:	2a0b      	cmp	r2, #11
 8006154:	d917      	bls.n	8006186 <_malloc_r+0xca>
 8006156:	1961      	adds	r1, r4, r5
 8006158:	42a3      	cmp	r3, r4
 800615a:	6025      	str	r5, [r4, #0]
 800615c:	bf18      	it	ne
 800615e:	6059      	strne	r1, [r3, #4]
 8006160:	6863      	ldr	r3, [r4, #4]
 8006162:	bf08      	it	eq
 8006164:	f8c8 1000 	streq.w	r1, [r8]
 8006168:	5162      	str	r2, [r4, r5]
 800616a:	604b      	str	r3, [r1, #4]
 800616c:	4638      	mov	r0, r7
 800616e:	f104 060b 	add.w	r6, r4, #11
 8006172:	f000 f829 	bl	80061c8 <__malloc_unlock>
 8006176:	f026 0607 	bic.w	r6, r6, #7
 800617a:	1d23      	adds	r3, r4, #4
 800617c:	1af2      	subs	r2, r6, r3
 800617e:	d0ae      	beq.n	80060de <_malloc_r+0x22>
 8006180:	1b9b      	subs	r3, r3, r6
 8006182:	50a3      	str	r3, [r4, r2]
 8006184:	e7ab      	b.n	80060de <_malloc_r+0x22>
 8006186:	42a3      	cmp	r3, r4
 8006188:	6862      	ldr	r2, [r4, #4]
 800618a:	d1dd      	bne.n	8006148 <_malloc_r+0x8c>
 800618c:	f8c8 2000 	str.w	r2, [r8]
 8006190:	e7ec      	b.n	800616c <_malloc_r+0xb0>
 8006192:	4623      	mov	r3, r4
 8006194:	6864      	ldr	r4, [r4, #4]
 8006196:	e7ac      	b.n	80060f2 <_malloc_r+0x36>
 8006198:	4634      	mov	r4, r6
 800619a:	6876      	ldr	r6, [r6, #4]
 800619c:	e7b4      	b.n	8006108 <_malloc_r+0x4c>
 800619e:	4613      	mov	r3, r2
 80061a0:	e7cc      	b.n	800613c <_malloc_r+0x80>
 80061a2:	230c      	movs	r3, #12
 80061a4:	603b      	str	r3, [r7, #0]
 80061a6:	4638      	mov	r0, r7
 80061a8:	f000 f80e 	bl	80061c8 <__malloc_unlock>
 80061ac:	e797      	b.n	80060de <_malloc_r+0x22>
 80061ae:	6025      	str	r5, [r4, #0]
 80061b0:	e7dc      	b.n	800616c <_malloc_r+0xb0>
 80061b2:	605b      	str	r3, [r3, #4]
 80061b4:	deff      	udf	#255	; 0xff
 80061b6:	bf00      	nop
 80061b8:	200005cc 	.word	0x200005cc

080061bc <__malloc_lock>:
 80061bc:	4801      	ldr	r0, [pc, #4]	; (80061c4 <__malloc_lock+0x8>)
 80061be:	f7ff bf0f 	b.w	8005fe0 <__retarget_lock_acquire_recursive>
 80061c2:	bf00      	nop
 80061c4:	200005c8 	.word	0x200005c8

080061c8 <__malloc_unlock>:
 80061c8:	4801      	ldr	r0, [pc, #4]	; (80061d0 <__malloc_unlock+0x8>)
 80061ca:	f7ff bf0a 	b.w	8005fe2 <__retarget_lock_release_recursive>
 80061ce:	bf00      	nop
 80061d0:	200005c8 	.word	0x200005c8

080061d4 <__ssputs_r>:
 80061d4:	e92d 47f0 	stmdb	sp!, {r4, r5, r6, r7, r8, r9, sl, lr}
 80061d8:	688e      	ldr	r6, [r1, #8]
 80061da:	461f      	mov	r7, r3
 80061dc:	42be      	cmp	r6, r7
 80061de:	680b      	ldr	r3, [r1, #0]
 80061e0:	4682      	mov	sl, r0
 80061e2:	460c      	mov	r4, r1
 80061e4:	4690      	mov	r8, r2
 80061e6:	d82c      	bhi.n	8006242 <__ssputs_r+0x6e>
 80061e8:	898a      	ldrh	r2, [r1, #12]
 80061ea:	f412 6f90 	tst.w	r2, #1152	; 0x480
 80061ee:	d026      	beq.n	800623e <__ssputs_r+0x6a>
 80061f0:	6965      	ldr	r5, [r4, #20]
 80061f2:	6909      	ldr	r1, [r1, #16]
 80061f4:	eb05 0545 	add.w	r5, r5, r5, lsl #1
 80061f8:	eba3 0901 	sub.w	r9, r3, r1
 80061fc:	eb05 75d5 	add.w	r5, r5, r5, lsr #31
 8006200:	1c7b      	adds	r3, r7, #1
 8006202:	444b      	add	r3, r9
 8006204:	106d      	asrs	r5, r5, #1
 8006206:	429d      	cmp	r5, r3
 8006208:	bf38      	it	cc
 800620a:	461d      	movcc	r5, r3
 800620c:	0553      	lsls	r3, r2, #21
 800620e:	d527      	bpl.n	8006260 <__ssputs_r+0x8c>
 8006210:	4629      	mov	r1, r5
 8006212:	f7ff ff53 	bl	80060bc <_malloc_r>
 8006216:	4606      	mov	r6, r0
 8006218:	b360      	cbz	r0, 8006274 <__ssputs_r+0xa0>
 800621a:	6921      	ldr	r1, [r4, #16]
 800621c:	464a      	mov	r2, r9
 800621e:	f000 faeb 	bl	80067f8 <memcpy>
 8006222:	89a3      	ldrh	r3, [r4, #12]
 8006224:	f423 6390 	bic.w	r3, r3, #1152	; 0x480
 8006228:	f043 0380 	orr.w	r3, r3, #128	; 0x80
 800622c:	81a3      	strh	r3, [r4, #12]
 800622e:	6126      	str	r6, [r4, #16]
 8006230:	6165      	str	r5, [r4, #20]
 8006232:	444e      	add	r6, r9
 8006234:	eba5 0509 	sub.w	r5, r5, r9
 8006238:	6026      	str	r6, [r4, #0]
 800623a:	60a5      	str	r5, [r4, #8]
 800623c:	463e      	mov	r6, r7
 800623e:	42be      	cmp	r6, r7
 8006240:	d900      	bls.n	8006244 <__ssputs_r+0x70>
 8006242:	463e      	mov	r6, r7
 8006244:	6820      	ldr	r0, [r4, #0]
 8006246:	4632      	mov	r2, r6
 8006248:	4641      	mov	r1, r8
 800624a:	f000 faab 	bl	80067a4 <memmove>
 800624e:	68a3      	ldr	r3, [r4, #8]
 8006250:	1b9b      	subs	r3, r3, r6
 8006252:	60a3      	str	r3, [r4, #8]
 8006254:	6823      	ldr	r3, [r4, #0]
 8006256:	4433      	add	r3, r6
 8006258:	6023      	str	r3, [r4, #0]
 800625a:	2000      	movs	r0, #0
 800625c:	e8bd 87f0 	ldmia.w	sp!, {r4, r5, r6, r7, r8, r9, sl, pc}
 8006260:	462a      	mov	r2, r5
 8006262:	f000 fad7 	bl	8006814 <_realloc_r>
 8006266:	4606      	mov	r6, r0
 8006268:	2800      	cmp	r0, #0
 800626a:	d1e0      	bne.n	800622e <__ssputs_r+0x5a>
 800626c:	6921      	ldr	r1, [r4, #16]
 800626e:	4650      	mov	r0, sl
 8006270:	f7ff feb8 	bl	8005fe4 <_free_r>
 8006274:	230c      	movs	r3, #12
 8006276:	f8ca 3000 	str.w	r3, [sl]
 800627a:	89a3      	ldrh	r3, [r4, #12]
 800627c:	f043 0340 	orr.w	r3, r3, #64	; 0x40
 8006280:	81a3      	strh	r3, [r4, #12]
 8006282:	f04f 30ff 	mov.w	r0, #4294967295
 8006286:	e7e9      	b.n	800625c <__ssputs_r+0x88>

08006288 <_svfiprintf_r>:
 8006288:	e92d 4ff0 	stmdb	sp!, {r4, r5, r6, r7, r8, r9, sl, fp, lr}
 800628c:	4698      	mov	r8, r3
 800628e:	898b      	ldrh	r3, [r1, #12]
 8006290:	061b      	lsls	r3, r3, #24
 8006292:	b09d      	sub	sp, #116	; 0x74
 8006294:	4607      	mov	r7, r0
 8006296:	460d      	mov	r5, r1
 8006298:	4614      	mov	r4, r2
 800629a:	d50e      	bpl.n	80062ba <_svfiprintf_r+0x32>
 800629c:	690b      	ldr	r3, [r1, #16]
 800629e:	b963      	cbnz	r3, 80062ba <_svfiprintf_r+0x32>
 80062a0:	2140      	movs	r1, #64	; 0x40
 80062a2:	f7ff ff0b 	bl	80060bc <_malloc_r>
 80062a6:	6028      	str	r0, [r5, #0]
 80062a8:	6128      	str	r0, [r5, #16]
 80062aa:	b920      	cbnz	r0, 80062b6 <_svfiprintf_r+0x2e>
 80062ac:	230c      	movs	r3, #12
 80062ae:	603b      	str	r3, [r7, #0]
 80062b0:	f04f 30ff 	mov.w	r0, #4294967295
 80062b4:	e0d0      	b.n	8006458 <_svfiprintf_r+0x1d0>
 80062b6:	2340      	movs	r3, #64	; 0x40
 80062b8:	616b      	str	r3, [r5, #20]
 80062ba:	2300      	movs	r3, #0
 80062bc:	9309      	str	r3, [sp, #36]	; 0x24
 80062be:	2320      	movs	r3, #32
 80062c0:	f88d 3029 	strb.w	r3, [sp, #41]	; 0x29
 80062c4:	f8cd 800c 	str.w	r8, [sp, #12]
 80062c8:	2330      	movs	r3, #48	; 0x30
 80062ca:	f8df 81a4 	ldr.w	r8, [pc, #420]	; 8006470 <_svfiprintf_r+0x1e8>
 80062ce:	f88d 302a 	strb.w	r3, [sp, #42]	; 0x2a
 80062d2:	f04f 0901 	mov.w	r9, #1
 80062d6:	4623      	mov	r3, r4
 80062d8:	469a      	mov	sl, r3
 80062da:	f813 2b01 	ldrb.w	r2, [r3], #1
 80062de:	b10a      	cbz	r2, 80062e4 <_svfiprintf_r+0x5c>
 80062e0:	2a25      	cmp	r2, #37	; 0x25
 80062e2:	d1f9      	bne.n	80062d8 <_svfiprintf_r+0x50>
 80062e4:	ebba 0b04 	subs.w	fp, sl, r4
 80062e8:	d00b      	beq.n	8006302 <_svfiprintf_r+0x7a>
 80062ea:	465b      	mov	r3, fp
 80062ec:	4622      	mov	r2, r4
 80062ee:	4629      	mov	r1, r5
 80062f0:	4638      	mov	r0, r7
 80062f2:	f7ff ff6f 	bl	80061d4 <__ssputs_r>
 80062f6:	3001      	adds	r0, #1
 80062f8:	f000 80a9 	beq.w	800644e <_svfiprintf_r+0x1c6>
 80062fc:	9a09      	ldr	r2, [sp, #36]	; 0x24
 80062fe:	445a      	add	r2, fp
 8006300:	9209      	str	r2, [sp, #36]	; 0x24
 8006302:	f89a 3000 	ldrb.w	r3, [sl]
 8006306:	2b00      	cmp	r3, #0
 8006308:	f000 80a1 	beq.w	800644e <_svfiprintf_r+0x1c6>
 800630c:	2300      	movs	r3, #0
 800630e:	f04f 32ff 	mov.w	r2, #4294967295
 8006312:	e9cd 2305 	strd	r2, r3, [sp, #20]
 8006316:	f10a 0a01 	add.w	sl, sl, #1
 800631a:	9304      	str	r3, [sp, #16]
 800631c:	9307      	str	r3, [sp, #28]
 800631e:	f88d 3053 	strb.w	r3, [sp, #83]	; 0x53
 8006322:	931a      	str	r3, [sp, #104]	; 0x68
 8006324:	4654      	mov	r4, sl
 8006326:	2205      	movs	r2, #5
 8006328:	f814 1b01 	ldrb.w	r1, [r4], #1
 800632c:	4850      	ldr	r0, [pc, #320]	; (8006470 <_svfiprintf_r+0x1e8>)
 800632e:	f7f9 ff5f 	bl	80001f0 <memchr>
 8006332:	9a04      	ldr	r2, [sp, #16]
 8006334:	b9d8      	cbnz	r0, 800636e <_svfiprintf_r+0xe6>
 8006336:	06d0      	lsls	r0, r2, #27
 8006338:	bf44      	itt	mi
 800633a:	2320      	movmi	r3, #32
 800633c:	f88d 3053 	strbmi.w	r3, [sp, #83]	; 0x53
 8006340:	0711      	lsls	r1, r2, #28
 8006342:	bf44      	itt	mi
 8006344:	232b      	movmi	r3, #43	; 0x2b
 8006346:	f88d 3053 	strbmi.w	r3, [sp, #83]	; 0x53
 800634a:	f89a 3000 	ldrb.w	r3, [sl]
 800634e:	2b2a      	cmp	r3, #42	; 0x2a
 8006350:	d015      	beq.n	800637e <_svfiprintf_r+0xf6>
 8006352:	9a07      	ldr	r2, [sp, #28]
 8006354:	4654      	mov	r4, sl
 8006356:	2000      	movs	r0, #0
 8006358:	f04f 0c0a 	mov.w	ip, #10
 800635c:	4621      	mov	r1, r4
 800635e:	f811 3b01 	ldrb.w	r3, [r1], #1
 8006362:	3b30      	subs	r3, #48	; 0x30
 8006364:	2b09      	cmp	r3, #9
 8006366:	d94d      	bls.n	8006404 <_svfiprintf_r+0x17c>
 8006368:	b1b0      	cbz	r0, 8006398 <_svfiprintf_r+0x110>
 800636a:	9207      	str	r2, [sp, #28]
 800636c:	e014      	b.n	8006398 <_svfiprintf_r+0x110>
 800636e:	eba0 0308 	sub.w	r3, r0, r8
 8006372:	fa09 f303 	lsl.w	r3, r9, r3
 8006376:	4313      	orrs	r3, r2
 8006378:	9304      	str	r3, [sp, #16]
 800637a:	46a2      	mov	sl, r4
 800637c:	e7d2      	b.n	8006324 <_svfiprintf_r+0x9c>
 800637e:	9b03      	ldr	r3, [sp, #12]
 8006380:	1d19      	adds	r1, r3, #4
 8006382:	681b      	ldr	r3, [r3, #0]
 8006384:	9103      	str	r1, [sp, #12]
 8006386:	2b00      	cmp	r3, #0
 8006388:	bfbb      	ittet	lt
 800638a:	425b      	neglt	r3, r3
 800638c:	f042 0202 	orrlt.w	r2, r2, #2
 8006390:	9307      	strge	r3, [sp, #28]
 8006392:	9307      	strlt	r3, [sp, #28]
 8006394:	bfb8      	it	lt
 8006396:	9204      	strlt	r2, [sp, #16]
 8006398:	7823      	ldrb	r3, [r4, #0]
 800639a:	2b2e      	cmp	r3, #46	; 0x2e
 800639c:	d10c      	bne.n	80063b8 <_svfiprintf_r+0x130>
 800639e:	7863      	ldrb	r3, [r4, #1]
 80063a0:	2b2a      	cmp	r3, #42	; 0x2a
 80063a2:	d134      	bne.n	800640e <_svfiprintf_r+0x186>
 80063a4:	9b03      	ldr	r3, [sp, #12]
 80063a6:	1d1a      	adds	r2, r3, #4
 80063a8:	681b      	ldr	r3, [r3, #0]
 80063aa:	9203      	str	r2, [sp, #12]
 80063ac:	2b00      	cmp	r3, #0
 80063ae:	bfb8      	it	lt
 80063b0:	f04f 33ff 	movlt.w	r3, #4294967295
 80063b4:	3402      	adds	r4, #2
 80063b6:	9305      	str	r3, [sp, #20]
 80063b8:	f8df a0c4 	ldr.w	sl, [pc, #196]	; 8006480 <_svfiprintf_r+0x1f8>
 80063bc:	7821      	ldrb	r1, [r4, #0]
 80063be:	2203      	movs	r2, #3
 80063c0:	4650      	mov	r0, sl
 80063c2:	f7f9 ff15 	bl	80001f0 <memchr>
 80063c6:	b138      	cbz	r0, 80063d8 <_svfiprintf_r+0x150>
 80063c8:	9b04      	ldr	r3, [sp, #16]
 80063ca:	eba0 000a 	sub.w	r0, r0, sl
 80063ce:	2240      	movs	r2, #64	; 0x40
 80063d0:	4082      	lsls	r2, r0
 80063d2:	4313      	orrs	r3, r2
 80063d4:	3401      	adds	r4, #1
 80063d6:	9304      	str	r3, [sp, #16]
 80063d8:	f814 1b01 	ldrb.w	r1, [r4], #1
 80063dc:	4825      	ldr	r0, [pc, #148]	; (8006474 <_svfiprintf_r+0x1ec>)
 80063de:	f88d 1028 	strb.w	r1, [sp, #40]	; 0x28
 80063e2:	2206      	movs	r2, #6
 80063e4:	f7f9 ff04 	bl	80001f0 <memchr>
 80063e8:	2800      	cmp	r0, #0
 80063ea:	d038      	beq.n	800645e <_svfiprintf_r+0x1d6>
 80063ec:	4b22      	ldr	r3, [pc, #136]	; (8006478 <_svfiprintf_r+0x1f0>)
 80063ee:	bb1b      	cbnz	r3, 8006438 <_svfiprintf_r+0x1b0>
 80063f0:	9b03      	ldr	r3, [sp, #12]
 80063f2:	3307      	adds	r3, #7
 80063f4:	f023 0307 	bic.w	r3, r3, #7
 80063f8:	3308      	adds	r3, #8
 80063fa:	9303      	str	r3, [sp, #12]
 80063fc:	9b09      	ldr	r3, [sp, #36]	; 0x24
 80063fe:	4433      	add	r3, r6
 8006400:	9309      	str	r3, [sp, #36]	; 0x24
 8006402:	e768      	b.n	80062d6 <_svfiprintf_r+0x4e>
 8006404:	fb0c 3202 	mla	r2, ip, r2, r3
 8006408:	460c      	mov	r4, r1
 800640a:	2001      	movs	r0, #1
 800640c:	e7a6      	b.n	800635c <_svfiprintf_r+0xd4>
 800640e:	2300      	movs	r3, #0
 8006410:	3401      	adds	r4, #1
 8006412:	9305      	str	r3, [sp, #20]
 8006414:	4619      	mov	r1, r3
 8006416:	f04f 0c0a 	mov.w	ip, #10
 800641a:	4620      	mov	r0, r4
 800641c:	f810 2b01 	ldrb.w	r2, [r0], #1
 8006420:	3a30      	subs	r2, #48	; 0x30
 8006422:	2a09      	cmp	r2, #9
 8006424:	d903      	bls.n	800642e <_svfiprintf_r+0x1a6>
 8006426:	2b00      	cmp	r3, #0
 8006428:	d0c6      	beq.n	80063b8 <_svfiprintf_r+0x130>
 800642a:	9105      	str	r1, [sp, #20]
 800642c:	e7c4      	b.n	80063b8 <_svfiprintf_r+0x130>
 800642e:	fb0c 2101 	mla	r1, ip, r1, r2
 8006432:	4604      	mov	r4, r0
 8006434:	2301      	movs	r3, #1
 8006436:	e7f0      	b.n	800641a <_svfiprintf_r+0x192>
 8006438:	ab03      	add	r3, sp, #12
 800643a:	9300      	str	r3, [sp, #0]
 800643c:	462a      	mov	r2, r5
 800643e:	4b0f      	ldr	r3, [pc, #60]	; (800647c <_svfiprintf_r+0x1f4>)
 8006440:	a904      	add	r1, sp, #16
 8006442:	4638      	mov	r0, r7
 8006444:	f3af 8000 	nop.w
 8006448:	1c42      	adds	r2, r0, #1
 800644a:	4606      	mov	r6, r0
 800644c:	d1d6      	bne.n	80063fc <_svfiprintf_r+0x174>
 800644e:	89ab      	ldrh	r3, [r5, #12]
 8006450:	065b      	lsls	r3, r3, #25
 8006452:	f53f af2d 	bmi.w	80062b0 <_svfiprintf_r+0x28>
 8006456:	9809      	ldr	r0, [sp, #36]	; 0x24
 8006458:	b01d      	add	sp, #116	; 0x74
 800645a:	e8bd 8ff0 	ldmia.w	sp!, {r4, r5, r6, r7, r8, r9, sl, fp, pc}
 800645e:	ab03      	add	r3, sp, #12
 8006460:	9300      	str	r3, [sp, #0]
 8006462:	462a      	mov	r2, r5
 8006464:	4b05      	ldr	r3, [pc, #20]	; (800647c <_svfiprintf_r+0x1f4>)
 8006466:	a904      	add	r1, sp, #16
 8006468:	4638      	mov	r0, r7
 800646a:	f000 f879 	bl	8006560 <_printf_i>
 800646e:	e7eb      	b.n	8006448 <_svfiprintf_r+0x1c0>
 8006470:	08006980 	.word	0x08006980
 8006474:	0800698a 	.word	0x0800698a
 8006478:	00000000 	.word	0x00000000
 800647c:	080061d5 	.word	0x080061d5
 8006480:	08006986 	.word	0x08006986

08006484 <_printf_common>:
 8006484:	e92d 47f0 	stmdb	sp!, {r4, r5, r6, r7, r8, r9, sl, lr}
 8006488:	4616      	mov	r6, r2
 800648a:	4699      	mov	r9, r3
 800648c:	688a      	ldr	r2, [r1, #8]
 800648e:	690b      	ldr	r3, [r1, #16]
 8006490:	f8dd 8020 	ldr.w	r8, [sp, #32]
 8006494:	4293      	cmp	r3, r2
 8006496:	bfb8      	it	lt
 8006498:	4613      	movlt	r3, r2
 800649a:	6033      	str	r3, [r6, #0]
 800649c:	f891 2043 	ldrb.w	r2, [r1, #67]	; 0x43
 80064a0:	4607      	mov	r7, r0
 80064a2:	460c      	mov	r4, r1
 80064a4:	b10a      	cbz	r2, 80064aa <_printf_common+0x26>
 80064a6:	3301      	adds	r3, #1
 80064a8:	6033      	str	r3, [r6, #0]
 80064aa:	6823      	ldr	r3, [r4, #0]
 80064ac:	0699      	lsls	r1, r3, #26
 80064ae:	bf42      	ittt	mi
 80064b0:	6833      	ldrmi	r3, [r6, #0]
 80064b2:	3302      	addmi	r3, #2
 80064b4:	6033      	strmi	r3, [r6, #0]
 80064b6:	6825      	ldr	r5, [r4, #0]
 80064b8:	f015 0506 	ands.w	r5, r5, #6
 80064bc:	d106      	bne.n	80064cc <_printf_common+0x48>
 80064be:	f104 0a19 	add.w	sl, r4, #25
 80064c2:	68e3      	ldr	r3, [r4, #12]
 80064c4:	6832      	ldr	r2, [r6, #0]
 80064c6:	1a9b      	subs	r3, r3, r2
 80064c8:	42ab      	cmp	r3, r5
 80064ca:	dc26      	bgt.n	800651a <_printf_common+0x96>
 80064cc:	f894 2043 	ldrb.w	r2, [r4, #67]	; 0x43
 80064d0:	1e13      	subs	r3, r2, #0
 80064d2:	6822      	ldr	r2, [r4, #0]
 80064d4:	bf18      	it	ne
 80064d6:	2301      	movne	r3, #1
 80064d8:	0692      	lsls	r2, r2, #26
 80064da:	d42b      	bmi.n	8006534 <_printf_common+0xb0>
 80064dc:	f104 0243 	add.w	r2, r4, #67	; 0x43
 80064e0:	4649      	mov	r1, r9
 80064e2:	4638      	mov	r0, r7
 80064e4:	47c0      	blx	r8
 80064e6:	3001      	adds	r0, #1
 80064e8:	d01e      	beq.n	8006528 <_printf_common+0xa4>
 80064ea:	6823      	ldr	r3, [r4, #0]
 80064ec:	6922      	ldr	r2, [r4, #16]
 80064ee:	f003 0306 	and.w	r3, r3, #6
 80064f2:	2b04      	cmp	r3, #4
 80064f4:	bf02      	ittt	eq
 80064f6:	68e5      	ldreq	r5, [r4, #12]
 80064f8:	6833      	ldreq	r3, [r6, #0]
 80064fa:	1aed      	subeq	r5, r5, r3
 80064fc:	68a3      	ldr	r3, [r4, #8]
 80064fe:	bf0c      	ite	eq
 8006500:	ea25 75e5 	biceq.w	r5, r5, r5, asr #31
 8006504:	2500      	movne	r5, #0
 8006506:	4293      	cmp	r3, r2
 8006508:	bfc4      	itt	gt
 800650a:	1a9b      	subgt	r3, r3, r2
 800650c:	18ed      	addgt	r5, r5, r3
 800650e:	2600      	movs	r6, #0
 8006510:	341a      	adds	r4, #26
 8006512:	42b5      	cmp	r5, r6
 8006514:	d11a      	bne.n	800654c <_printf_common+0xc8>
 8006516:	2000      	movs	r0, #0
 8006518:	e008      	b.n	800652c <_printf_common+0xa8>
 800651a:	2301      	movs	r3, #1
 800651c:	4652      	mov	r2, sl
 800651e:	4649      	mov	r1, r9
 8006520:	4638      	mov	r0, r7
 8006522:	47c0      	blx	r8
 8006524:	3001      	adds	r0, #1
 8006526:	d103      	bne.n	8006530 <_printf_common+0xac>
 8006528:	f04f 30ff 	mov.w	r0, #4294967295
 800652c:	e8bd 87f0 	ldmia.w	sp!, {r4, r5, r6, r7, r8, r9, sl, pc}
 8006530:	3501      	adds	r5, #1
 8006532:	e7c6      	b.n	80064c2 <_printf_common+0x3e>
 8006534:	18e1      	adds	r1, r4, r3
 8006536:	1c5a      	adds	r2, r3, #1
 8006538:	2030      	movs	r0, #48	; 0x30
 800653a:	f881 0043 	strb.w	r0, [r1, #67]	; 0x43
 800653e:	4422      	add	r2, r4
 8006540:	f894 1045 	ldrb.w	r1, [r4, #69]	; 0x45
 8006544:	f882 1043 	strb.w	r1, [r2, #67]	; 0x43
 8006548:	3302      	adds	r3, #2
 800654a:	e7c7      	b.n	80064dc <_printf_common+0x58>
 800654c:	2301      	movs	r3, #1
 800654e:	4622      	mov	r2, r4
 8006550:	4649      	mov	r1, r9
 8006552:	4638      	mov	r0, r7
 8006554:	47c0      	blx	r8
 8006556:	3001      	adds	r0, #1
 8006558:	d0e6      	beq.n	8006528 <_printf_common+0xa4>
 800655a:	3601      	adds	r6, #1
 800655c:	e7d9      	b.n	8006512 <_printf_common+0x8e>
	...

08006560 <_printf_i>:
 8006560:	e92d 47ff 	stmdb	sp!, {r0, r1, r2, r3, r4, r5, r6, r7, r8, r9, sl, lr}
 8006564:	7e0f      	ldrb	r7, [r1, #24]
 8006566:	9d0c      	ldr	r5, [sp, #48]	; 0x30
 8006568:	2f78      	cmp	r7, #120	; 0x78
 800656a:	4691      	mov	r9, r2
 800656c:	4680      	mov	r8, r0
 800656e:	460c      	mov	r4, r1
 8006570:	469a      	mov	sl, r3
 8006572:	f101 0243 	add.w	r2, r1, #67	; 0x43
 8006576:	d807      	bhi.n	8006588 <_printf_i+0x28>
 8006578:	2f62      	cmp	r7, #98	; 0x62
 800657a:	d80a      	bhi.n	8006592 <_printf_i+0x32>
 800657c:	2f00      	cmp	r7, #0
 800657e:	f000 80d4 	beq.w	800672a <_printf_i+0x1ca>
 8006582:	2f58      	cmp	r7, #88	; 0x58
 8006584:	f000 80c0 	beq.w	8006708 <_printf_i+0x1a8>
 8006588:	f104 0542 	add.w	r5, r4, #66	; 0x42
 800658c:	f884 7042 	strb.w	r7, [r4, #66]	; 0x42
 8006590:	e03a      	b.n	8006608 <_printf_i+0xa8>
 8006592:	f1a7 0363 	sub.w	r3, r7, #99	; 0x63
 8006596:	2b15      	cmp	r3, #21
 8006598:	d8f6      	bhi.n	8006588 <_printf_i+0x28>
 800659a:	a101      	add	r1, pc, #4	; (adr r1, 80065a0 <_printf_i+0x40>)
 800659c:	f851 f023 	ldr.w	pc, [r1, r3, lsl #2]
 80065a0:	080065f9 	.word	0x080065f9
 80065a4:	0800660d 	.word	0x0800660d
 80065a8:	08006589 	.word	0x08006589
 80065ac:	08006589 	.word	0x08006589
 80065b0:	08006589 	.word	0x08006589
 80065b4:	08006589 	.word	0x08006589
 80065b8:	0800660d 	.word	0x0800660d
 80065bc:	08006589 	.word	0x08006589
 80065c0:	08006589 	.word	0x08006589
 80065c4:	08006589 	.word	0x08006589
 80065c8:	08006589 	.word	0x08006589
 80065cc:	08006711 	.word	0x08006711
 80065d0:	08006639 	.word	0x08006639
 80065d4:	080066cb 	.word	0x080066cb
 80065d8:	08006589 	.word	0x08006589
 80065dc:	08006589 	.word	0x08006589
 80065e0:	08006733 	.word	0x08006733
 80065e4:	08006589 	.word	0x08006589
 80065e8:	08006639 	.word	0x08006639
 80065ec:	08006589 	.word	0x08006589
 80065f0:	08006589 	.word	0x08006589
 80065f4:	080066d3 	.word	0x080066d3
 80065f8:	682b      	ldr	r3, [r5, #0]
 80065fa:	1d1a      	adds	r2, r3, #4
 80065fc:	681b      	ldr	r3, [r3, #0]
 80065fe:	602a      	str	r2, [r5, #0]
 8006600:	f104 0542 	add.w	r5, r4, #66	; 0x42
 8006604:	f884 3042 	strb.w	r3, [r4, #66]	; 0x42
 8006608:	2301      	movs	r3, #1
 800660a:	e09f      	b.n	800674c <_printf_i+0x1ec>
 800660c:	6820      	ldr	r0, [r4, #0]
 800660e:	682b      	ldr	r3, [r5, #0]
 8006610:	0607      	lsls	r7, r0, #24
 8006612:	f103 0104 	add.w	r1, r3, #4
 8006616:	6029      	str	r1, [r5, #0]
 8006618:	d501      	bpl.n	800661e <_printf_i+0xbe>
 800661a:	681e      	ldr	r6, [r3, #0]
 800661c:	e003      	b.n	8006626 <_printf_i+0xc6>
 800661e:	0646      	lsls	r6, r0, #25
 8006620:	d5fb      	bpl.n	800661a <_printf_i+0xba>
 8006622:	f9b3 6000 	ldrsh.w	r6, [r3]
 8006626:	2e00      	cmp	r6, #0
 8006628:	da03      	bge.n	8006632 <_printf_i+0xd2>
 800662a:	232d      	movs	r3, #45	; 0x2d
 800662c:	4276      	negs	r6, r6
 800662e:	f884 3043 	strb.w	r3, [r4, #67]	; 0x43
 8006632:	485a      	ldr	r0, [pc, #360]	; (800679c <_printf_i+0x23c>)
 8006634:	230a      	movs	r3, #10
 8006636:	e012      	b.n	800665e <_printf_i+0xfe>
 8006638:	682b      	ldr	r3, [r5, #0]
 800663a:	6820      	ldr	r0, [r4, #0]
 800663c:	1d19      	adds	r1, r3, #4
 800663e:	6029      	str	r1, [r5, #0]
 8006640:	0605      	lsls	r5, r0, #24
 8006642:	d501      	bpl.n	8006648 <_printf_i+0xe8>
 8006644:	681e      	ldr	r6, [r3, #0]
 8006646:	e002      	b.n	800664e <_printf_i+0xee>
 8006648:	0641      	lsls	r1, r0, #25
 800664a:	d5fb      	bpl.n	8006644 <_printf_i+0xe4>
 800664c:	881e      	ldrh	r6, [r3, #0]
 800664e:	4853      	ldr	r0, [pc, #332]	; (800679c <_printf_i+0x23c>)
 8006650:	2f6f      	cmp	r7, #111	; 0x6f
 8006652:	bf0c      	ite	eq
 8006654:	2308      	moveq	r3, #8
 8006656:	230a      	movne	r3, #10
 8006658:	2100      	movs	r1, #0
 800665a:	f884 1043 	strb.w	r1, [r4, #67]	; 0x43
 800665e:	6865      	ldr	r5, [r4, #4]
 8006660:	60a5      	str	r5, [r4, #8]
 8006662:	2d00      	cmp	r5, #0
 8006664:	bfa2      	ittt	ge
 8006666:	6821      	ldrge	r1, [r4, #0]
 8006668:	f021 0104 	bicge.w	r1, r1, #4
 800666c:	6021      	strge	r1, [r4, #0]
 800666e:	b90e      	cbnz	r6, 8006674 <_printf_i+0x114>
 8006670:	2d00      	cmp	r5, #0
 8006672:	d04b      	beq.n	800670c <_printf_i+0x1ac>
 8006674:	4615      	mov	r5, r2
 8006676:	fbb6 f1f3 	udiv	r1, r6, r3
 800667a:	fb03 6711 	mls	r7, r3, r1, r6
 800667e:	5dc7      	ldrb	r7, [r0, r7]
 8006680:	f805 7d01 	strb.w	r7, [r5, #-1]!
 8006684:	4637      	mov	r7, r6
 8006686:	42bb      	cmp	r3, r7
 8006688:	460e      	mov	r6, r1
 800668a:	d9f4      	bls.n	8006676 <_printf_i+0x116>
 800668c:	2b08      	cmp	r3, #8
 800668e:	d10b      	bne.n	80066a8 <_printf_i+0x148>
 8006690:	6823      	ldr	r3, [r4, #0]
 8006692:	07de      	lsls	r6, r3, #31
 8006694:	d508      	bpl.n	80066a8 <_printf_i+0x148>
 8006696:	6923      	ldr	r3, [r4, #16]
 8006698:	6861      	ldr	r1, [r4, #4]
 800669a:	4299      	cmp	r1, r3
 800669c:	bfde      	ittt	le
 800669e:	2330      	movle	r3, #48	; 0x30
 80066a0:	f805 3c01 	strble.w	r3, [r5, #-1]
 80066a4:	f105 35ff 	addle.w	r5, r5, #4294967295
 80066a8:	1b52      	subs	r2, r2, r5
 80066aa:	6122      	str	r2, [r4, #16]
 80066ac:	f8cd a000 	str.w	sl, [sp]
 80066b0:	464b      	mov	r3, r9
 80066b2:	aa03      	add	r2, sp, #12
 80066b4:	4621      	mov	r1, r4
 80066b6:	4640      	mov	r0, r8
 80066b8:	f7ff fee4 	bl	8006484 <_printf_common>
 80066bc:	3001      	adds	r0, #1
 80066be:	d14a      	bne.n	8006756 <_printf_i+0x1f6>
 80066c0:	f04f 30ff 	mov.w	r0, #4294967295
 80066c4:	b004      	add	sp, #16
 80066c6:	e8bd 87f0 	ldmia.w	sp!, {r4, r5, r6, r7, r8, r9, sl, pc}
 80066ca:	6823      	ldr	r3, [r4, #0]
 80066cc:	f043 0320 	orr.w	r3, r3, #32
 80066d0:	6023      	str	r3, [r4, #0]
 80066d2:	4833      	ldr	r0, [pc, #204]	; (80067a0 <_printf_i+0x240>)
 80066d4:	2778      	movs	r7, #120	; 0x78
 80066d6:	f884 7045 	strb.w	r7, [r4, #69]	; 0x45
 80066da:	6823      	ldr	r3, [r4, #0]
 80066dc:	6829      	ldr	r1, [r5, #0]
 80066de:	061f      	lsls	r7, r3, #24
 80066e0:	f851 6b04 	ldr.w	r6, [r1], #4
 80066e4:	d402      	bmi.n	80066ec <_printf_i+0x18c>
 80066e6:	065f      	lsls	r7, r3, #25
 80066e8:	bf48      	it	mi
 80066ea:	b2b6      	uxthmi	r6, r6
 80066ec:	07df      	lsls	r7, r3, #31
 80066ee:	bf48      	it	mi
 80066f0:	f043 0320 	orrmi.w	r3, r3, #32
 80066f4:	6029      	str	r1, [r5, #0]
 80066f6:	bf48      	it	mi
 80066f8:	6023      	strmi	r3, [r4, #0]
 80066fa:	b91e      	cbnz	r6, 8006704 <_printf_i+0x1a4>
 80066fc:	6823      	ldr	r3, [r4, #0]
 80066fe:	f023 0320 	bic.w	r3, r3, #32
 8006702:	6023      	str	r3, [r4, #0]
 8006704:	2310      	movs	r3, #16
 8006706:	e7a7      	b.n	8006658 <_printf_i+0xf8>
 8006708:	4824      	ldr	r0, [pc, #144]	; (800679c <_printf_i+0x23c>)
 800670a:	e7e4      	b.n	80066d6 <_printf_i+0x176>
 800670c:	4615      	mov	r5, r2
 800670e:	e7bd      	b.n	800668c <_printf_i+0x12c>
 8006710:	682b      	ldr	r3, [r5, #0]
 8006712:	6826      	ldr	r6, [r4, #0]
 8006714:	6961      	ldr	r1, [r4, #20]
 8006716:	1d18      	adds	r0, r3, #4
 8006718:	6028      	str	r0, [r5, #0]
 800671a:	0635      	lsls	r5, r6, #24
 800671c:	681b      	ldr	r3, [r3, #0]
 800671e:	d501      	bpl.n	8006724 <_printf_i+0x1c4>
 8006720:	6019      	str	r1, [r3, #0]
 8006722:	e002      	b.n	800672a <_printf_i+0x1ca>
 8006724:	0670      	lsls	r0, r6, #25
 8006726:	d5fb      	bpl.n	8006720 <_printf_i+0x1c0>
 8006728:	8019      	strh	r1, [r3, #0]
 800672a:	2300      	movs	r3, #0
 800672c:	6123      	str	r3, [r4, #16]
 800672e:	4615      	mov	r5, r2
 8006730:	e7bc      	b.n	80066ac <_printf_i+0x14c>
 8006732:	682b      	ldr	r3, [r5, #0]
 8006734:	1d1a      	adds	r2, r3, #4
 8006736:	602a      	str	r2, [r5, #0]
 8006738:	681d      	ldr	r5, [r3, #0]
 800673a:	6862      	ldr	r2, [r4, #4]
 800673c:	2100      	movs	r1, #0
 800673e:	4628      	mov	r0, r5
 8006740:	f7f9 fd56 	bl	80001f0 <memchr>
 8006744:	b108      	cbz	r0, 800674a <_printf_i+0x1ea>
 8006746:	1b40      	subs	r0, r0, r5
 8006748:	6060      	str	r0, [r4, #4]
 800674a:	6863      	ldr	r3, [r4, #4]
 800674c:	6123      	str	r3, [r4, #16]
 800674e:	2300      	movs	r3, #0
 8006750:	f884 3043 	strb.w	r3, [r4, #67]	; 0x43
 8006754:	e7aa      	b.n	80066ac <_printf_i+0x14c>
 8006756:	6923      	ldr	r3, [r4, #16]
 8006758:	462a      	mov	r2, r5
 800675a:	4649      	mov	r1, r9
 800675c:	4640      	mov	r0, r8
 800675e:	47d0      	blx	sl
 8006760:	3001      	adds	r0, #1
 8006762:	d0ad      	beq.n	80066c0 <_printf_i+0x160>
 8006764:	6823      	ldr	r3, [r4, #0]
 8006766:	079b      	lsls	r3, r3, #30
 8006768:	d413      	bmi.n	8006792 <_printf_i+0x232>
 800676a:	68e0      	ldr	r0, [r4, #12]
 800676c:	9b03      	ldr	r3, [sp, #12]
 800676e:	4298      	cmp	r0, r3
 8006770:	bfb8      	it	lt
 8006772:	4618      	movlt	r0, r3
 8006774:	e7a6      	b.n	80066c4 <_printf_i+0x164>
 8006776:	2301      	movs	r3, #1
 8006778:	4632      	mov	r2, r6
 800677a:	4649      	mov	r1, r9
 800677c:	4640      	mov	r0, r8
 800677e:	47d0      	blx	sl
 8006780:	3001      	adds	r0, #1
 8006782:	d09d      	beq.n	80066c0 <_printf_i+0x160>
 8006784:	3501      	adds	r5, #1
 8006786:	68e3      	ldr	r3, [r4, #12]
 8006788:	9903      	ldr	r1, [sp, #12]
 800678a:	1a5b      	subs	r3, r3, r1
 800678c:	42ab      	cmp	r3, r5
 800678e:	dcf2      	bgt.n	8006776 <_printf_i+0x216>
 8006790:	e7eb      	b.n	800676a <_printf_i+0x20a>
 8006792:	2500      	movs	r5, #0
 8006794:	f104 0619 	add.w	r6, r4, #25
 8006798:	e7f5      	b.n	8006786 <_printf_i+0x226>
 800679a:	bf00      	nop
 800679c:	08006991 	.word	0x08006991
 80067a0:	080069a2 	.word	0x080069a2

080067a4 <memmove>:
 80067a4:	4288      	cmp	r0, r1
 80067a6:	b510      	push	{r4, lr}
 80067a8:	eb01 0402 	add.w	r4, r1, r2
 80067ac:	d902      	bls.n	80067b4 <memmove+0x10>
 80067ae:	4284      	cmp	r4, r0
 80067b0:	4623      	mov	r3, r4
 80067b2:	d807      	bhi.n	80067c4 <memmove+0x20>
 80067b4:	1e43      	subs	r3, r0, #1
 80067b6:	42a1      	cmp	r1, r4
 80067b8:	d008      	beq.n	80067cc <memmove+0x28>
 80067ba:	f811 2b01 	ldrb.w	r2, [r1], #1
 80067be:	f803 2f01 	strb.w	r2, [r3, #1]!
 80067c2:	e7f8      	b.n	80067b6 <memmove+0x12>
 80067c4:	4402      	add	r2, r0
 80067c6:	4601      	mov	r1, r0
 80067c8:	428a      	cmp	r2, r1
 80067ca:	d100      	bne.n	80067ce <memmove+0x2a>
 80067cc:	bd10      	pop	{r4, pc}
 80067ce:	f813 4d01 	ldrb.w	r4, [r3, #-1]!
 80067d2:	f802 4d01 	strb.w	r4, [r2, #-1]!
 80067d6:	e7f7      	b.n	80067c8 <memmove+0x24>

080067d8 <_sbrk_r>:
 80067d8:	b538      	push	{r3, r4, r5, lr}
 80067da:	4d06      	ldr	r5, [pc, #24]	; (80067f4 <_sbrk_r+0x1c>)
 80067dc:	2300      	movs	r3, #0
 80067de:	4604      	mov	r4, r0
 80067e0:	4608      	mov	r0, r1
 80067e2:	602b      	str	r3, [r5, #0]
 80067e4:	f7fa fd9e 	bl	8001324 <_sbrk>
 80067e8:	1c43      	adds	r3, r0, #1
 80067ea:	d102      	bne.n	80067f2 <_sbrk_r+0x1a>
 80067ec:	682b      	ldr	r3, [r5, #0]
 80067ee:	b103      	cbz	r3, 80067f2 <_sbrk_r+0x1a>
 80067f0:	6023      	str	r3, [r4, #0]
 80067f2:	bd38      	pop	{r3, r4, r5, pc}
 80067f4:	200005c4 	.word	0x200005c4

080067f8 <memcpy>:
 80067f8:	440a      	add	r2, r1
 80067fa:	4291      	cmp	r1, r2
 80067fc:	f100 33ff 	add.w	r3, r0, #4294967295
 8006800:	d100      	bne.n	8006804 <memcpy+0xc>
 8006802:	4770      	bx	lr
 8006804:	b510      	push	{r4, lr}
 8006806:	f811 4b01 	ldrb.w	r4, [r1], #1
 800680a:	f803 4f01 	strb.w	r4, [r3, #1]!
 800680e:	4291      	cmp	r1, r2
 8006810:	d1f9      	bne.n	8006806 <memcpy+0xe>
 8006812:	bd10      	pop	{r4, pc}

08006814 <_realloc_r>:
 8006814:	e92d 41f0 	stmdb	sp!, {r4, r5, r6, r7, r8, lr}
 8006818:	4680      	mov	r8, r0
 800681a:	4614      	mov	r4, r2
 800681c:	460e      	mov	r6, r1
 800681e:	b921      	cbnz	r1, 800682a <_realloc_r+0x16>
 8006820:	e8bd 41f0 	ldmia.w	sp!, {r4, r5, r6, r7, r8, lr}
 8006824:	4611      	mov	r1, r2
 8006826:	f7ff bc49 	b.w	80060bc <_malloc_r>
 800682a:	b92a      	cbnz	r2, 8006838 <_realloc_r+0x24>
 800682c:	f7ff fbda 	bl	8005fe4 <_free_r>
 8006830:	4625      	mov	r5, r4
 8006832:	4628      	mov	r0, r5
 8006834:	e8bd 81f0 	ldmia.w	sp!, {r4, r5, r6, r7, r8, pc}
 8006838:	f000 f81b 	bl	8006872 <_malloc_usable_size_r>
 800683c:	4284      	cmp	r4, r0
 800683e:	4607      	mov	r7, r0
 8006840:	d802      	bhi.n	8006848 <_realloc_r+0x34>
 8006842:	ebb4 0f50 	cmp.w	r4, r0, lsr #1
 8006846:	d812      	bhi.n	800686e <_realloc_r+0x5a>
 8006848:	4621      	mov	r1, r4
 800684a:	4640      	mov	r0, r8
 800684c:	f7ff fc36 	bl	80060bc <_malloc_r>
 8006850:	4605      	mov	r5, r0
 8006852:	2800      	cmp	r0, #0
 8006854:	d0ed      	beq.n	8006832 <_realloc_r+0x1e>
 8006856:	42bc      	cmp	r4, r7
 8006858:	4622      	mov	r2, r4
 800685a:	4631      	mov	r1, r6
 800685c:	bf28      	it	cs
 800685e:	463a      	movcs	r2, r7
 8006860:	f7ff ffca 	bl	80067f8 <memcpy>
 8006864:	4631      	mov	r1, r6
 8006866:	4640      	mov	r0, r8
 8006868:	f7ff fbbc 	bl	8005fe4 <_free_r>
 800686c:	e7e1      	b.n	8006832 <_realloc_r+0x1e>
 800686e:	4635      	mov	r5, r6
 8006870:	e7df      	b.n	8006832 <_realloc_r+0x1e>

08006872 <_malloc_usable_size_r>:
 8006872:	f851 3c04 	ldr.w	r3, [r1, #-4]
 8006876:	1f18      	subs	r0, r3, #4
 8006878:	2b00      	cmp	r3, #0
 800687a:	bfbc      	itt	lt
 800687c:	580b      	ldrlt	r3, [r1, r0]
 800687e:	18c0      	addlt	r0, r0, r3
 8006880:	4770      	bx	lr
	...

08006884 <_init>:
 8006884:	b5f8      	push	{r3, r4, r5, r6, r7, lr}
 8006886:	bf00      	nop
 8006888:	bcf8      	pop	{r3, r4, r5, r6, r7}
 800688a:	bc08      	pop	{r3}
 800688c:	469e      	mov	lr, r3
 800688e:	4770      	bx	lr

08006890 <_fini>:
 8006890:	b5f8      	push	{r3, r4, r5, r6, r7, lr}
 8006892:	bf00      	nop
 8006894:	bcf8      	pop	{r3, r4, r5, r6, r7}
 8006896:	bc08      	pop	{r3}
 8006898:	469e      	mov	lr, r3
 800689a:	4770      	bx	lr
